; Listing generated by Microsoft (R) Optimizing Compiler Version 19.27.29111.0 

; Generated by VC++ for Common Language Runtime
.file "C:\Users\César Mosqueira\source\repos\CLRCV\CLRCV\Display.cpp"
	.rdata

$SG108214:
	.ascii	"sec\000"

$SG286135:
	.ascii	"%s\000"

piecewise_construct:
	.space	1

$SG108230:
	.ascii	"C:\\opencv\\build\\include\\opencv2\\core\\utility.hpp\000"
	.space	7

$SG108231:
	.ascii	"cv::alignSize\000"
	.space	2

$SG108232:
	.ascii	"(n & (n - 1)) == 0\000"
	.space	1

$SG106190:
	.ascii	" x \000"

$SG108240:
	.ascii	"C:\\opencv\\build\\include\\opencv2\\core\\utility.hpp\000"
	.space	3

$SG108242:
	.ascii	"a >= 0\000"
	.space	5

$SG108241:
	.ascii	"cv::divUp\000"
	.space	6

$SG109386:
	.ascii	"t\000y\000p\000e\000 \000=\000=\000 \000C\000V\000_\0006"
	.ascii	"\0004\000F\000C\0001\000\000\000"
	.space	6

$SG109345:
	.ascii	"C\000:\000\\\000o\000p\000e\000n\000c\000v\000\\\000b\000"
	.ascii	"u\000i\000l\000d\000\\\000i\000n\000c\000l\000u\000d\000e"
	.ascii	"\000\\\000o\000p\000e\000n\000c\000v\0002\000\\\000c\000o"
	.ascii	"\000r\000e\000\\\000t\000y\000p\000e\000s\000_\000c\000.\000"
	.ascii	"h\000\000\000"
	.space	2

$SG109346:
	.ascii	"(\000u\000n\000s\000i\000g\000n\000e\000d\000)\000C\000V"
	.ascii	"\000_\000M\000A\000T\000_\000D\000E\000P\000T\000H\000(\000"
	.ascii	"t\000y\000p\000e\000)\000 \000<\000=\000 \000C\000V\000_\000"
	.ascii	"6\0004\000F\000\000\000"
	.space	2

$SG109381:
	.ascii	"C\000:\000\\\000o\000p\000e\000n\000c\000v\000\\\000b\000"
	.ascii	"u\000i\000l\000d\000\\\000i\000n\000c\000l\000u\000d\000e"
	.ascii	"\000\\\000o\000p\000e\000n\000c\000v\0002\000\\\000c\000o"
	.ascii	"\000r\000e\000\\\000t\000y\000p\000e\000s\000_\000c\000.\000"
	.ascii	"h\000\000\000"
	.space	2

$SG109382:
	.ascii	"(\000u\000n\000s\000i\000g\000n\000e\000d\000)\000r\000o"
	.ascii	"\000w\000 \000<\000 \000(\000u\000n\000s\000i\000g\000n\000"
	.ascii	"e\000d\000)\000m\000a\000t\000-\000>\000r\000o\000w\000s\000"
	.ascii	" \000&\000&\000 \000(\000u\000n\000s\000i\000g\000n\000e\000"
	.ascii	"d\000)\000c\000o\000l\000 \000<\000 \000(\000u\000n\000s\000"
	.ascii	"i\000g\000n\000e\000d\000)\000m\000a\000t\000-\000>\000c\000"
	.ascii	"o\000l\000s\000\000\000"
	.space	2

$SG109415:
	.ascii	"t\000y\000p\000e\000 \000=\000=\000 \000C\000V\000_\0006"
	.ascii	"\0004\000F\000C\0001\000\000\000"
	.space	6

$SG109385:
	.ascii	"C\000:\000\\\000o\000p\000e\000n\000c\000v\000\\\000b\000"
	.ascii	"u\000i\000l\000d\000\\\000i\000n\000c\000l\000u\000d\000e"
	.ascii	"\000\\\000o\000p\000e\000n\000c\000v\0002\000\\\000c\000o"
	.ascii	"\000r\000e\000\\\000t\000y\000p\000e\000s\000_\000c\000.\000"
	.ascii	"h\000\000\000"
	.space	2

$SG109410:
	.ascii	"C\000:\000\\\000o\000p\000e\000n\000c\000v\000\\\000b\000"
	.ascii	"u\000i\000l\000d\000\\\000i\000n\000c\000l\000u\000d\000e"
	.ascii	"\000\\\000o\000p\000e\000n\000c\000v\0002\000\\\000c\000o"
	.ascii	"\000r\000e\000\\\000t\000y\000p\000e\000s\000_\000c\000.\000"
	.ascii	"h\000\000\000"
	.space	2

$SG109411:
	.ascii	"(\000u\000n\000s\000i\000g\000n\000e\000d\000)\000r\000o"
	.ascii	"\000w\000 \000<\000 \000(\000u\000n\000s\000i\000g\000n\000"
	.ascii	"e\000d\000)\000m\000a\000t\000-\000>\000r\000o\000w\000s\000"
	.ascii	" \000&\000&\000 \000(\000u\000n\000s\000i\000g\000n\000e\000"
	.ascii	"d\000)\000c\000o\000l\000 \000<\000 \000(\000u\000n\000s\000"
	.ascii	"i\000g\000n\000e\000d\000)\000m\000a\000t\000-\000>\000c\000"
	.ascii	"o\000l\000s\000\000\000"
	.space	2

$SG111345:
	.ascii	"_\000e\000l\000e\000m\000-\000>\000f\000l\000a\000g\000s"
	.ascii	"\000 \000>\000=\000 \0000\000\000\000"
	.space	4

$SG109414:
	.ascii	"C\000:\000\\\000o\000p\000e\000n\000c\000v\000\\\000b\000"
	.ascii	"u\000i\000l\000d\000\\\000i\000n\000c\000l\000u\000d\000e"
	.ascii	"\000\\\000o\000p\000e\000n\000c\000v\0002\000\\\000c\000o"
	.ascii	"\000r\000e\000\\\000t\000y\000p\000e\000s\000_\000c\000.\000"
	.ascii	"h\000\000\000"
	.space	2

$SG274657:
	.ascii	"C:\\opencv\\build\\include\\opencv2\\stitching\\detail\\"
	.ascii	"warpers_inl.hpp\000"
	.space	7

$SG284315:
	.ascii	"C:\\opencv\\build\\include\\opencv2\\core\\mat.inl.hpp\000"
	.space	7

$SG274658:
	.ascii	"cv::detail::RotationWarperBase<struct cv::detail::PlaneP"
	.ascii	"rojector>::warpBackward\000"

$SG274659:
	.ascii	"src_br.x - src_tl.x + 1 == size.width && src_br.y - src_"
	.ascii	"tl.y + 1 == size.height\000"

$SG274823:
	.ascii	"C:\\opencv\\build\\include\\opencv2\\stitching\\detail\\"
	.ascii	"warpers_inl.hpp\000"
	.space	7

$SG284316:
	.ascii	"cv::Mat::at\000"

$SG284322:
	.ascii	"data\000"
	.space	7

$SG274824:
	.ascii	"cv::detail::RotationWarperBase<struct cv::detail::Spheri"
	.ascii	"calProjector>::warpBackward\000"

$SG277473:
	.ascii	"data\000"
	.space	7

$SG274825:
	.ascii	"src_br.x - src_tl.x + 1 == size.width && src_br.y - src_"
	.ascii	"tl.y + 1 == size.height\000"

$SG274977:
	.ascii	"C:\\opencv\\build\\include\\opencv2\\stitching\\detail\\"
	.ascii	"warpers_inl.hpp\000"
	.space	7

$SG284317:
	.ascii	"dims <= 2\000"
	.space	6

$SG284320:
	.ascii	"C:\\opencv\\build\\include\\opencv2\\core\\mat.inl.hpp\000"
	.space	7

$SG274978:
	.ascii	"cv::detail::RotationWarperBase<struct cv::detail::Cylind"
	.ascii	"ricalProjector>::warpBackward\000"
	.space	2

$SG284325:
	.ascii	"C:\\opencv\\build\\include\\opencv2\\core\\mat.inl.hpp\000"
	.space	7

$SG274979:
	.ascii	"src_br.x - src_tl.x + 1 == size.width && src_br.y - src_"
	.ascii	"tl.y + 1 == size.height\000"

$SG275162:
	.ascii	"C:\\opencv\\build\\include\\opencv2\\stitching\\detail\\"
	.ascii	"warpers_inl.hpp\000"
	.space	7

$SG284321:
	.ascii	"cv::Mat::at\000"

$SG277511:
	.ascii	"data\000"
	.space	7

$SG275163:
	.ascii	"cv::detail::RotationWarperBase<struct cv::detail::Fishey"
	.ascii	"eProjector>::warpBackward\000"
	.space	6

$SG284326:
	.ascii	"cv::Mat::at\000"
	.space	12

$SG275164:
	.ascii	"src_br.x - src_tl.x + 1 == size.width && src_br.y - src_"
	.ascii	"tl.y + 1 == size.height\000"

$SG111344:
	.ascii	"C\000:\000\\\000o\000p\000e\000n\000c\000v\000\\\000b\000"
	.ascii	"u\000i\000l\000d\000\\\000i\000n\000c\000l\000u\000d\000e"
	.ascii	"\000\\\000o\000p\000e\000n\000c\000v\0002\000\\\000c\000o"
	.ascii	"\000r\000e\000\\\000c\000o\000r\000e\000_\000c\000.\000h\000"
	.ascii	"\000\000"
	.space	4

$SG275316:
	.ascii	"C:\\opencv\\build\\include\\opencv2\\stitching\\detail\\"
	.ascii	"warpers_inl.hpp\000"
	.space	7

$SG284327:
	.ascii	"(unsigned)i0 < (unsigned)size.p[0]\000"
	.space	5

$SG275317:
	.ascii	"cv::detail::RotationWarperBase<struct cv::detail::Stereo"
	.ascii	"graphicProjector>::warpBackward\000"
	.space	8

$SG275318:
	.ascii	"src_br.x - src_tl.x + 1 == size.width && src_br.y - src_"
	.ascii	"tl.y + 1 == size.height\000"

$SG275470:
	.ascii	"C:\\opencv\\build\\include\\opencv2\\stitching\\detail\\"
	.ascii	"warpers_inl.hpp\000"
	.space	7

$SG284330:
	.ascii	"C:\\opencv\\build\\include\\opencv2\\core\\mat.inl.hpp\000"
	.space	7

$SG275471:
	.ascii	"cv::detail::RotationWarperBase<struct cv::detail::Compre"
	.ascii	"ssedRectilinearProjector>::warpBackward\000"

$SG275472:
	.ascii	"src_br.x - src_tl.x + 1 == size.width && src_br.y - src_"
	.ascii	"tl.y + 1 == size.height\000"

$SG275624:
	.ascii	"C:\\opencv\\build\\include\\opencv2\\stitching\\detail\\"
	.ascii	"warpers_inl.hpp\000"
	.space	7

$SG284331:
	.ascii	"cv::Mat::at\000"
	.space	12

$SG275625:
	.ascii	"cv::detail::RotationWarperBase<struct cv::detail::Compre"
	.ascii	"ssedRectilinearPortraitProjector>::warpBackward\000"
	.space	8

$SG275626:
	.ascii	"src_br.x - src_tl.x + 1 == size.width && src_br.y - src_"
	.ascii	"tl.y + 1 == size.height\000"

$SG275778:
	.ascii	"C:\\opencv\\build\\include\\opencv2\\stitching\\detail\\"
	.ascii	"warpers_inl.hpp\000"
	.space	7

$SG284335:
	.ascii	"C:\\opencv\\build\\include\\opencv2\\core\\mat.inl.hpp\000"
	.space	7

$SG275779:
	.ascii	"cv::detail::RotationWarperBase<struct cv::detail::Panini"
	.ascii	"Projector>::warpBackward\000"
	.space	7

$SG284336:
	.ascii	"cv::Mat::at\000"
	.space	12

$SG275780:
	.ascii	"src_br.x - src_tl.x + 1 == size.width && src_br.y - src_"
	.ascii	"tl.y + 1 == size.height\000"

$SG284108:
	.ascii	"C:\\Program Files (x86)\\Microsoft Visual Studio\\2019\\"
	.ascii	"Enterprise\\VC\\Tools\\MSVC\\14.27.29110\\include\\xlocal"
	.ascii	"e\000"
	.space	7

$SG275932:
	.ascii	"C:\\opencv\\build\\include\\opencv2\\stitching\\detail\\"
	.ascii	"warpers_inl.hpp\000"
	.space	7

$SG277466:
	.ascii	"C:\\opencv\\build\\include\\opencv2\\core\\mat.inl.hpp\000"
	.space	7

$SG275933:
	.ascii	"cv::detail::RotationWarperBase<struct cv::detail::Panini"
	.ascii	"PortraitProjector>::warpBackward\000"
	.space	7

$SG275934:
	.ascii	"src_br.x - src_tl.x + 1 == size.width && src_br.y - src_"
	.ascii	"tl.y + 1 == size.height\000"

$SG276086:
	.ascii	"C:\\opencv\\build\\include\\opencv2\\stitching\\detail\\"
	.ascii	"warpers_inl.hpp\000"
	.space	7

$SG277467:
	.ascii	"cv::Mat::at\000"
	.space	12

$SG276087:
	.ascii	"cv::detail::RotationWarperBase<struct cv::detail::Mercat"
	.ascii	"orProjector>::warpBackward\000"
	.space	13

$SG276088:
	.ascii	"src_br.x - src_tl.x + 1 == size.width && src_br.y - src_"
	.ascii	"tl.y + 1 == size.height\000"

$SG284332:
	.ascii	"(unsigned)(i1 * DataType<_Tp>::channels) < (unsigned)(si"
	.ascii	"ze.p[1] * channels())\000"
	.space	2

$SG284337:
	.ascii	"((((sizeof(size_t)<<28)|0x8442211) >> ((traits::Depth<_T"
	.ascii	"p>::value) & ((1 << 3) - 1))*4) & 15) == elemSize1()\000"
	.space	3

$SG276240:
	.ascii	"C:\\opencv\\build\\include\\opencv2\\stitching\\detail\\"
	.ascii	"warpers_inl.hpp\000"
	.space	7

$SG277468:
	.ascii	"dims <= 2\000"
	.space	14

$SG276241:
	.ascii	"cv::detail::RotationWarperBase<struct cv::detail::Transv"
	.ascii	"erseMercatorProjector>::warpBackward\000"
	.space	3

$SG276242:
	.ascii	"src_br.x - src_tl.x + 1 == size.width && src_br.y - src_"
	.ascii	"tl.y + 1 == size.height\000"

$SG276394:
	.ascii	"C:\\opencv\\build\\include\\opencv2\\stitching\\detail\\"
	.ascii	"warpers_inl.hpp\000"
	.space	7

$SG277471:
	.ascii	"C:\\opencv\\build\\include\\opencv2\\core\\mat.inl.hpp\000"
	.space	7

$SG276395:
	.ascii	"cv::detail::RotationWarperBase<struct cv::detail::Spheri"
	.ascii	"calPortraitProjector>::warpBackward\000"
	.space	4

$SG276396:
	.ascii	"src_br.x - src_tl.x + 1 == size.width && src_br.y - src_"
	.ascii	"tl.y + 1 == size.height\000"

$SG276548:
	.ascii	"C:\\opencv\\build\\include\\opencv2\\stitching\\detail\\"
	.ascii	"warpers_inl.hpp\000"
	.space	7

$SG277472:
	.ascii	"cv::Mat::at\000"
	.space	12

$SG276549:
	.ascii	"cv::detail::RotationWarperBase<struct cv::detail::Cylind"
	.ascii	"ricalPortraitProjector>::warpBackward\000"
	.space	2

$SG276550:
	.ascii	"src_br.x - src_tl.x + 1 == size.width && src_br.y - src_"
	.ascii	"tl.y + 1 == size.height\000"

$SG276733:
	.ascii	"C:\\opencv\\build\\include\\opencv2\\stitching\\detail\\"
	.ascii	"warpers_inl.hpp\000"
	.space	7

$SG277476:
	.ascii	"C:\\opencv\\build\\include\\opencv2\\core\\mat.inl.hpp\000"
	.space	7

$SG276734:
	.ascii	"cv::detail::RotationWarperBase<struct cv::detail::PlaneP"
	.ascii	"ortraitProjector>::warpBackward\000"
	.space	8

$SG276735:
	.ascii	"src_br.x - src_tl.x + 1 == size.width && src_br.y - src_"
	.ascii	"tl.y + 1 == size.height\000"

$SG277477:
	.ascii	"cv::Mat::at\000"
	.space	4

$SG277478:
	.ascii	"(unsigned)i0 < (unsigned)size.p[0]\000"
	.space	5

$SG277481:
	.ascii	"C:\\opencv\\build\\include\\opencv2\\core\\mat.inl.hpp\000"
	.space	7

$SG277482:
	.ascii	"cv::Mat::at\000"
	.space	4

$SG277483:
	.ascii	"(unsigned)(i1 * DataType<_Tp>::channels) < (unsigned)(si"
	.ascii	"ze.p[1] * channels())\000"
	.space	2

$SG277486:
	.ascii	"C:\\opencv\\build\\include\\opencv2\\core\\mat.inl.hpp\000"
	.space	7

$SG277487:
	.ascii	"cv::Mat::at\000"
	.space	12

$SG277488:
	.ascii	"((((sizeof(size_t)<<28)|0x8442211) >> ((traits::Depth<_T"
	.ascii	"p>::value) & ((1 << 3) - 1))*4) & 15) == elemSize1()\000"
	.space	3

$SG277504:
	.ascii	"C:\\opencv\\build\\include\\opencv2\\core\\mat.inl.hpp\000"
	.space	7

$SG277505:
	.ascii	"cv::Mat::at\000"
	.space	4

$SG277506:
	.ascii	"dims <= 2\000"
	.space	6

$SG277509:
	.ascii	"C:\\opencv\\build\\include\\opencv2\\core\\mat.inl.hpp\000"
	.space	7

$SG277510:
	.ascii	"cv::Mat::at\000"
	.space	4

$SG277514:
	.ascii	"C:\\opencv\\build\\include\\opencv2\\core\\mat.inl.hpp\000"
	.space	7

$SG277515:
	.ascii	"cv::Mat::at\000"
	.space	4

$SG277516:
	.ascii	"(unsigned)i0 < (unsigned)size.p[0]\000"
	.space	5

$SG277519:
	.ascii	"C:\\opencv\\build\\include\\opencv2\\core\\mat.inl.hpp\000"
	.space	7

$SG277520:
	.ascii	"cv::Mat::at\000"
	.space	12

$SG277521:
	.ascii	"(unsigned)(i1 * DataType<_Tp>::channels) < (unsigned)(si"
	.ascii	"ze.p[1] * channels())\000"
	.space	2

$SG277524:
	.ascii	"C:\\opencv\\build\\include\\opencv2\\core\\mat.inl.hpp\000"
	.space	7

$SG277525:
	.ascii	"cv::Mat::at\000"
	.space	12

$SG277526:
	.ascii	"((((sizeof(size_t)<<28)|0x8442211) >> ((traits::Depth<_T"
	.ascii	"p>::value) & ((1 << 3) - 1))*4) & 15) == elemSize1()\000"
	.space	3

$SG253111:
	.ascii	"Equalized:\n\000"
	.space	4

$SG253208:
	.ascii	"img\\output1.jpg\000"

$SG286134:
	.ascii	"invalid argument\000"
	.space	7

$SG286139:
	.ascii	"\"\000i\000n\000v\000a\000l\000i\000d\000 \000a\000r\000"
	.ascii	"g\000u\000m\000e\000n\000t\000\"\000\000\000"
	.space	2

$SG286136:
	.ascii	"C:\\Program Files (x86)\\Microsoft Visual Studio\\2019\\"
	.ascii	"Enterprise\\VC\\Tools\\MSVC\\14.27.29110\\include\\xmemor"
	.ascii	"y\000"
	.space	7

$SG286137:
	.ascii	"C\000:\000\\\000P\000r\000o\000g\000r\000a\000m\000 \000"
	.ascii	"F\000i\000l\000e\000s\000 \000(\000x\0008\0006\000)\000\\"
	.ascii	"\000M\000i\000c\000r\000o\000s\000o\000f\000t\000 \000V\000"
	.ascii	"i\000s\000u\000a\000l\000 \000S\000t\000u\000d\000i\000o\000"
	.ascii	"\\\0002\0000\0001\0009\000\\\000E\000n\000t\000e\000r\000"
	.ascii	"p\000r\000i\000s\000e\000\\\000V\000C\000\\\000T\000o\000"
	.ascii	"o\000l\000s\000\\\000M\000S\000V\000C\000\\\0001\0004\000"
	.ascii	".\0002\0007\000.\0002\0009\0001\0001\0000\000\\\000i\000n"
	.ascii	"\000c\000l\000u\000d\000e\000\\\000x\000m\000e\000m\000o\000"
	.ascii	"r\000y\000\000\000"
	.space	14

$SG286138:
	.ascii	"s\000t\000d\000:\000:\000_\000A\000l\000l\000o\000c\000a"
	.ascii	"\000t\000e\000_\000m\000a\000n\000u\000a\000l\000l\000y\000"
	.ascii	"_\000v\000e\000c\000t\000o\000r\000_\000a\000l\000i\000g\000"
	.ascii	"n\000e\000d\000\000\000"
.global	
.global	
.global	
	.bss
.local	,4
.local	,4
.local	,4
.local	$T1,0
; Function compile flags: /Odtp
; File C:\Users\César Mosqueira\source\repos\CLRCV\CLRCV\predefined C++ types (compiler internal)
	.text
	.comdat	any, ??2@$$FYAPEAX_KPEAXU__clr_placement_new_t@?A0x5468b6dc@@@Z
.global	??2@$$FYAPEAX_KPEAXU__clr_placement_new_t@?A0x5468b6dc@@@Z ; operator new
??2@$$FYAPEAX_KPEAXU__clr_placement_new_t@?A0x5468b6dc@@@Z: ; operator new
;	.proc.def	D:J(JJM<4  >)

; Function Header:
; max stack depth = 1
; function size = 4 bytes
; local varsig tk = 0x11000059 
; Exception Information:
; 0 handlers, each consisting of filtered handlers

;	.formal.i8 1,"_Where$" SIG: ptr.void
;	.local.i8 0,"$T2" SIG: ptr.void

;	.proc.beg

	ldarg.1				; _Where$
	stloc.0				; $T2

	ldloc.0				; $T2
	ret		
 .end ??2@$$FYAPEAX_KPEAXU__clr_placement_new_t@?A0x5468b6dc@@@Z ; operator new
;	.proc.end.i8
; Function compile flags: /Odtp
; File C:\Users\César Mosqueira\source\repos\CLRCV\CLRCV\predefined C++ types (compiler internal)
	.text
	.comdat	any, ??3@$$FYAXPEAX0U__clr_placement_new_t@?A0x5468b6dc@@@Z
.global	??3@$$FYAXPEAX0U__clr_placement_new_t@?A0x5468b6dc@@@Z ; operator delete
??3@$$FYAXPEAX0U__clr_placement_new_t@?A0x5468b6dc@@@Z:	; operator delete
;	.proc.def	D:V(JJM<4  >)

; Function Header:
; max stack depth = 0
; function size = 1 bytes
; local varsig tk = 0x0 
; Exception Information:
; 0 handlers, each consisting of filtered handlers


;	.proc.beg

	ret		
 .end ??3@$$FYAXPEAX0U__clr_placement_new_t@?A0x5468b6dc@@@Z ; operator delete
;	.proc.end.void
.global	
.global	
	.bss
.local	,4
.local	,4
; Function compile flags: /Odtp
; File C:\Users\César Mosqueira\source\repos\CLRCV\CLRCV\predefined C++\CLI attribute types (compiler internal)
	.text
	.comdat	any, ??0CppInlineNamespaceAttribute@?A0x5468b6dc@vc.cppcli.attributes@@$$FQE$AAM@PE$AAVString@System@@@Z
.global	??0CppInlineNamespaceAttribute@?A0x5468b6dc@vc.cppcli.attributes@@$$FQE$AAM@PE$AAVString@System@@@Z ; ??0CppInlineNamespaceAttribute@?A0x5468b6dc@vc.cppcli.attributes@@$$FQE$AAM@PE$AAVString@System@@@Z
??0CppInlineNamespaceAttribute@?A0x5468b6dc@vc.cppcli.attributes@@$$FQE$AAM@PE$AAVString@System@@@Z: ; ??0CppInlineNamespaceAttribute@?A0x5468b6dc@vc.cppcli.attributes@@$$FQE$AAM@PE$AAVString@System@@@Z
;	.proc.def	D:V(P)

; Function Header:
; max stack depth = 1
; function size = 7 bytes
; local varsig tk = 0x0 
; Exception Information:
; 0 handlers, each consisting of filtered handlers

;	.formal.mptr 0,"this$" SIG: Optional C Binding Modifier(token:0x722A031).class (token:0x722A033)

;	.proc.beg

	ldarg.0				; this$
	call		??0Attribute@System@@$$FIE$AAM@XZ
	ret		
 .end ??0CppInlineNamespaceAttribute@?A0x5468b6dc@vc.cppcli.attributes@@$$FQE$AAM@PE$AAVString@System@@@Z ; ??0CppInlineNamespaceAttribute@?A0x5468b6dc@vc.cppcli.attributes@@$$FQE$AAM@PE$AAVString@System@@@Z
;	.proc.end.void
	.bss
.local	$T1,0
; Function compile flags: /Odtp
; File C:\Program Files (x86)\Microsoft Visual Studio\2019\Enterprise\VC\Tools\MSVC\14.27.29110\include\vcruntime_new.h
	.text
	.comdat	any, ??2@$$FYAPEAX_KPEAX@Z
.global	??2@$$FYAPEAX_KPEAX@Z				; operator new
??2@$$FYAPEAX_KPEAX@Z:					; operator new
;	.proc.def	D:J(JJ)

; Function Header:
; max stack depth = 1
; function size = 4 bytes
; local varsig tk = 0x11000059 
; Exception Information:
; 0 handlers, each consisting of filtered handlers

;	.formal.i8 1,"_Where$" SIG: ptr.void
;	.local.i8 0,"$T2" SIG: ptr.void

;	.proc.beg

; 168  :         (void)_Size;
; 169  :         return _Where;

	ldarg.1				; _Where$
	stloc.0				; $T2

; 170  :     }

	ldloc.0				; $T2
	ret		
 .end ??2@$$FYAPEAX_KPEAX@Z				; operator new
;	.proc.end.i8
.global	
.global	
	.bss
.local	,4
.local	,4
.local	$T1,0
; Function compile flags: /Odtp
; File C:\Program Files (x86)\Windows Kits\10\Include\10.0.18362.0\ucrt\wchar.h
	.text
	.comdat	any, ?wmemcpy@@$$J0YAPEA_WPEA_WPEB_W_K@Z
.global	?wmemcpy@@$$J0YAPEA_WPEA_WPEB_W_K@Z		; wmemcpy
?wmemcpy@@$$J0YAPEA_WPEA_WPEB_W_K@Z:			; wmemcpy
;	.proc.def	D:J(JJJ)

; Function Header:
; max stack depth = 4
; function size = 14 bytes
; local varsig tk = 0x1100005E 
; Exception Information:
; 0 handlers, each consisting of filtered handlers

;	.formal.i8 0,"_S1$" SIG: ptr.char
;	.formal.i8 1,"_S2$" SIG: ptr.Optional C Binding Modifier(token:0x719A7C2).char
;	.formal.u8 2,"_N$" SIG: u8
;	.local.i8 0,"$T2" SIG: ptr.char

;	.proc.beg

; 231  :         #pragma warning(push)
; 232  :         #pragma warning(disable : 4995 4996 6386)
; 233  :         return (wchar_t*)memcpy(_S1, _S2, _N*sizeof(wchar_t));

	ldarg.0				; _S1$
	ldarg.1				; _S2$
	ldarg.2				; _N$
	ldc.i.2		2		; u64 0x2
	conv.i8		
	mul		
	call		?memcpy@@$$J0YAPEAXPEAXPEBX_K@Z
	stloc.0				; $T2

; 234  :         #pragma warning(pop)
; 235  :     }

	ldloc.0				; $T2
	ret		
 .end ?wmemcpy@@$$J0YAPEA_WPEA_WPEB_W_K@Z		; wmemcpy
;	.proc.end.i8
	.bss
.local	$T1,0
; Function compile flags: /Odtp
; File C:\Program Files (x86)\Microsoft Visual Studio\2019\Enterprise\VC\Tools\MSVC\14.27.29110\include\limits
	.text
	.comdat	any, ?max@?$numeric_limits@_J@std@@$$FSA_JXZ
.global	?max@?$numeric_limits@_J@std@@$$FSA_JXZ		; std::numeric_limits<__int64>::max
?max@?$numeric_limits@_J@std@@$$FSA_JXZ:		; std::numeric_limits<__int64>::max
;	.proc.def	D:J()

; Function Header:
; max stack depth = 1
; function size = 12 bytes
; local varsig tk = 0x1100005F 
; Exception Information:
; 0 handlers, each consisting of filtered handlers

;	.local.i8 0,"$T2" SIG: i8

;	.proc.beg

; 646  :         return LLONG_MAX;

	ldc.i8		9223372036854775807 ; i64 0x7fffffffffffffff
	stloc.0				; $T2

; 647  :     }

	ldloc.0				; $T2
	ret		
 .end ?max@?$numeric_limits@_J@std@@$$FSA_JXZ		; std::numeric_limits<__int64>::max
;	.proc.end.i8
.global	
.global	
.global	
.global	??_R0?AVexception@std@@@8			; std::exception `RTTI Type Descriptor'
.global	??_R1A@?0A@EA@exception@std@@8			; std::exception::`RTTI Base Class Descriptor at (0,-1,0,64)'
.global	??_R2exception@std@@8				; std::exception::`RTTI Base Class Array'
.global	??_R3exception@std@@8				; std::exception::`RTTI Class Hierarchy Descriptor'
.global	??_R4exception@std@@6B@				; std::exception::`RTTI Complete Object Locator'
.global	??_7exception@std@@6B@				; std::exception::`vftable'
	.bss
.local	,4
.local	,4
.local	,4
	.data
	.comdat	largest, ??_7exception@std@@6B@

??_7exception@std@@6B@:					; std::exception::`vftable'
	DQ	??_R4exception@std@@6B@
	DQ	??_Eexception@std@@UEAAPEAXI@Z
	DQ	?what@exception@std@@UEBAPEBDXZ
	.rdataseg	.rdata$r
	.comdat	any, ??_R4exception@std@@6B@

??_R4exception@std@@6B@:				; std::exception::`RTTI Complete Object Locator'
	.word	0x1
	.word	0x0
	.word	0x0 DD imagerel ??_R0?AVexception@std@@@8 DD imagerel ??_R3exception@std@@8 DD imagerel ??_R4exception@std@@6B@
	.rdataseg	.rdata$r
	.comdat	any, ??_R3exception@std@@8

??_R3exception@std@@8:					; std::exception::`RTTI Class Hierarchy Descriptor'
	.word	0x0
	.word	0x0
	.word	0x1 DD imagerel ??_R2exception@std@@8
	.rdataseg	.rdata$r
	.comdat	any, ??_R2exception@std@@8

??_R2exception@std@@8:					; std::exception::`RTTI Base Class Array' DD imagerel ??_R1A@?0A@EA@exception@std@@8
	.space	3
	.rdataseg	.rdata$r
	.comdat	any, ??_R1A@?0A@EA@exception@std@@8

??_R1A@?0A@EA@exception@std@@8:				; std::exception::`RTTI Base Class Descriptor at (0,-1,0,64)' DD imagerel ??_R0?AVexception@std@@@8
	.word	0x0
	.word	0x0
	.word	0xffffffff
	.word	0x0
	.word	0x40 DD imagerel ??_R3exception@std@@8
	.dataseg	.data$r
	.comdat	any, ??_R0?AVexception@std@@@8

??_R0?AVexception@std@@@8:				; std::exception `RTTI Type Descriptor'
	DQ	??_7type_info@@6B@
	.double	0x0000000000000000
	.ascii	".?AVexception@std@@\000"
; Function compile flags: /Odtp
; File C:\Program Files (x86)\Microsoft Visual Studio\2019\Enterprise\VC\Tools\MSVC\14.27.29110\include\vcruntime_exception.h
	.text
	.comdat	any, ??0exception@std@@$$FQEAA@QEBDH@Z
.global	??0exception@std@@$$FQEAA@QEBDH@Z		; std::exception::exception
??0exception@std@@$$FQEAA@QEBDH@Z:			; std::exception::exception
;	.proc.def	D:J(JJI)

; Function Header:
; max stack depth = 3
; function size = 25 bytes
; local varsig tk = 0x0 
; Exception Information:
; 0 handlers, each consisting of filtered handlers

;	.formal.i8 0,"this$" SIG: Optional C Binding Modifier(token:0x72462F1).Optional C Binding Modifier(token:0x72462F3).ptr.valueType (token:0x72462F6)
;	.formal.i8 1,"_Message$" SIG: Optional C Binding Modifier(token:0x7205699).Optional C Binding Modifier(token:0x720569B).ptr.Optional C Binding Modifier(token:0x720569E).Optional C Binding Modifier(token:0x72056A0).i1

;	.proc.beg

; 66   :     {

	ldarg.0				; this$
	ldsflda		??_7exception@std@@6B@
	stind.i8	

; 65   :         : _Data()

	ldarg.0				; this$
	ldc.i.8		8		; i64 0x8
	conv.i8		
	add		
	ldc.i.0		0		; i32 0x0
	ldc.i4.s	16		; u64 0x10
	conv.i8		
	initblk		

; 67   :         _Data._What = _Message;

	ldarg.0				; this$
	ldc.i.8		8		; i64 0x8
	conv.i8		
	add		
	ldarg.1				; _Message$
	stind.i8	

; 68   :     }

	ldarg.0				; this$
	ret		
 .end ??0exception@std@@$$FQEAA@QEBDH@Z			; std::exception::exception
;	.proc.end.i8
.global	
	.bss
.local	,4
; Function compile flags: /Odtp
; File C:\Program Files (x86)\Microsoft Visual Studio\2019\Enterprise\VC\Tools\MSVC\14.27.29110\include\vcruntime_exception.h
	.text
	.comdat	any, ??0exception@std@@$$FQEAA@AEBV01@@Z
.global	??0exception@std@@$$FQEAA@AEBV01@@Z		; std::exception::exception
??0exception@std@@$$FQEAA@AEBV01@@Z:			; std::exception::exception
;	.proc.def	D:J(JJ)

; Function Header:
; max stack depth = 3
; function size = 32 bytes
; local varsig tk = 0x0 
; Exception Information:
; 0 handlers, each consisting of filtered handlers

;	.formal.i8 0,"this$" SIG: Optional C Binding Modifier(token:0x72462F1).Optional C Binding Modifier(token:0x72462F3).ptr.valueType (token:0x72462F6)
;	.formal.i8 1,"_Other$" SIG: Optional C Binding Modifier(token:0x72D0E61).ptr.Optional C Binding Modifier(token:0x72D0E64).valueType (token:0x72D0E66)

;	.proc.beg

; 72   :     {

	ldarg.0				; this$
	ldsflda		??_7exception@std@@6B@
	stind.i8	

; 71   :         : _Data()

	ldarg.0				; this$
	ldc.i.8		8		; i64 0x8
	conv.i8		
	add		
	ldc.i.0		0		; i32 0x0
	ldc.i4.s	16		; u64 0x10
	conv.i8		
	initblk		

; 73   :         __std_exception_copy(&_Other._Data, &_Data);

	ldarg.1				; _Other$
	ldc.i.8		8		; i64 0x8
	conv.i8		
	add		
	ldarg.0				; this$
	ldc.i.8		8		; i64 0x8
	conv.i8		
	add		
	call		?__std_exception_copy@@$$J0YAXPEBU__std_exception_data@@PEAU1@@Z

; 74   :     }

	ldarg.0				; this$
	ret		
 .end ??0exception@std@@$$FQEAA@AEBV01@@Z		; std::exception::exception
;	.proc.end.i8
PUBLIC	__t2m@??0exception@std@@QEAA@AEBV01@@Z
PUBLIC	__m2mep@??0exception@std@@$$FQEAA@AEBV01@@Z
PUBLIC	__mep@??0exception@std@@$$FQEAA@AEBV01@@Z
;	COMDAT __mep@??0exception@std@@$$FQEAA@AEBV01@@Z
data	SEGMENT
__mep@??0exception@std@@$$FQEAA@AEBV01@@Z TOKEN 0A000082
data	ENDS
;	COMDAT __m2mep@??0exception@std@@$$FQEAA@AEBV01@@Z
data	SEGMENT
__m2mep@??0exception@std@@$$FQEAA@AEBV01@@Z DD FLAT:??0exception@std@@$$FQEAA@AEBV01@@Z
data	ENDS
; Function compile flags: /Ods
;	COMDAT nep
_TEXT	SEGMENT
__t2m@??0exception@std@@QEAA@AEBV01@@Z PROC		; COMDAT
	jmp	SHORT $LN1@
	ud2
$LN2@:
	jmp	QWORD PTR __m2mep@??0exception@std@@$$FQEAA@AEBV01@@Z
$LN1@:
	jmp	QWORD PTR __mep@??0exception@std@@$$FQEAA@AEBV01@@Z
__t2m@??0exception@std@@QEAA@AEBV01@@Z ENDP
_TEXT	ENDS
; Function compile flags: /Odtp
; File C:\Program Files (x86)\Microsoft Visual Studio\2019\Enterprise\VC\Tools\MSVC\14.27.29110\include\vcruntime_exception.h
	.text
	.comdat	any, ??1exception@std@@$$FUEAA@XZ
.global	??1exception@std@@$$FUEAA@XZ			; std::exception::~exception
??1exception@std@@$$FUEAA@XZ:				; std::exception::~exception
;	.proc.def	D:V(J)

; Function Header:
; max stack depth = 2
; function size = 17 bytes
; local varsig tk = 0x0 
; Exception Information:
; 0 handlers, each consisting of filtered handlers

;	.formal.i8 0,"this$" SIG: Optional C Binding Modifier(token:0x72462F1).Optional C Binding Modifier(token:0x72462F3).ptr.valueType (token:0x72462F6)

;	.proc.beg

; 89   :     {

	ldarg.0				; this$
	ldsflda		??_7exception@std@@6B@
	stind.i8	

; 90   :         __std_exception_destroy(&_Data);

	ldarg.0				; this$
	ldc.i.8		8		; i64 0x8
	conv.i8		
	add		
	call		?__std_exception_destroy@@$$J0YAXPEAU__std_exception_data@@@Z

; 91   :     }

	ret		
 .end ??1exception@std@@$$FUEAA@XZ			; std::exception::~exception
;	.proc.end.void
.global	
.global	??_R0?AVbad_alloc@std@@@8			; std::bad_alloc `RTTI Type Descriptor'
.global	??_R1A@?0A@EA@bad_alloc@std@@8			; std::bad_alloc::`RTTI Base Class Descriptor at (0,-1,0,64)'
.global	??_R2bad_alloc@std@@8				; std::bad_alloc::`RTTI Base Class Array'
.global	??_R3bad_alloc@std@@8				; std::bad_alloc::`RTTI Class Hierarchy Descriptor'
.global	??_R4bad_alloc@std@@6B@				; std::bad_alloc::`RTTI Complete Object Locator'
.global	??_7bad_alloc@std@@6B@				; std::bad_alloc::`vftable'
	.bss
.local	,4
	.data
	.comdat	largest, ??_7bad_alloc@std@@6B@

??_7bad_alloc@std@@6B@:					; std::bad_alloc::`vftable'
	DQ	??_R4bad_alloc@std@@6B@
	DQ	??_Ebad_alloc@std@@UEAAPEAXI@Z
	DQ	?what@exception@std@@UEBAPEBDXZ
	.rdataseg	.rdata$r
	.comdat	any, ??_R4bad_alloc@std@@6B@

??_R4bad_alloc@std@@6B@:				; std::bad_alloc::`RTTI Complete Object Locator'
	.word	0x1
	.word	0x0
	.word	0x0 DD imagerel ??_R0?AVbad_alloc@std@@@8 DD imagerel ??_R3bad_alloc@std@@8 DD imagerel ??_R4bad_alloc@std@@6B@
	.rdataseg	.rdata$r
	.comdat	any, ??_R3bad_alloc@std@@8

??_R3bad_alloc@std@@8:					; std::bad_alloc::`RTTI Class Hierarchy Descriptor'
	.word	0x0
	.word	0x0
	.word	0x2 DD imagerel ??_R2bad_alloc@std@@8
	.rdataseg	.rdata$r
	.comdat	any, ??_R2bad_alloc@std@@8

??_R2bad_alloc@std@@8:					; std::bad_alloc::`RTTI Base Class Array' DD imagerel ??_R1A@?0A@EA@bad_alloc@std@@8 DD imagerel ??_R1A@?0A@EA@exception@std@@8
	.space	3
	.rdataseg	.rdata$r
	.comdat	any, ??_R1A@?0A@EA@bad_alloc@std@@8

??_R1A@?0A@EA@bad_alloc@std@@8:				; std::bad_alloc::`RTTI Base Class Descriptor at (0,-1,0,64)' DD imagerel ??_R0?AVbad_alloc@std@@@8
	.word	0x1
	.word	0x0
	.word	0xffffffff
	.word	0x0
	.word	0x40 DD imagerel ??_R3bad_alloc@std@@8
	.dataseg	.data$r
	.comdat	any, ??_R0?AVbad_alloc@std@@@8

??_R0?AVbad_alloc@std@@@8:				; std::bad_alloc `RTTI Type Descriptor'
	DQ	??_7type_info@@6B@
	.double	0x0000000000000000
	.ascii	".?AVbad_alloc@std@@\000"
; Function compile flags: /Odtp
; File C:\Program Files (x86)\Microsoft Visual Studio\2019\Enterprise\VC\Tools\MSVC\14.27.29110\include\vcruntime_exception.h
	.text
	.comdat	any, ??0bad_alloc@std@@$$FAEAA@QEBD@Z
.global	??0bad_alloc@std@@$$FAEAA@QEBD@Z		; std::bad_alloc::bad_alloc
??0bad_alloc@std@@$$FAEAA@QEBD@Z:			; std::bad_alloc::bad_alloc
;	.proc.def	D:J(JJ)

; Function Header:
; max stack depth = 3
; function size = 33 bytes
; local varsig tk = 0x0 
; Exception Information:
; 1 handlers, each consisting of filtered handlers

;	.formal.i8 0,"this$" SIG: Optional C Binding Modifier(token:0x7227989).Optional C Binding Modifier(token:0x722798B).ptr.valueType (token:0x722798E)
;	.formal.i8 1,"_Message$" SIG: Optional C Binding Modifier(token:0x7205699).Optional C Binding Modifier(token:0x720569B).ptr.Optional C Binding Modifier(token:0x720569E).Optional C Binding Modifier(token:0x72056A0).i1

;	.proc.beg

; 129  :         : exception(_Message, 1)

	ldarg.0				; this$
	ldarg.1				; _Message$
	ldc.i.1		1		; i32 0x1
	call		??0exception@std@@$$FQEAA@QEBDH@Z
	pop		
$LN4@bad_alloc:

; 130  :     {

	ldarg.0				; this$
	ldsflda		??_7bad_alloc@std@@6B@
	stind.i8	
	leave.s		$LN5@bad_alloc
$LN6@bad_alloc:
	ldftn		??1exception@std@@$$FUEAA@XZ
	ldarg.0				; this$
	call		?___CxxCallUnwindDtor@@$$J0YMXP6MXPEAX@Z0@Z
	endfinally	
$LN5@bad_alloc:

; 131  :     }

	ldarg.0				; this$
	ret		
 .end ??0bad_alloc@std@@$$FAEAA@QEBD@Z			; std::bad_alloc::bad_alloc
;	.proc.end.i8
; Function compile flags: /Odtp
	.text
	.comdat	any, ??1bad_alloc@std@@$$FUEAA@XZ
.global	??1bad_alloc@std@@$$FUEAA@XZ			; std::bad_alloc::~bad_alloc
??1bad_alloc@std@@$$FUEAA@XZ:				; std::bad_alloc::~bad_alloc
;	.proc.def	D:V(J)

; Function Header:
; max stack depth = 1
; function size = 7 bytes
; local varsig tk = 0x0 
; Exception Information:
; 0 handlers, each consisting of filtered handlers

;	.formal.i8 0,"this$" SIG: Optional C Binding Modifier(token:0x7227989).Optional C Binding Modifier(token:0x722798B).ptr.valueType (token:0x722798E)

;	.proc.beg
	ldarg.0				; this$
	call		??1exception@std@@$$FUEAA@XZ
	ret		
 .end ??1bad_alloc@std@@$$FUEAA@XZ			; std::bad_alloc::~bad_alloc
;	.proc.end.void
.global	
.global	??_C@_0BF@KINCDENJ@bad?5array?5new?5length@	; `string'
.global	??_R0?AVbad_array_new_length@std@@@8		; std::bad_array_new_length `RTTI Type Descriptor'
.global	??_R1A@?0A@EA@bad_array_new_length@std@@8	; std::bad_array_new_length::`RTTI Base Class Descriptor at (0,-1,0,64)'
.global	??_R2bad_array_new_length@std@@8		; std::bad_array_new_length::`RTTI Base Class Array'
.global	??_R3bad_array_new_length@std@@8		; std::bad_array_new_length::`RTTI Class Hierarchy Descriptor'
.global	??_R4bad_array_new_length@std@@6B@		; std::bad_array_new_length::`RTTI Complete Object Locator'
.global	??_7bad_array_new_length@std@@6B@		; std::bad_array_new_length::`vftable'
	.bss
.local	,4
	.data
	.comdat	largest, ??_7bad_array_new_length@std@@6B@

??_7bad_array_new_length@std@@6B@:			; std::bad_array_new_length::`vftable'
	DQ	??_R4bad_array_new_length@std@@6B@
	DQ	??_Ebad_array_new_length@std@@UEAAPEAXI@Z
	DQ	?what@exception@std@@UEBAPEBDXZ
	.rdataseg	.rdata$r
	.comdat	any, ??_R4bad_array_new_length@std@@6B@

??_R4bad_array_new_length@std@@6B@:			; std::bad_array_new_length::`RTTI Complete Object Locator'
	.word	0x1
	.word	0x0
	.word	0x0 DD imagerel ??_R0?AVbad_array_new_length@std@@@8 DD imagerel ??_R3bad_array_new_length@std@@8 DD imagerel ??_R4bad_array_new_length@std@@6B@
	.rdataseg	.rdata$r
	.comdat	any, ??_R3bad_array_new_length@std@@8

??_R3bad_array_new_length@std@@8:			; std::bad_array_new_length::`RTTI Class Hierarchy Descriptor'
	.word	0x0
	.word	0x0
	.word	0x3 DD imagerel ??_R2bad_array_new_length@std@@8
	.rdataseg	.rdata$r
	.comdat	any, ??_R2bad_array_new_length@std@@8

??_R2bad_array_new_length@std@@8:			; std::bad_array_new_length::`RTTI Base Class Array' DD imagerel ??_R1A@?0A@EA@bad_array_new_length@std@@8 DD imagerel ??_R1A@?0A@EA@bad_alloc@std@@8 DD imagerel ??_R1A@?0A@EA@exception@std@@8
	.space	3
	.rdataseg	.rdata$r
	.comdat	any, ??_R1A@?0A@EA@bad_array_new_length@std@@8

??_R1A@?0A@EA@bad_array_new_length@std@@8:		; std::bad_array_new_length::`RTTI Base Class Descriptor at (0,-1,0,64)' DD imagerel ??_R0?AVbad_array_new_length@std@@@8
	.word	0x2
	.word	0x0
	.word	0xffffffff
	.word	0x0
	.word	0x40 DD imagerel ??_R3bad_array_new_length@std@@8
	.dataseg	.data$r
	.comdat	any, ??_R0?AVbad_array_new_length@std@@@8

??_R0?AVbad_array_new_length@std@@@8:			; std::bad_array_new_length `RTTI Type Descriptor'
	DQ	??_7type_info@@6B@
	.double	0x0000000000000000
	.ascii	".?AVbad_array_new_length@std@@\000"
	.rdata
	.comdat	any, ??_C@_0BF@KINCDENJ@bad?5array?5new?5length@

??_C@_0BF@KINCDENJ@bad?5array?5new?5length@:		; `string'
	.ascii	"bad array new length\000"
; Function compile flags: /Odtp
; File C:\Program Files (x86)\Microsoft Visual Studio\2019\Enterprise\VC\Tools\MSVC\14.27.29110\include\vcruntime_exception.h
	.text
	.comdat	any, ??0bad_array_new_length@std@@$$FQEAA@XZ
.global	??0bad_array_new_length@std@@$$FQEAA@XZ		; std::bad_array_new_length::bad_array_new_length
??0bad_array_new_length@std@@$$FQEAA@XZ:		; std::bad_array_new_length::bad_array_new_length
;	.proc.def	D:J(J)

; Function Header:
; max stack depth = 2
; function size = 36 bytes
; local varsig tk = 0x0 
; Exception Information:
; 1 handlers, each consisting of filtered handlers

;	.formal.i8 0,"this$" SIG: Optional C Binding Modifier(token:0x721D701).Optional C Binding Modifier(token:0x721D703).ptr.valueType (token:0x721D706)

;	.proc.beg

; 140  :         : bad_alloc("bad array new length")

	ldarg.0				; this$
	ldsflda		??_C@_0BF@KINCDENJ@bad?5array?5new?5length@
	call		??0bad_alloc@std@@$$FAEAA@QEBD@Z
	pop		
$LN4@bad_array_:

; 141  :     {

	ldarg.0				; this$
	ldsflda		??_7bad_array_new_length@std@@6B@
	stind.i8	
	leave.s		$LN5@bad_array_
$LN6@bad_array_:
	ldftn		??1bad_alloc@std@@$$FUEAA@XZ
	ldarg.0				; this$
	call		?___CxxCallUnwindDtor@@$$J0YMXP6MXPEAX@Z0@Z
	endfinally	
$LN5@bad_array_:

; 142  :     }

	ldarg.0				; this$
	ret		
 .end ??0bad_array_new_length@std@@$$FQEAA@XZ		; std::bad_array_new_length::bad_array_new_length
;	.proc.end.i8
.global	
	.bss
.local	,4
; Function compile flags: /Odtp
; File C:\Program Files (x86)\Microsoft Visual Studio\2019\Enterprise\VC\Tools\MSVC\14.27.29110\include\exception
	.text
	.comdat	any, ??1exception_ptr@std@@$$FQEAA@XZ
.global	??1exception_ptr@std@@$$FQEAA@XZ		; std::exception_ptr::~exception_ptr
??1exception_ptr@std@@$$FQEAA@XZ:			; std::exception_ptr::~exception_ptr
;	.proc.def	D:V(J)

; Function Header:
; max stack depth = 1
; function size = 7 bytes
; local varsig tk = 0x0 
; Exception Information:
; 0 handlers, each consisting of filtered handlers

;	.formal.i8 0,"this$" SIG: Optional C Binding Modifier(token:0x71753A9).Optional C Binding Modifier(token:0x71753AB).ptr.valueType (token:0x71753AE)

;	.proc.beg

; 225  :         __ExceptionPtrDestroy(this);

	ldarg.0				; this$
	call		?__ExceptionPtrDestroy@@$$FYAXPEAX@Z

; 226  :     }

	ret		
 .end ??1exception_ptr@std@@$$FQEAA@XZ			; std::exception_ptr::~exception_ptr
;	.proc.end.void
.global	
	.bss
.local	,4
; Function compile flags: /Odtp
; File C:\Program Files (x86)\Microsoft Visual Studio\2019\Enterprise\VC\Tools\MSVC\14.27.29110\include\exception
	.text
	.comdat	any, ??0exception_ptr@std@@$$FQEAA@AEBV01@@Z
.global	??0exception_ptr@std@@$$FQEAA@AEBV01@@Z		; std::exception_ptr::exception_ptr
??0exception_ptr@std@@$$FQEAA@AEBV01@@Z:		; std::exception_ptr::exception_ptr
;	.proc.def	D:J(JJ)

; Function Header:
; max stack depth = 2
; function size = 9 bytes
; local varsig tk = 0x0 
; Exception Information:
; 0 handlers, each consisting of filtered handlers

;	.formal.i8 0,"this$" SIG: Optional C Binding Modifier(token:0x71753A9).Optional C Binding Modifier(token:0x71753AB).ptr.valueType (token:0x71753AE)
;	.formal.i8 1,"_Rhs$" SIG: Optional C Binding Modifier(token:0x7256CA1).ptr.Optional C Binding Modifier(token:0x7256CA4).valueType (token:0x7256CA6)

;	.proc.beg

; 229  :         __ExceptionPtrCopy(this, &_Rhs);

	ldarg.0				; this$
	ldarg.1				; _Rhs$
	call		?__ExceptionPtrCopy@@$$FYAXPEAXPEBX@Z

; 230  :     }

	ldarg.0				; this$
	ret		
 .end ??0exception_ptr@std@@$$FQEAA@AEBV01@@Z		; std::exception_ptr::exception_ptr
;	.proc.end.i8
PUBLIC	__t2m@??0exception_ptr@std@@QEAA@AEBV01@@Z
PUBLIC	__m2mep@??0exception_ptr@std@@$$FQEAA@AEBV01@@Z
PUBLIC	__mep@??0exception_ptr@std@@$$FQEAA@AEBV01@@Z
;	COMDAT __mep@??0exception_ptr@std@@$$FQEAA@AEBV01@@Z
data	SEGMENT
__mep@??0exception_ptr@std@@$$FQEAA@AEBV01@@Z TOKEN 0A000090
data	ENDS
;	COMDAT __m2mep@??0exception_ptr@std@@$$FQEAA@AEBV01@@Z
data	SEGMENT
__m2mep@??0exception_ptr@std@@$$FQEAA@AEBV01@@Z DD FLAT:??0exception_ptr@std@@$$FQEAA@AEBV01@@Z
data	ENDS
; Function compile flags: /Ods
;	COMDAT nep
_TEXT	SEGMENT
__t2m@??0exception_ptr@std@@QEAA@AEBV01@@Z PROC		; COMDAT
	jmp	SHORT $LN1@
	ud2
$LN2@:
	jmp	QWORD PTR __m2mep@??0exception_ptr@std@@$$FQEAA@AEBV01@@Z
$LN1@:
	jmp	QWORD PTR __mep@??0exception_ptr@std@@$$FQEAA@AEBV01@@Z
__t2m@??0exception_ptr@std@@QEAA@AEBV01@@Z ENDP
_TEXT	ENDS
.global	_CT??_R0?AVbad_array_new_length@std@@@8??0bad_array_new_length@std@@$$FQEAA@AEBV01@@Z24
.global	_CT??_R0?AVbad_alloc@std@@@8??0bad_alloc@std@@$$FQEAA@AEBV01@@Z24
.global	_CT??_R0?AVexception@std@@@8??0exception@std@@$$FQEAA@AEBV01@@Z24
.global	_CTA3?AVbad_array_new_length@std@@
.global	_TI3?AVbad_array_new_length@std@@
	.bss
.local	$T1,0
	.rdataseg	.xdata$x
	.comdat	any, _TI3?AVbad_array_new_length@std@@

_TI3?AVbad_array_new_length@std@@:
	.word	0x0 DD imagerel ??1bad_array_new_length@std@@UEAA@XZ
	.word	0x0 DD imagerel _CTA3?AVbad_array_new_length@std@@
	.rdataseg	.xdata$x
	.comdat	any, _CTA3?AVbad_array_new_length@std@@

_CTA3?AVbad_array_new_length@std@@:
	.word	0x3 DD imagerel _CT??_R0?AVbad_array_new_length@std@@@8??0bad_array_new_length@std@@$$FQEAA@AEBV01@@Z24 DD imagerel _CT??_R0?AVbad_alloc@std@@@8??0bad_alloc@std@@$$FQEAA@AEBV01@@Z24 DD imagerel _CT??_R0?AVexception@std@@@8??0exception@std@@$$FQEAA@AEBV01@@Z24
	.rdataseg	.xdata$x
	.comdat	any, _CT??_R0?AVexception@std@@@8??0exception@std@@$$FQEAA@AEBV01@@Z24

_CT??_R0?AVexception@std@@@8??0exception@std@@$$FQEAA@AEBV01@@Z24:
	.word	0x0 DD imagerel ??_R0?AVexception@std@@@8
	.word	0x0
	.word	0xffffffff
	.space	4
	.word	0x18 DD imagerel ??0exception@std@@QEAA@AEBV01@@Z
	.rdataseg	.xdata$x
	.comdat	any, _CT??_R0?AVbad_alloc@std@@@8??0bad_alloc@std@@$$FQEAA@AEBV01@@Z24

_CT??_R0?AVbad_alloc@std@@@8??0bad_alloc@std@@$$FQEAA@AEBV01@@Z24:
	.word	0x10 DD imagerel ??_R0?AVbad_alloc@std@@@8
	.word	0x0
	.word	0xffffffff
	.space	4
	.word	0x18 DD imagerel ??0bad_alloc@std@@QEAA@AEBV01@@Z
	.rdataseg	.xdata$x
	.comdat	any, _CT??_R0?AVbad_array_new_length@std@@@8??0bad_array_new_length@std@@$$FQEAA@AEBV01@@Z24

_CT??_R0?AVbad_array_new_length@std@@@8??0bad_array_new_length@std@@$$FQEAA@AEBV01@@Z24:
	.word	0x0 DD imagerel ??_R0?AVbad_array_new_length@std@@@8
	.word	0x0
	.word	0xffffffff
	.space	4
	.word	0x18 DD imagerel ??0bad_array_new_length@std@@QEAA@AEBV01@@Z
; Function compile flags: /Odtp
; File C:\Program Files (x86)\Microsoft Visual Studio\2019\Enterprise\VC\Tools\MSVC\14.27.29110\include\exception
	.text
	.comdat	any, ?_Throw_bad_array_new_length@std@@$$FYAXXZ
.global	?_Throw_bad_array_new_length@std@@$$FYAXXZ	; std::_Throw_bad_array_new_length
?_Throw_bad_array_new_length@std@@$$FYAXXZ:		; std::_Throw_bad_array_new_length
;	.proc.def	D:V()

; Function Header:
; max stack depth = 2
; function size = 21 bytes
; local varsig tk = 0x11000068 
; Exception Information:
; 0 handlers, each consisting of filtered handlers

;	.local.mb24  0,"$T2" SIG: valueType (token:0x7179C61)

;	.proc.beg

; 321  :     _THROW(bad_array_new_length{});

	ldloca.s	0		; $T2
	call		??0bad_array_new_length@std@@$$FQEAA@XZ
	pop		
	ldloca.s	0		; $T2
	ldsflda		_TI3?AVbad_array_new_length@std@@
	call		?_CxxThrowException@@$$J0YAXPEAXPEBU_s__ThrowInfo@@@Z

; 322  : }

	ret		
 .end ?_Throw_bad_array_new_length@std@@$$FYAXXZ	; std::_Throw_bad_array_new_length
;	.proc.end.void
.global	
	.bss
.local	,4
; Function compile flags: /Odtp
	.text
	.comdat	any, ??0bad_alloc@std@@$$FQEAA@AEBV01@@Z
.global	??0bad_alloc@std@@$$FQEAA@AEBV01@@Z		; std::bad_alloc::bad_alloc
??0bad_alloc@std@@$$FQEAA@AEBV01@@Z:			; std::bad_alloc::bad_alloc
;	.proc.def	D:J(JJ)

; Function Header:
; max stack depth = 2
; function size = 32 bytes
; local varsig tk = 0x0 
; Exception Information:
; 1 handlers, each consisting of filtered handlers

;	.formal.i8 0,"this$" SIG: Optional C Binding Modifier(token:0x7227989).Optional C Binding Modifier(token:0x722798B).ptr.valueType (token:0x722798E)
;	.formal.i8 1,"__that$" SIG: Optional C Binding Modifier(token:0x72AB639).ptr.Optional C Binding Modifier(token:0x72AB63C).valueType (token:0x72AB63E)

;	.proc.beg
	ldarg.0				; this$
	ldarg.1				; __that$
	call		??0exception@std@@$$FQEAA@AEBV01@@Z
	pop		
$LN4@bad_alloc:
	ldarg.0				; this$
	ldsflda		??_7bad_alloc@std@@6B@
	stind.i8	
	leave.s		$LN5@bad_alloc
$LN6@bad_alloc:
	ldftn		??1exception@std@@$$FUEAA@XZ
	ldarg.0				; this$
	call		?___CxxCallUnwindDtor@@$$J0YMXP6MXPEAX@Z0@Z
	endfinally	
$LN5@bad_alloc:
	ldarg.0				; this$
	ret		
 .end ??0bad_alloc@std@@$$FQEAA@AEBV01@@Z		; std::bad_alloc::bad_alloc
;	.proc.end.i8
PUBLIC	__t2m@??0bad_alloc@std@@QEAA@AEBV01@@Z
PUBLIC	__m2mep@??0bad_alloc@std@@$$FQEAA@AEBV01@@Z
PUBLIC	__mep@??0bad_alloc@std@@$$FQEAA@AEBV01@@Z
;	COMDAT __mep@??0bad_alloc@std@@$$FQEAA@AEBV01@@Z
data	SEGMENT
__mep@??0bad_alloc@std@@$$FQEAA@AEBV01@@Z TOKEN 0A00009A
data	ENDS
;	COMDAT __m2mep@??0bad_alloc@std@@$$FQEAA@AEBV01@@Z
data	SEGMENT
__m2mep@??0bad_alloc@std@@$$FQEAA@AEBV01@@Z DD FLAT:??0bad_alloc@std@@$$FQEAA@AEBV01@@Z
data	ENDS
; Function compile flags: /Ods
;	COMDAT nep
_TEXT	SEGMENT
__t2m@??0bad_alloc@std@@QEAA@AEBV01@@Z PROC		; COMDAT
	jmp	SHORT $LN1@
	ud2
	jmp	QWORD PTR __m2mep@??0bad_alloc@std@@$$FQEAA@AEBV01@@Z
$LN1@:
	jmp	QWORD PTR __mep@??0bad_alloc@std@@$$FQEAA@AEBV01@@Z
__t2m@??0bad_alloc@std@@QEAA@AEBV01@@Z ENDP
_TEXT	ENDS
.global	
	.bss
.local	,4
; Function compile flags: /Odtp
	.text
	.comdat	any, ??0bad_array_new_length@std@@$$FQEAA@AEBV01@@Z
.global	??0bad_array_new_length@std@@$$FQEAA@AEBV01@@Z	; std::bad_array_new_length::bad_array_new_length
??0bad_array_new_length@std@@$$FQEAA@AEBV01@@Z:		; std::bad_array_new_length::bad_array_new_length
;	.proc.def	D:J(JJ)

; Function Header:
; max stack depth = 2
; function size = 32 bytes
; local varsig tk = 0x0 
; Exception Information:
; 1 handlers, each consisting of filtered handlers

;	.formal.i8 0,"this$" SIG: Optional C Binding Modifier(token:0x721D701).Optional C Binding Modifier(token:0x721D703).ptr.valueType (token:0x721D706)
;	.formal.i8 1,"__that$" SIG: Optional C Binding Modifier(token:0x71845A9).ptr.Optional C Binding Modifier(token:0x71845AC).valueType (token:0x71845AE)

;	.proc.beg
	ldarg.0				; this$
	ldarg.1				; __that$
	call		??0bad_alloc@std@@$$FQEAA@AEBV01@@Z
	pop		
$LN4@bad_array_:
	ldarg.0				; this$
	ldsflda		??_7bad_array_new_length@std@@6B@
	stind.i8	
	leave.s		$LN5@bad_array_
$LN6@bad_array_:
	ldftn		??1bad_alloc@std@@$$FUEAA@XZ
	ldarg.0				; this$
	call		?___CxxCallUnwindDtor@@$$J0YMXP6MXPEAX@Z0@Z
	endfinally	
$LN5@bad_array_:
	ldarg.0				; this$
	ret		
 .end ??0bad_array_new_length@std@@$$FQEAA@AEBV01@@Z	; std::bad_array_new_length::bad_array_new_length
;	.proc.end.i8
PUBLIC	__t2m@??0bad_array_new_length@std@@QEAA@AEBV01@@Z
PUBLIC	__m2mep@??0bad_array_new_length@std@@$$FQEAA@AEBV01@@Z
PUBLIC	__mep@??0bad_array_new_length@std@@$$FQEAA@AEBV01@@Z
;	COMDAT __mep@??0bad_array_new_length@std@@$$FQEAA@AEBV01@@Z
data	SEGMENT
__mep@??0bad_array_new_length@std@@$$FQEAA@AEBV01@@Z TOKEN 0A000099
data	ENDS
;	COMDAT __m2mep@??0bad_array_new_length@std@@$$FQEAA@AEBV01@@Z
data	SEGMENT
__m2mep@??0bad_array_new_length@std@@$$FQEAA@AEBV01@@Z DD FLAT:??0bad_array_new_length@std@@$$FQEAA@AEBV01@@Z
data	ENDS
; Function compile flags: /Ods
;	COMDAT nep
_TEXT	SEGMENT
__t2m@??0bad_array_new_length@std@@QEAA@AEBV01@@Z PROC	; COMDAT
	jmp	SHORT $LN1@
	ud2
	jmp	QWORD PTR __m2mep@??0bad_array_new_length@std@@$$FQEAA@AEBV01@@Z
$LN1@:
	jmp	QWORD PTR __mep@??0bad_array_new_length@std@@$$FQEAA@AEBV01@@Z
__t2m@??0bad_array_new_length@std@@QEAA@AEBV01@@Z ENDP
_TEXT	ENDS
.global	
	.bss
.local	,4
.local	$TypeTok$111B7A4C$,4
.local	$T1,0
; Function compile flags: /Odtp
	.text
	.comdat	any, ?<MarshalCopy>@exception_ptr@std@@$$FSMXPEAV12@0@Z
.global	?<MarshalCopy>@exception_ptr@std@@$$FSMXPEAV12@0@Z ; std::exception_ptr::<MarshalCopy>
?<MarshalCopy>@exception_ptr@std@@$$FSMXPEAV12@0@Z:	; std::exception_ptr::<MarshalCopy>
;	.proc.def	D:V(JJ)

; Function Header:
; max stack depth = 3
; function size = 44 bytes
; local varsig tk = 0x1100006C 
; Exception Information:
; 0 handlers, each consisting of filtered handlers

;	.formal.i8 0,"__P0$" SIG: ptr.valueType (token:0x72E031A)
;	.formal.i8 1,"__P1$" SIG: ptr.valueType (token:0x72E031A)
;	.local.i8 0,"$T2" SIG: ptr.valueType (token:0x72E031A)
;	.local.i8 1,"$T3" SIG: ptr.ptr.valueType (token:0x7745613)
;	.local.mb1   2,"$T4" SIG: valueType (token:0x7175479)

;	.proc.beg
	ldloca.s	2		; $T4
	ldc.i.0		0		; i32 0x0
	ldc.i.1		1		; u64 0x1
	conv.i8		
	unaligned	4		; u32 0x4
	initblk		
	ldc.i4.s	16		; u64 0x10
	conv.i8		
	ldarg.0				; __P0$
	ldloca.s	2		; $T4
	ldobj		$TypeTok$111B7A4C$
	call		??2@$$FYAPEAX_KPEAXU__clr_placement_new_t@?A0x5468b6dc@@@Z
	stloc.0				; $T2
	ldloc.0				; $T2
	brfalse.s	$LN3@
	ldloc.0				; $T2
	ldarg.1				; __P1$
	call		??0exception_ptr@std@@$$FQEAA@AEBV01@@Z
	stloc.1				; $T3
	br.s		$LN1@
$LN3@:
	ldc.i.0		0		; i64 0x0
	conv.i8		
	stloc.1				; $T3
$LN1@:
	ret		
 .end ?<MarshalCopy>@exception_ptr@std@@$$FSMXPEAV12@0@Z ; std::exception_ptr::<MarshalCopy>
;	.proc.end.void
PUBLIC	__t2m@?<MarshalCopy>@exception_ptr@std@@SMXPEAV12@0@Z
PUBLIC	__m2mep@?<MarshalCopy>@exception_ptr@std@@$$FSMXPEAV12@0@Z
PUBLIC	__mep@?<MarshalCopy>@exception_ptr@std@@$$FSMXPEAV12@0@Z
;	COMDAT __mep@?<MarshalCopy>@exception_ptr@std@@$$FSMXPEAV12@0@Z
data	SEGMENT
__mep@?<MarshalCopy>@exception_ptr@std@@$$FSMXPEAV12@0@Z TOKEN 06000080
data	ENDS
;	COMDAT __m2mep@?<MarshalCopy>@exception_ptr@std@@$$FSMXPEAV12@0@Z
data	SEGMENT
__m2mep@?<MarshalCopy>@exception_ptr@std@@$$FSMXPEAV12@0@Z DD FLAT:?<MarshalCopy>@exception_ptr@std@@$$FSMXPEAV12@0@Z
data	ENDS
; Function compile flags: /Ods
;	COMDAT nep
_TEXT	SEGMENT
__t2m@?<MarshalCopy>@exception_ptr@std@@SMXPEAV12@0@Z PROC ; COMDAT
	jmp	SHORT $LN1@
	ud2
$LN2@:
	jmp	QWORD PTR __m2mep@?<MarshalCopy>@exception_ptr@std@@$$FSMXPEAV12@0@Z
$LN1@:
	jmp	QWORD PTR __mep@?<MarshalCopy>@exception_ptr@std@@$$FSMXPEAV12@0@Z
__t2m@?<MarshalCopy>@exception_ptr@std@@SMXPEAV12@0@Z ENDP
_TEXT	ENDS
; Function compile flags: /Odtp
	.text
	.comdat	any, ?<MarshalDestroy>@exception_ptr@std@@$$FSMXPEAV12@@Z
.global	?<MarshalDestroy>@exception_ptr@std@@$$FSMXPEAV12@@Z ; std::exception_ptr::<MarshalDestroy>
?<MarshalDestroy>@exception_ptr@std@@$$FSMXPEAV12@@Z:	; std::exception_ptr::<MarshalDestroy>
;	.proc.def	D:V(J)

; Function Header:
; max stack depth = 1
; function size = 7 bytes
; local varsig tk = 0x0 
; Exception Information:
; 0 handlers, each consisting of filtered handlers

;	.formal.i8 0,"__P0$" SIG: ptr.valueType (token:0x72E031A)

;	.proc.beg
	ldarg.0				; __P0$
	call		??1exception_ptr@std@@$$FQEAA@XZ
	ret		
 .end ?<MarshalDestroy>@exception_ptr@std@@$$FSMXPEAV12@@Z ; std::exception_ptr::<MarshalDestroy>
;	.proc.end.void
PUBLIC	__t2m@?<MarshalDestroy>@exception_ptr@std@@SMXPEAV12@@Z
PUBLIC	__m2mep@?<MarshalDestroy>@exception_ptr@std@@$$FSMXPEAV12@@Z
PUBLIC	__mep@?<MarshalDestroy>@exception_ptr@std@@$$FSMXPEAV12@@Z
;	COMDAT __mep@?<MarshalDestroy>@exception_ptr@std@@$$FSMXPEAV12@@Z
data	SEGMENT
__mep@?<MarshalDestroy>@exception_ptr@std@@$$FSMXPEAV12@@Z TOKEN 06000081
data	ENDS
;	COMDAT __m2mep@?<MarshalDestroy>@exception_ptr@std@@$$FSMXPEAV12@@Z
data	SEGMENT
__m2mep@?<MarshalDestroy>@exception_ptr@std@@$$FSMXPEAV12@@Z DD FLAT:?<MarshalDestroy>@exception_ptr@std@@$$FSMXPEAV12@@Z
data	ENDS
; Function compile flags: /Ods
;	COMDAT nep
_TEXT	SEGMENT
__t2m@?<MarshalDestroy>@exception_ptr@std@@SMXPEAV12@@Z PROC ; COMDAT
	jmp	SHORT $LN1@
	ud2
$LN2@:
	jmp	QWORD PTR __m2mep@?<MarshalDestroy>@exception_ptr@std@@$$FSMXPEAV12@@Z
$LN1@:
	jmp	QWORD PTR __mep@?<MarshalDestroy>@exception_ptr@std@@$$FSMXPEAV12@@Z
__t2m@?<MarshalDestroy>@exception_ptr@std@@SMXPEAV12@@Z ENDP
_TEXT	ENDS
.global	
	.bss
.local	,4
.local	$T1,0
; Function compile flags: /Odtp
; File C:\Program Files (x86)\Microsoft Visual Studio\2019\Enterprise\VC\Tools\MSVC\14.27.29110\include\xmemory
	.text
	.comdat	any, ?_Allocate@_Default_allocate_traits@std@@$$FSAPEAX_K@Z
.global	?_Allocate@_Default_allocate_traits@std@@$$FSAPEAX_K@Z ; std::_Default_allocate_traits::_Allocate
?_Allocate@_Default_allocate_traits@std@@$$FSAPEAX_K@Z:	; std::_Default_allocate_traits::_Allocate
;	.proc.def	D:J(J)

; Function Header:
; max stack depth = 1
; function size = 9 bytes
; local varsig tk = 0x11000059 
; Exception Information:
; 0 handlers, each consisting of filtered handlers

;	.formal.u8 0,"_Bytes$" SIG: Optional C Binding Modifier(token:0x722FC51).u8
;	.local.i8 0,"$T2" SIG: ptr.void

;	.proc.beg

; 77   :         return ::operator new(_Bytes);

	ldarg.0				; _Bytes$
	call		??2@$$FYAPEAX_K@Z
	stloc.0				; $T2

; 78   :     }

	ldloc.0				; $T2
	ret		
 .end ?_Allocate@_Default_allocate_traits@std@@$$FSAPEAX_K@Z ; std::_Default_allocate_traits::_Allocate
;	.proc.end.i8
.global	
.global	
.global	
.global	??_C@_0GJ@EHJGLGPD@C?3?2Program?5Files?5?$CIx86?$CJ?2Microsof@ ; `string'
.global	??_C@_02DKCKIIND@?$CFs@				; `string'
.global	??_C@_0BB@FCMFBGOM@invalid?5argument@		; `string'
.global	??_C@_1CG@JNLFBNGN@?$AA?$CC?$AAi?$AAn?$AAv?$AAa?$AAl?$AAi?$AAd?$AA?5?$AAa?$AAr?$AAg?$AAu?$AAm?$AAe@ ; `string'
.global	??_C@_1EK@NIFDJFDG@?$AAs?$AAt?$AAd?$AA?3?$AA?3?$AA_?$AAA?$AAd?$AAj?$AAu?$AAs?$AAt?$AA_?$AAm?$AAa@ ; `string'
.global	??_C@_1NC@LBGPBFDE@?$AAC?$AA?3?$AA?2?$AAP?$AAr?$AAo?$AAg?$AAr?$AAa?$AAm?$AA?5?$AAF?$AAi?$AAl?$AAe@ ; `string'
	.bss
.local	,4
.local	,4
.local	,4
.local	$VarArgTok$2$$$A6AHHPEBDH000@Z,4
.local	$T1,0
	.rdata
	.comdat	any, ??_C@_1NC@LBGPBFDE@?$AAC?$AA?3?$AA?2?$AAP?$AAr?$AAo?$AAg?$AAr?$AAa?$AAm?$AA?5?$AAF?$AAi?$AAl?$AAe@

??_C@_1NC@LBGPBFDE@?$AAC?$AA?3?$AA?2?$AAP?$AAr?$AAo?$AAg?$AAr?$AAa?$AAm?$AA?5?$AAF?$AAi?$AAl?$AAe@: ; `string'
	.ascii	"C\000:\000\\\000P\000r\000o\000g\000r\000a\000m\000 \000"
	.ascii	"F\000i\000l\000e\000s\000 \000(\000x\0008\0006\000)\000\\"
	.ascii	"\000M\000i\000c\000r\000o\000s\000o\000f\000t\000 \000V\000"
	.ascii	"i\000s\000u\000a\000l\000 \000S\000t\000u\000d\000i\000o\000"
	.ascii	"\\\0002\0000\0001\0009\000\\\000E\000n\000t\000e\000r\000"
	.ascii	"p\000r\000i\000s\000e\000\\\000V\000C\000\\\000T\000o\000"
	.ascii	"o\000l\000s\000\\\000M\000S\000V\000C\000\\\0001\0004\000"
	.ascii	".\0002\0007\000.\0002\0009\0001\0001\0000\000\\\000i\000n"
	.ascii	"\000c\000l\000u\000d\000e\000\\\000x\000m\000e\000m\000o\000"
	.ascii	"r\000y\000\000\000"
	.rdata
	.comdat	any, ??_C@_1EK@NIFDJFDG@?$AAs?$AAt?$AAd?$AA?3?$AA?3?$AA_?$AAA?$AAd?$AAj?$AAu?$AAs?$AAt?$AA_?$AAm?$AAa@

??_C@_1EK@NIFDJFDG@?$AAs?$AAt?$AAd?$AA?3?$AA?3?$AA_?$AAA?$AAd?$AAj?$AAu?$AAs?$AAt?$AA_?$AAm?$AAa@: ; `string'
	.ascii	"s\000t\000d\000:\000:\000_\000A\000d\000j\000u\000s\000t"
	.ascii	"\000_\000m\000a\000n\000u\000a\000l\000l\000y\000_\000v\000"
	.ascii	"e\000c\000t\000o\000r\000_\000a\000l\000i\000g\000n\000e\000"
	.ascii	"d\000\000\000"
	.rdata
	.comdat	any, ??_C@_1CG@JNLFBNGN@?$AA?$CC?$AAi?$AAn?$AAv?$AAa?$AAl?$AAi?$AAd?$AA?5?$AAa?$AAr?$AAg?$AAu?$AAm?$AAe@

??_C@_1CG@JNLFBNGN@?$AA?$CC?$AAi?$AAn?$AAv?$AAa?$AAl?$AAi?$AAd?$AA?5?$AAa?$AAr?$AAg?$AAu?$AAm?$AAe@: ; `string'
	.ascii	"\"\000i\000n\000v\000a\000l\000i\000d\000 \000a\000r\000"
	.ascii	"g\000u\000m\000e\000n\000t\000\"\000\000\000"
	.rdata
	.comdat	any, ??_C@_0BB@FCMFBGOM@invalid?5argument@

??_C@_0BB@FCMFBGOM@invalid?5argument@:			; `string'
	.ascii	"invalid argument\000"
	.rdata
	.comdat	any, ??_C@_02DKCKIIND@?$CFs@

??_C@_02DKCKIIND@?$CFs@:				; `string'
	.ascii	"%s\000"
	.rdata
	.comdat	any, ??_C@_0GJ@EHJGLGPD@C?3?2Program?5Files?5?$CIx86?$CJ?2Microsof@

??_C@_0GJ@EHJGLGPD@C?3?2Program?5Files?5?$CIx86?$CJ?2Microsof@: ; `string'
	.ascii	"C:\\Program Files (x86)\\Microsoft Visual Studio\\2019\\"
	.ascii	"Enterprise\\VC\\Tools\\MSVC\\14.27.29110\\include\\xmemor"
	.ascii	"y\000"
; Function compile flags: /Odtp
; File C:\Program Files (x86)\Microsoft Visual Studio\2019\Enterprise\VC\Tools\MSVC\14.27.29110\include\xmemory
	.text
	.comdat	any, ?_Adjust_manually_vector_aligned@std@@$$FYAXAEAPEAXAEA_K@Z
.global	?_Adjust_manually_vector_aligned@std@@$$FYAXAEAPEAXAEA_K@Z ; std::_Adjust_manually_vector_aligned
?_Adjust_manually_vector_aligned@std@@$$FYAXAEAPEAXAEA_K@Z: ; std::_Adjust_manually_vector_aligned
;	.proc.def	D:V(JJ)

; Function Header:
; max stack depth = 7
; function size = 212 bytes
; local varsig tk = 0x11000071 
; Exception Information:
; 0 handlers, each consisting of filtered handlers

;	.formal.i8 0,"_Ptr$" SIG: Optional C Binding Modifier(token:0x7232DA1).ptr.ptr.void
;	.formal.i8 1,"_Bytes$" SIG: Optional C Binding Modifier(token:0x7170F59).ptr.u8
;	.local.u8 0,"_Back_shift$" SIG: Optional C Binding Modifier(token:0x722FC51).u8
;	.local.u8 1,"_Ptr_container$" SIG: Optional C Binding Modifier(token:0x722FC51).u8
;	.local.i8 2,"_Ptr_user$" SIG: Optional C Binding Modifier(token:0x720DAF1).Optional C Binding Modifier(token:0x720DAF3).ptr.Optional C Binding Modifier(token:0x720DAF6).u8
;	.local.u8 3,"_Min_back_shift$" SIG: Optional C Binding Modifier(token:0x722FC51).u8

;	.proc.beg

; 133  :     // adjust parameters from _Allocate_manually_vector_aligned to pass to operator delete
; 134  :     _Bytes += _Non_user_size;

	ldarg.1				; _Bytes$
	dup		
	ldind.i8	
	ldc.i4.s	47		; u64 0x2f
	conv.i8		
	add		
	stind.i8	

; 135  : 
; 136  :     const uintptr_t* const _Ptr_user = reinterpret_cast<uintptr_t*>(_Ptr);

	ldarg.0				; _Ptr$
	ldind.i8	
	stloc.2				; _Ptr_user$

; 137  :     const uintptr_t _Ptr_container   = _Ptr_user[-1];

	ldloc.2				; _Ptr_user$
	ldc.i.8		8		; i64 0x8
	conv.i8		
	ldc.i8		-1		; i64 0xffffffffffffffff
	mul		
	add		
	ldind.i8	
	stloc.1				; _Ptr_container$
$LN4@Adjust_man:

; 138  : 
; 139  :     // If the following asserts, it likely means that we are performing
; 140  :     // an aligned delete on memory coming from an unaligned allocation.
; 141  :     _STL_ASSERT(_Ptr_user[-2] == _Big_allocation_sentinel, "invalid argument");

	ldloc.2				; _Ptr_user$
	ldc.i.8		8		; i64 0x8
	conv.i8		
	ldc.i8		-2		; i64 0xfffffffffffffffe
	mul		
	add		
	ldind.i8	
	ldc.i8		18085043209519168250 ; u64 0xfafafafafafafafa
	bne.un.s	$LN7@Adjust_man
	br.s		$LN2@Adjust_man
$LN7@Adjust_man:
	ldc.i.1		1		; i32 0x1
	ldc.i.2		2		; i32 0x2
	ldsflda		??_C@_0GJ@EHJGLGPD@C?3?2Program?5Files?5?$CIx86?$CJ?2Microsof@
	ldc.i4		141		; i32 0x8d
	ldc.i.0		0		; i64 0x0
	conv.i8		
	ldsflda		??_C@_02DKCKIIND@?$CFs@
	ldsflda		??_C@_0BB@FCMFBGOM@invalid?5argument@
	call		?_CrtDbgReport@@$$J0YAHHPEBDH00ZZ
	bne.un.s	$LN19@Adjust_man
	break		
$LN19@Adjust_man:
	ldsflda		??_C@_1CG@JNLFBNGN@?$AA?$CC?$AAi?$AAn?$AAv?$AAa?$AAl?$AAi?$AAd?$AA?5?$AAa?$AAr?$AAg?$AAu?$AAm?$AAe@
	ldsflda		??_C@_1EK@NIFDJFDG@?$AAs?$AAt?$AAd?$AA?3?$AA?3?$AA_?$AAA?$AAd?$AAj?$AAu?$AAs?$AAt?$AA_?$AAm?$AAa@
	ldsflda		??_C@_1NC@LBGPBFDE@?$AAC?$AA?3?$AA?2?$AAP?$AAr?$AAo?$AAg?$AAr?$AAa?$AAm?$AA?5?$AAF?$AAi?$AAl?$AAe@
	ldc.i4		141		; u32 0x8d
	ldc.i.0		0		; u64 0x0
	conv.i8		
	call		?_invalid_parameter@@$$J0YAXPEB_W00I_K@Z
	ldc.i.0		0		; i32 0x0
	brtrue.s	$LN7@Adjust_man
$LN2@Adjust_man:
	ldc.i.0		0		; i32 0x0
	brtrue.s	$LN4@Adjust_man

; 142  : 
; 143  :     // Extra paranoia on aligned allocation/deallocation; ensure _Ptr_container is
; 144  :     // in range [_Min_back_shift, _Non_user_size]
; 145  : #ifdef _DEBUG
; 146  :     constexpr uintptr_t _Min_back_shift = 2 * sizeof(void*);

	ldc.i4.s	16		; u64 0x10
	conv.i8		
	stloc.3				; _Min_back_shift$

; 147  : #else // ^^^ _DEBUG ^^^ // vvv !_DEBUG vvv
; 148  :     constexpr uintptr_t _Min_back_shift = sizeof(void*);
; 149  : #endif // _DEBUG
; 150  :     const uintptr_t _Back_shift = reinterpret_cast<uintptr_t>(_Ptr) - _Ptr_container;

	ldarg.0				; _Ptr$
	ldind.i8	
	ldloc.1				; _Ptr_container$
	sub		
	stloc.0				; _Back_shift$
$LN10@Adjust_man:

; 151  :     _STL_VERIFY(_Back_shift >= _Min_back_shift && _Back_shift <= _Non_user_size, "invalid argument");

	ldloc.0				; _Back_shift$
	ldc.i4.s	16		; u64 0x10
	conv.i8		
	blt.un.s	$LN13@Adjust_man
	ldloc.0				; _Back_shift$
	ldc.i4.s	47		; u64 0x2f
	conv.i8		
	bgt.un.s	$LN13@Adjust_man
	br.s		$LN8@Adjust_man
$LN13@Adjust_man:
	ldc.i.1		1		; i32 0x1
	ldc.i.2		2		; i32 0x2
	ldsflda		??_C@_0GJ@EHJGLGPD@C?3?2Program?5Files?5?$CIx86?$CJ?2Microsof@
	ldc.i4		151		; i32 0x97
	ldc.i.0		0		; i64 0x0
	conv.i8		
	ldsflda		??_C@_02DKCKIIND@?$CFs@
	ldsflda		??_C@_0BB@FCMFBGOM@invalid?5argument@
	call		?_CrtDbgReport@@$$J0YAHHPEBDH00ZZ
	bne.un.s	$LN20@Adjust_man
	break		
$LN20@Adjust_man:
	ldsflda		??_C@_1CG@JNLFBNGN@?$AA?$CC?$AAi?$AAn?$AAv?$AAa?$AAl?$AAi?$AAd?$AA?5?$AAa?$AAr?$AAg?$AAu?$AAm?$AAe@
	ldsflda		??_C@_1EK@NIFDJFDG@?$AAs?$AAt?$AAd?$AA?3?$AA?3?$AA_?$AAA?$AAd?$AAj?$AAu?$AAs?$AAt?$AA_?$AAm?$AAa@
	ldsflda		??_C@_1NC@LBGPBFDE@?$AAC?$AA?3?$AA?2?$AAP?$AAr?$AAo?$AAg?$AAr?$AAa?$AAm?$AA?5?$AAF?$AAi?$AAl?$AAe@
	ldc.i4		151		; u32 0x97
	ldc.i.0		0		; u64 0x0
	conv.i8		
	call		?_invalid_parameter@@$$J0YAXPEB_W00I_K@Z
	ldc.i.0		0		; i32 0x0
	brtrue.s	$LN13@Adjust_man
$LN8@Adjust_man:
	ldc.i.0		0		; i32 0x0
	brtrue.s	$LN10@Adjust_man

; 152  :     _Ptr = reinterpret_cast<void*>(_Ptr_container);

	ldarg.0				; _Ptr$
	ldloc.1				; _Ptr_container$
	stind.i8	

; 153  : }

	ret		
 .end ?_Adjust_manually_vector_aligned@std@@$$FYAXAEAPEAXAEA_K@Z ; std::_Adjust_manually_vector_aligned
;	.proc.end.void
	.bss
.local	$T1,0
; Function compile flags: /Odtp
; File C:\Program Files (x86)\Microsoft Visual Studio\2019\Enterprise\VC\Tools\MSVC\14.27.29110\include\xmemory
	.text
	.comdat	any, ??$_Convert_size@_K@std@@$$FYA_K_K@Z
.global	??$_Convert_size@_K@std@@$$FYA_K_K@Z		; std::_Convert_size<unsigned __int64>
??$_Convert_size@_K@std@@$$FYA_K_K@Z:			; std::_Convert_size<unsigned __int64>
;	.proc.def	D:J(J)

; Function Header:
; max stack depth = 1
; function size = 4 bytes
; local varsig tk = 0x11000072 
; Exception Information:
; 0 handlers, each consisting of filtered handlers

;	.formal.u8 0,"_Len$" SIG: Optional C Binding Modifier(token:0x722FC51).u8
;	.local.u8 0,"$T2" SIG: u8

;	.proc.beg

; 991  :     // convert size_t to size_t, unchanged
; 992  :     return _Len;

	ldarg.0				; _Len$
	stloc.0				; $T2

; 993  : }

	ldloc.0				; $T2
	ret		
 .end ??$_Convert_size@_K@std@@$$FYA_K_K@Z		; std::_Convert_size<unsigned __int64>
;	.proc.end.u8
.global	
.global	
	.bss
.local	,4
.local	,4
; Function compile flags: /Odtp
; File C:\Program Files (x86)\Microsoft Visual Studio\2019\Enterprise\VC\Tools\MSVC\14.27.29110\include\xmemory
	.text
	.comdat	any, ?_Adopt@_Iterator_base0@std@@$$FQEAAXPEBX@Z
.global	?_Adopt@_Iterator_base0@std@@$$FQEAAXPEBX@Z	; std::_Iterator_base0::_Adopt
?_Adopt@_Iterator_base0@std@@$$FQEAAXPEBX@Z:		; std::_Iterator_base0::_Adopt
;	.proc.def	D:V(JJ)

; Function Header:
; max stack depth = 0
; function size = 1 bytes
; local varsig tk = 0x0 
; Exception Information:
; 0 handlers, each consisting of filtered handlers


;	.proc.beg

; 1072 :     void _Adopt(const void*) noexcept {}

	ret		
 .end ?_Adopt@_Iterator_base0@std@@$$FQEAAXPEBX@Z	; std::_Iterator_base0::_Adopt
;	.proc.end.void
.global	
.global	
	.bss
.local	,4
.local	,4
; Function compile flags: /Odtp
; File C:\Program Files (x86)\Microsoft Visual Studio\2019\Enterprise\VC\Tools\MSVC\14.27.29110\include\xmemory
	.text
	.comdat	any, ??0_Container_proxy@std@@$$FQEAA@PEAU_Container_base12@1@@Z
.global	??0_Container_proxy@std@@$$FQEAA@PEAU_Container_base12@1@@Z ; std::_Container_proxy::_Container_proxy
??0_Container_proxy@std@@$$FQEAA@PEAU_Container_base12@1@@Z: ; std::_Container_proxy::_Container_proxy
;	.proc.def	D:J(JJ)

; Function Header:
; max stack depth = 2
; function size = 12 bytes
; local varsig tk = 0x0 
; Exception Information:
; 0 handlers, each consisting of filtered handlers

;	.formal.i8 0,"this$" SIG: Optional C Binding Modifier(token:0x720FA89).Optional C Binding Modifier(token:0x720FA8B).ptr.valueType (token:0x720FA8E)
;	.formal.i8 1,"_Mycont_$" SIG: ptr.valueType (token:0x7199F6A)

;	.proc.beg

; 1084 :     _Container_proxy(_Container_base12* _Mycont_) noexcept : _Mycont(_Mycont_), _Myfirstiter(nullptr) {}

	ldarg.0				; this$
	ldarg.1				; _Mycont_$
	stind.i8	
	ldarg.0				; this$
	ldc.i.8		8		; i64 0x8
	conv.i8		
	add		
	ldc.i.0		0		; i64 0x0
	conv.i8		
	stind.i8	
	ldarg.0				; this$
	ret		
 .end ??0_Container_proxy@std@@$$FQEAA@PEAU_Container_base12@1@@Z ; std::_Container_proxy::_Container_proxy
;	.proc.end.i8
.global	
	.bss
.local	,4
; Function compile flags: /Odtp
; File C:\Program Files (x86)\Microsoft Visual Studio\2019\Enterprise\VC\Tools\MSVC\14.27.29110\include\xmemory
	.text
	.comdat	any, ??0_Container_base12@std@@$$FQEAA@XZ
.global	??0_Container_base12@std@@$$FQEAA@XZ		; std::_Container_base12::_Container_base12
??0_Container_base12@std@@$$FQEAA@XZ:			; std::_Container_base12::_Container_base12
;	.proc.def	D:J(J)

; Function Header:
; max stack depth = 2
; function size = 6 bytes
; local varsig tk = 0x0 
; Exception Information:
; 0 handlers, each consisting of filtered handlers

;	.formal.i8 0,"this$" SIG: Optional C Binding Modifier(token:0x7231B81).Optional C Binding Modifier(token:0x7231B83).ptr.valueType (token:0x7231B86)

;	.proc.beg

; 1092 :     _Container_base12() noexcept : _Myproxy(nullptr) {}

	ldarg.0				; this$
	ldc.i.0		0		; i64 0x0
	conv.i8		
	stind.i8	
	ldarg.0				; this$
	ret		
 .end ??0_Container_base12@std@@$$FQEAA@XZ		; std::_Container_base12::_Container_base12
;	.proc.end.i8
.global	
	.bss
.local	,4
; Function compile flags: /Odtp
; File C:\Program Files (x86)\Microsoft Visual Studio\2019\Enterprise\VC\Tools\MSVC\14.27.29110\include\xmemory
	.text
	.comdat	any, ??0_Iterator_base12@std@@$$FQEAA@XZ
.global	??0_Iterator_base12@std@@$$FQEAA@XZ		; std::_Iterator_base12::_Iterator_base12
??0_Iterator_base12@std@@$$FQEAA@XZ:			; std::_Iterator_base12::_Iterator_base12
;	.proc.def	D:J(J)

; Function Header:
; max stack depth = 2
; function size = 13 bytes
; local varsig tk = 0x0 
; Exception Information:
; 0 handlers, each consisting of filtered handlers

;	.formal.i8 0,"this$" SIG: Optional C Binding Modifier(token:0x7228459).Optional C Binding Modifier(token:0x722845B).ptr.valueType (token:0x722845E)

;	.proc.beg

; 1121 :     _Iterator_base12() noexcept : _Myproxy(nullptr), _Mynextiter(nullptr) {} // construct orphaned iterator

	ldarg.0				; this$
	ldc.i.0		0		; i64 0x0
	conv.i8		
	stind.i8	
	ldarg.0				; this$
	ldc.i.8		8		; i64 0x8
	conv.i8		
	add		
	ldc.i.0		0		; i64 0x0
	conv.i8		
	stind.i8	
	ldarg.0				; this$
	ret		
 .end ??0_Iterator_base12@std@@$$FQEAA@XZ		; std::_Iterator_base12::_Iterator_base12
;	.proc.end.i8
.global	
	.bss
.local	,4
.local	$T1,0
; Function compile flags: /Odtp
; File C:\Program Files (x86)\Microsoft Visual Studio\2019\Enterprise\VC\Tools\MSVC\14.27.29110\include\xmemory
	.text
	.comdat	any, ?_Getcont@_Iterator_base12@std@@$$FQEBAPEBU_Container_base12@2@XZ
.global	?_Getcont@_Iterator_base12@std@@$$FQEBAPEBU_Container_base12@2@XZ ; std::_Iterator_base12::_Getcont
?_Getcont@_Iterator_base12@std@@$$FQEBAPEBU_Container_base12@2@XZ: ; std::_Iterator_base12::_Getcont
;	.proc.def	D:J(J)

; Function Header:
; max stack depth = 2
; function size = 14 bytes
; local varsig tk = 0x1100007A 
; Exception Information:
; 0 handlers, each consisting of filtered handlers

;	.formal.i8 0,"this$" SIG: Optional C Binding Modifier(token:0x7290FA1).Optional C Binding Modifier(token:0x7290FA3).ptr.Optional C Binding Modifier(token:0x7290FA6).valueType (token:0x7290FA8)
;	.local.i8 0,"$T2" SIG: ptr.Optional C Binding Modifier(token:0x8E505EA).valueType (token:0x8E505EC)

;	.proc.beg

; 1180 :         return _Myproxy ? _Myproxy->_Mycont : nullptr;

	ldarg.0				; this$
	ldind.i8	
	brfalse.s	$LN3@Getcont
	ldarg.0				; this$
	ldind.i8	
	ldind.i8	
	br.s		$LN4@Getcont
$LN3@Getcont:
	ldc.i.0		0		; i64 0x0
	conv.i8		
$LN4@Getcont:
	stloc.0				; $T2

; 1181 :     }

	ldloc.0				; $T2
	ret		
 .end ?_Getcont@_Iterator_base12@std@@$$FQEBAPEBU_Container_base12@2@XZ ; std::_Iterator_base12::_Getcont
;	.proc.end.i8
.global	
.global	??_C@_0BJ@LFDBABJJ@ITERATOR?5LIST?5CORRUPTED?$CB@ ; `string'
.global	??_C@_1DG@PLBPCAEM@?$AA?$CC?$AAI?$AAT?$AAE?$AAR?$AAA?$AAT?$AAO?$AAR?$AA?5?$AAL?$AAI?$AAS?$AAT?$AA?5@ ; `string'
.global	??_C@_1EE@KLDMFDFL@?$AAs?$AAt?$AAd?$AA?3?$AA?3?$AA_?$AAI?$AAt?$AAe?$AAr?$AAa?$AAt?$AAo?$AAr?$AA_@ ; `string'
	.bss
.local	,4
.local	$T1,0
	.rdata
	.comdat	any, ??_C@_1EE@KLDMFDFL@?$AAs?$AAt?$AAd?$AA?3?$AA?3?$AA_?$AAI?$AAt?$AAe?$AAr?$AAa?$AAt?$AAo?$AAr?$AA_@

??_C@_1EE@KLDMFDFL@?$AAs?$AAt?$AAd?$AA?3?$AA?3?$AA_?$AAI?$AAt?$AAe?$AAr?$AAa?$AAt?$AAo?$AAr?$AA_@: ; `string'
	.ascii	"s\000t\000d\000:\000:\000_\000I\000t\000e\000r\000a\000t"
	.ascii	"\000o\000r\000_\000b\000a\000s\000e\0001\0002\000:\000:\000"
	.ascii	"_\000O\000r\000p\000h\000a\000n\000_\000m\000e\000\000\000"
	.rdata
	.comdat	any, ??_C@_1DG@PLBPCAEM@?$AA?$CC?$AAI?$AAT?$AAE?$AAR?$AAA?$AAT?$AAO?$AAR?$AA?5?$AAL?$AAI?$AAS?$AAT?$AA?5@

??_C@_1DG@PLBPCAEM@?$AA?$CC?$AAI?$AAT?$AAE?$AAR?$AAA?$AAT?$AAO?$AAR?$AA?5?$AAL?$AAI?$AAS?$AAT?$AA?5@: ; `string'
	.ascii	"\"\000I\000T\000E\000R\000A\000T\000O\000R\000 \000L\000"
	.ascii	"I\000S\000T\000 \000C\000O\000R\000R\000U\000P\000T\000E\000"
	.ascii	"D\000!\000\"\000\000\000"
	.rdata
	.comdat	any, ??_C@_0BJ@LFDBABJJ@ITERATOR?5LIST?5CORRUPTED?$CB@

??_C@_0BJ@LFDBABJJ@ITERATOR?5LIST?5CORRUPTED?$CB@:	; `string'
	.ascii	"ITERATOR LIST CORRUPTED!\000"
; Function compile flags: /Odtp
; File C:\Program Files (x86)\Microsoft Visual Studio\2019\Enterprise\VC\Tools\MSVC\14.27.29110\include\xmemory
	.text
	.comdat	any, ?_Orphan_me@_Iterator_base12@std@@$$FQEAAXXZ
.global	?_Orphan_me@_Iterator_base12@std@@$$FQEAAXXZ	; std::_Iterator_base12::_Orphan_me
?_Orphan_me@_Iterator_base12@std@@$$FQEAAXXZ:		; std::_Iterator_base12::_Orphan_me
;	.proc.def	D:V(J)

; Function Header:
; max stack depth = 7
; function size = 110 bytes
; local varsig tk = 0x1100007C 
; Exception Information:
; 0 handlers, each consisting of filtered handlers

;	.formal.i8 0,"this$" SIG: Optional C Binding Modifier(token:0x7228459).Optional C Binding Modifier(token:0x722845B).ptr.valueType (token:0x722845E)
;	.local.i8 0,"_Pnext$2" SIG: ptr.ptr.valueType (token:0x7196943)

;	.proc.beg

; 1185 :         if (_Myproxy) { // adopted, remove self from list

	ldarg.0				; this$
	ldind.i8	
	brfalse.s	$LN1@Orphan_me

; 1186 :             _Iterator_base12** _Pnext = &_Myproxy->_Myfirstiter;

	ldarg.0				; this$
	ldind.i8	
	ldc.i.8		8		; i64 0x8
	conv.i8		
	add		
	stloc.0				; _Pnext$2
$LN2@Orphan_me:

; 1187 :             while (*_Pnext && *_Pnext != this) {

	ldloc.0				; _Pnext$2
	ldind.i8	
	brfalse.s	$LN6@Orphan_me
	ldloc.0				; _Pnext$2
	ldind.i8	
	ldarg.0				; this$
	beq.s		$LN6@Orphan_me

; 1188 :                 _Pnext = &(*_Pnext)->_Mynextiter;

	ldloc.0				; _Pnext$2
	ldind.i8	
	ldc.i.8		8		; i64 0x8
	conv.i8		
	add		
	stloc.0				; _Pnext$2

; 1189 :             }

	br.s		$LN2@Orphan_me
$LN6@Orphan_me:

; 1190 : 
; 1191 :             _STL_VERIFY(*_Pnext, "ITERATOR LIST CORRUPTED!");

	ldloc.0				; _Pnext$2
	ldind.i8	
	brfalse.s	$LN9@Orphan_me
	br.s		$LN4@Orphan_me
$LN9@Orphan_me:
	ldc.i.1		1		; i32 0x1
	ldc.i.2		2		; i32 0x2
	ldsflda		??_C@_0GJ@EHJGLGPD@C?3?2Program?5Files?5?$CIx86?$CJ?2Microsof@
	ldc.i4		1191		; i32 0x4a7
	ldc.i.0		0		; i64 0x0
	conv.i8		
	ldsflda		??_C@_02DKCKIIND@?$CFs@
	ldsflda		??_C@_0BJ@LFDBABJJ@ITERATOR?5LIST?5CORRUPTED?$CB@
	call		?_CrtDbgReport@@$$J0YAHHPEBDH00ZZ
	bne.un.s	$LN14@Orphan_me
	break		
$LN14@Orphan_me:
	ldsflda		??_C@_1DG@PLBPCAEM@?$AA?$CC?$AAI?$AAT?$AAE?$AAR?$AAA?$AAT?$AAO?$AAR?$AA?5?$AAL?$AAI?$AAS?$AAT?$AA?5@
	ldsflda		??_C@_1EE@KLDMFDFL@?$AAs?$AAt?$AAd?$AA?3?$AA?3?$AA_?$AAI?$AAt?$AAe?$AAr?$AAa?$AAt?$AAo?$AAr?$AA_@
	ldsflda		??_C@_1NC@LBGPBFDE@?$AAC?$AA?3?$AA?2?$AAP?$AAr?$AAo?$AAg?$AAr?$AAa?$AAm?$AA?5?$AAF?$AAi?$AAl?$AAe@
	ldc.i4		1191		; u32 0x4a7
	ldc.i.0		0		; u64 0x0
	conv.i8		
	call		?_invalid_parameter@@$$J0YAXPEB_W00I_K@Z
	ldc.i.0		0		; i32 0x0
	brtrue.s	$LN9@Orphan_me
$LN4@Orphan_me:
	ldc.i.0		0		; i32 0x0
	brtrue.s	$LN6@Orphan_me

; 1192 :             *_Pnext  = _Mynextiter;

	ldloc.0				; _Pnext$2
	ldarg.0				; this$
	ldc.i.8		8		; i64 0x8
	conv.i8		
	add		
	ldind.i8	
	stind.i8	

; 1193 :             _Myproxy = nullptr;

	ldarg.0				; this$
	ldc.i.0		0		; i64 0x0
	conv.i8		
	stind.i8	
$LN1@Orphan_me:

; 1194 :         }
; 1195 :     }

	ret		
 .end ?_Orphan_me@_Iterator_base12@std@@$$FQEAAXXZ	; std::_Iterator_base12::_Orphan_me
;	.proc.end.void
.global	
	.bss
.local	,4
.local	$T1,0
; Function compile flags: /Odtp
; File C:\Program Files (x86)\Microsoft Visual Studio\2019\Enterprise\VC\Tools\MSVC\14.27.29110\include\xmemory
	.text
	.comdat	any, ?_Orphan_all@_Container_base12@std@@$$FQEAAXXZ
.global	?_Orphan_all@_Container_base12@std@@$$FQEAAXXZ	; std::_Container_base12::_Orphan_all
?_Orphan_all@_Container_base12@std@@$$FQEAAXXZ:		; std::_Container_base12::_Orphan_all
;	.proc.def	D:V(J)

; Function Header:
; max stack depth = 3
; function size = 72 bytes
; local varsig tk = 0x1100007E 
; Exception Information:
; 1 handlers, each consisting of filtered handlers

;	.formal.i8 0,"this$" SIG: Optional C Binding Modifier(token:0x7231B81).Optional C Binding Modifier(token:0x7231B83).ptr.valueType (token:0x7231B86)
;	.local.i8 0,"_Pnext$2" SIG: ptr.ptr.valueType (token:0x7196943)
;	.local.mb4   1,"_Lock$3" SIG: valueType (token:0x7169E91)

;	.proc.beg

; 1206 : #if _ITERATOR_DEBUG_LEVEL == 2
; 1207 :     if (_Myproxy) { // proxy allocated, drain it

	ldarg.0				; this$
	ldind.i8	
	brfalse.s	$LN1@Orphan_all

; 1208 :         _Lockit _Lock(_LOCK_DEBUG);

	ldloca.s	1		; _Lock$3
	ldc.i.3		3		; i32 0x3
	call		??0_Lockit@std@@$$FQEAA@H@Z
	pop		
$LN8@Orphan_all:

; 1209 : 
; 1210 :         for (auto _Pnext = &_Myproxy->_Myfirstiter; *_Pnext; *_Pnext = (*_Pnext)->_Mynextiter) {

	ldarg.0				; this$
	ldind.i8	
	ldc.i.8		8		; i64 0x8
	conv.i8		
	add		
	stloc.0				; _Pnext$2
	br.s		$LN4@Orphan_all
$LN2@Orphan_all:
	ldloc.0				; _Pnext$2
	dup		
	ldind.i8	
	ldc.i.8		8		; i64 0x8
	conv.i8		
	add		
	ldind.i8	
	stind.i8	
$LN4@Orphan_all:
	ldloc.0				; _Pnext$2
	ldind.i8	
	brfalse.s	$LN3@Orphan_all

; 1211 :             (*_Pnext)->_Myproxy = nullptr;

	ldloc.0				; _Pnext$2
	ldind.i8	
	ldc.i.0		0		; i64 0x0
	conv.i8		
	stind.i8	

; 1212 :         }

	br.s		$LN2@Orphan_all
$LN3@Orphan_all:

; 1213 : 
; 1214 :         _Myproxy->_Myfirstiter = nullptr;

	ldarg.0				; this$
	ldind.i8	
	ldc.i.8		8		; i64 0x8
	conv.i8		
	add		
	ldc.i.0		0		; i64 0x0
	conv.i8		
	stind.i8	
	leave.s		$LN9@Orphan_all
$LN10@Orphan_all:
	ldftn		??1_Lockit@std@@$$FQEAA@XZ
	ldloca.s	1		; _Lock$3
	call		?___CxxCallUnwindDtor@@$$J0YMXP6MXPEAX@Z0@Z
	endfinally	
$LN9@Orphan_all:

; 1215 :     }

	ldloca.s	1		; _Lock$3
	call		??1_Lockit@std@@$$FQEAA@XZ
$LN1@Orphan_all:

; 1216 : #endif // _ITERATOR_DEBUG_LEVEL == 2
; 1217 : }

	ret		
 .end ?_Orphan_all@_Container_base12@std@@$$FQEAAXXZ	; std::_Container_base12::_Orphan_all
;	.proc.end.void
.global	
.global	
	.bss
.local	,4
.local	,4
.local	$T1,0
; Function compile flags: /Odtp
; File C:\Program Files (x86)\Microsoft Visual Studio\2019\Enterprise\VC\Tools\MSVC\14.27.29110\include\xmemory
	.text
	.comdat	any, ?_Swap_proxy_and_iterators@_Container_base12@std@@$$FQEAAXAEAU12@@Z
.global	?_Swap_proxy_and_iterators@_Container_base12@std@@$$FQEAAXAEAU12@@Z ; std::_Container_base12::_Swap_proxy_and_iterators
?_Swap_proxy_and_iterators@_Container_base12@std@@$$FQEAAXAEAU12@@Z: ; std::_Container_base12::_Swap_proxy_and_iterators
;	.proc.def	D:V(JJ)

; Function Header:
; max stack depth = 2
; function size = 61 bytes
; local varsig tk = 0x11000081 
; Exception Information:
; 1 handlers, each consisting of filtered handlers

;	.formal.i8 0,"this$" SIG: Optional C Binding Modifier(token:0x7231B81).Optional C Binding Modifier(token:0x7231B83).ptr.valueType (token:0x7231B86)
;	.formal.i8 1,"_Right$" SIG: Optional C Binding Modifier(token:0x71B5FC9).ptr.valueType (token:0x71B5FCC)
;	.local.i8 0,"_Temp$" SIG: ptr.valueType (token:0x722E212)
;	.local.mb4   1,"_Lock$" SIG: valueType (token:0x7169E91)

;	.proc.beg

; 1220 : #if _ITERATOR_DEBUG_LEVEL == 2
; 1221 :     _Lockit _Lock(_LOCK_DEBUG);

	ldloca.s	1		; _Lock$
	ldc.i.3		3		; i32 0x3
	call		??0_Lockit@std@@$$FQEAA@H@Z
	pop		
$LN6@Swap_proxy:

; 1222 : #endif // _ITERATOR_DEBUG_LEVEL == 2
; 1223 : 
; 1224 :     _Container_proxy* _Temp = _Myproxy;

	ldarg.0				; this$
	ldind.i8	
	stloc.0				; _Temp$

; 1225 :     _Myproxy                = _Right._Myproxy;

	ldarg.0				; this$
	ldarg.1				; _Right$
	ldind.i8	
	stind.i8	

; 1226 :     _Right._Myproxy         = _Temp;

	ldarg.1				; _Right$
	ldloc.0				; _Temp$
	stind.i8	

; 1227 : 
; 1228 :     if (_Myproxy) {

	ldarg.0				; this$
	ldind.i8	
	brfalse.s	$LN2@Swap_proxy

; 1229 :         _Myproxy->_Mycont = this;

	ldarg.0				; this$
	ldind.i8	
	ldarg.0				; this$
	stind.i8	
$LN2@Swap_proxy:

; 1230 :     }
; 1231 : 
; 1232 :     if (_Right._Myproxy) {

	ldarg.1				; _Right$
	ldind.i8	
	brtrue.s	$LN9@Swap_proxy
	leave.s		$LN3@Swap_proxy
$LN9@Swap_proxy:

; 1233 :         _Right._Myproxy->_Mycont = &_Right;

	ldarg.1				; _Right$
	ldind.i8	
	ldarg.1				; _Right$
	stind.i8	
	leave.s		$LN7@Swap_proxy
$LN8@Swap_proxy:
	ldftn		??1_Lockit@std@@$$FQEAA@XZ
	ldloca.s	1		; _Lock$
	call		?___CxxCallUnwindDtor@@$$J0YMXP6MXPEAX@Z0@Z
	endfinally	
$LN7@Swap_proxy:
$LN3@Swap_proxy:

; 1234 :     }
; 1235 : }

	ldloca.s	1		; _Lock$
	call		??1_Lockit@std@@$$FQEAA@XZ
	ret		
 .end ?_Swap_proxy_and_iterators@_Container_base12@std@@$$FQEAAXAEAU12@@Z ; std::_Container_base12::_Swap_proxy_and_iterators
;	.proc.end.void
.global	
	.bss
.local	,4
; Function compile flags: /Odtp
; File C:\Program Files (x86)\Microsoft Visual Studio\2019\Enterprise\VC\Tools\MSVC\14.27.29110\include\xmemory
	.text
	.comdat	any, ?_Release@_Basic_container_proxy_ptr12@std@@$$FQEAAXXZ
.global	?_Release@_Basic_container_proxy_ptr12@std@@$$FQEAAXXZ ; std::_Basic_container_proxy_ptr12::_Release
?_Release@_Basic_container_proxy_ptr12@std@@$$FQEAAXXZ:	; std::_Basic_container_proxy_ptr12::_Release
;	.proc.def	D:V(J)

; Function Header:
; max stack depth = 2
; function size = 5 bytes
; local varsig tk = 0x0 
; Exception Information:
; 0 handlers, each consisting of filtered handlers

;	.formal.i8 0,"this$" SIG: Optional C Binding Modifier(token:0x7203149).Optional C Binding Modifier(token:0x720314B).ptr.valueType (token:0x720314E)

;	.proc.beg

; 1267 :         _Ptr = nullptr;

	ldarg.0				; this$
	ldc.i.0		0		; i64 0x0
	conv.i8		
	stind.i8	

; 1268 :     }

	ret		
 .end ?_Release@_Basic_container_proxy_ptr12@std@@$$FQEAAXXZ ; std::_Basic_container_proxy_ptr12::_Release
;	.proc.end.void
.global	??_C@_0BA@JFNIOLAK@string?5too?5long@		; `string'
	.rdata
	.comdat	any, ??_C@_0BA@JFNIOLAK@string?5too?5long@

??_C@_0BA@JFNIOLAK@string?5too?5long@:			; `string'
	.ascii	"string too long\000"
; Function compile flags: /Odtp
; File C:\Program Files (x86)\Microsoft Visual Studio\2019\Enterprise\VC\Tools\MSVC\14.27.29110\include\xstring
	.text
	.comdat	any, ?_Xlen_string@std@@$$FYAXXZ
.global	?_Xlen_string@std@@$$FYAXXZ			; std::_Xlen_string
?_Xlen_string@std@@$$FYAXXZ:				; std::_Xlen_string
;	.proc.def	D:V()

; Function Header:
; max stack depth = 1
; function size = 11 bytes
; local varsig tk = 0x0 
; Exception Information:
; 0 handlers, each consisting of filtered handlers


;	.proc.beg

; 2201 :     _Xlength_error("string too long");

	ldsflda		??_C@_0BA@JFNIOLAK@string?5too?5long@
	call		?_Xlength_error@std@@$$FYAXPEBD@Z

; 2202 : }

	ret		
 .end ?_Xlen_string@std@@$$FYAXXZ			; std::_Xlen_string
;	.proc.end.void
PUBLIC	??0String@cv@@QEAA@AEBV01@@Z			; cv::String::String
; Function compile flags: /Odtp
; File C:\opencv\build\include\opencv2\core\cvstd.hpp
;	COMDAT ??0String@cv@@QEAA@AEBV01@@Z
_TEXT	SEGMENT
this$ = 8
str$ = 16
??0String@cv@@QEAA@AEBV01@@Z PROC			; cv::String::String, COMDAT

; 573  : {

	mov	QWORD PTR [rsp+16], rdx
	mov	QWORD PTR [rsp+8], rcx

; 572  :     : cstr_(str.cstr_), len_(str.len_)

	mov	rax, QWORD PTR this$[rsp]
	mov	rcx, QWORD PTR str$[rsp]
	mov	rcx, QWORD PTR [rcx]
	mov	QWORD PTR [rax], rcx
	mov	rax, QWORD PTR this$[rsp]
	mov	rcx, QWORD PTR str$[rsp]
	mov	rcx, QWORD PTR [rcx+8]
	mov	QWORD PTR [rax+8], rcx

; 574  :     if (cstr_)

	mov	rax, QWORD PTR this$[rsp]
	cmp	QWORD PTR [rax], 0
	je	SHORT $LN2@String

; 575  :         CV_XADD(((int*)cstr_)-1, 1);

	mov	rax, QWORD PTR this$[rsp]
	mov	rax, QWORD PTR [rax]
	sub	rax, 4
	lock inc DWORD PTR [rax]
$LN2@String:

; 576  : }

	mov	rax, QWORD PTR this$[rsp]
	ret	0
??0String@cv@@QEAA@AEBV01@@Z ENDP			; cv::String::String
_TEXT	ENDS
.global	
.global	
	.bss
.local	,4
.local	,4
.local	$T1,0
; Function compile flags: /Odtp
; File C:\opencv\build\include\opencv2\core\cvstd.hpp
	.text
	.comdat	any, ??0String@cv@@$$FQEAA@PEBD@Z
.global	??0String@cv@@$$FQEAA@PEBD@Z			; cv::String::String
??0String@cv@@$$FQEAA@PEBD@Z:				; cv::String::String
;	.proc.def	D:J(JJ)

; Function Header:
; max stack depth = 3
; function size = 45 bytes
; local varsig tk = 0x11000072 
; Exception Information:
; 0 handlers, each consisting of filtered handlers

;	.formal.i8 0,"this$" SIG: Optional C Binding Modifier(token:0x72B64E1).Optional C Binding Modifier(token:0x72B64E3).ptr.valueType (token:0x72B64E6)
;	.formal.i8 1,"s$" SIG: ptr.Optional C Binding Modifier(token:0x7225A8A).Optional C Binding Modifier(token:0x7225A8C).i1
;	.local.u8 0,"len$" SIG: u8

;	.proc.beg

; 597  :     : cstr_(0), len_(0)

	ldarg.0				; this$
	ldc.i.0		0		; i64 0x0
	conv.i8		
	stind.i8	
	ldarg.0				; this$
	ldc.i.8		8		; i64 0x8
	conv.i8		
	add		
	ldc.i.0		0		; u64 0x0
	conv.i8		
	stind.i8	

; 599  :     if (!s) return;

	ldarg.1				; s$
	brtrue.s	$LN2@String
	br.s		$LN1@String
$LN2@String:

; 600  :     size_t len = strlen(s);

	ldarg.1				; s$
	call		?strlen@@$$J0YA_KPEBD@Z
	stloc.0				; len$

; 601  :     if (!len) return;

	ldloc.0				; len$
	brtrue.s	$LN3@String
	br.s		$LN1@String
$LN3@String:

; 602  :     memcpy(allocate(len), s, len);

	ldarg.0				; this$
	ldloc.0				; len$
	call		?allocate@String@cv@@$$FAEAAPEAD_K@Z
	ldarg.1				; s$
	ldloc.0				; len$
	call		?memcpy@@$$J0YAPEAXPEAXPEBX_K@Z
	pop		
$LN1@String:

; 603  : }

	ldarg.0				; this$
	ret		
 .end ??0String@cv@@$$FQEAA@PEBD@Z			; cv::String::String
;	.proc.end.i8
; Function compile flags: /Odtp
; File C:\opencv\build\include\opencv2\core\cvstd.hpp
	.text
	.comdat	any, ??1String@cv@@$$FQEAA@XZ
.global	??1String@cv@@$$FQEAA@XZ			; cv::String::~String
??1String@cv@@$$FQEAA@XZ:				; cv::String::~String
;	.proc.def	D:V(J)

; Function Header:
; max stack depth = 1
; function size = 7 bytes
; local varsig tk = 0x0 
; Exception Information:
; 0 handlers, each consisting of filtered handlers

;	.formal.i8 0,"this$" SIG: Optional C Binding Modifier(token:0x72B64E1).Optional C Binding Modifier(token:0x72B64E3).ptr.valueType (token:0x72B64E6)

;	.proc.beg

; 648  :     deallocate();

	ldarg.0				; this$
	call		?deallocate@String@cv@@$$FAEAAXXZ

; 649  : }

	ret		
 .end ??1String@cv@@$$FQEAA@XZ				; cv::String::~String
;	.proc.end.void
.global	
	.bss
.local	,4
; Function compile flags: /Odtp
; File C:\opencv\build\include\opencv2\core\mat.inl.hpp
	.text
	.comdat	any, ?init@_InputArray@debug_build_guard@cv@@$$FIEAAXHPEBX@Z
.global	?init@_InputArray@debug_build_guard@cv@@$$FIEAAXHPEBX@Z ; cv::debug_build_guard::_InputArray::init
?init@_InputArray@debug_build_guard@cv@@$$FIEAAXHPEBX@Z: ; cv::debug_build_guard::_InputArray::init
;	.proc.def	D:V(JIJ)

; Function Header:
; max stack depth = 2
; function size = 10 bytes
; local varsig tk = 0x0 
; Exception Information:
; 0 handlers, each consisting of filtered handlers

;	.formal.i8 0,"this$" SIG: Optional C Binding Modifier(token:0x72C48D1).Optional C Binding Modifier(token:0x72C48D3).ptr.valueType (token:0x72C48D6)
;	.formal.i4 1,"_flags$" SIG: i4
;	.formal.i8 2,"_obj$" SIG: ptr.Optional C Binding Modifier(token:0x71AD37A).void

;	.proc.beg

; 67   : { flags = _flags; obj = (void*)_obj; }

	ldarg.0				; this$
	ldarg.1				; _flags$
	stind.i4	
	ldarg.0				; this$
	ldc.i.8		8		; i64 0x8
	conv.i8		
	add		
	ldarg.2				; _obj$
	stind.i8	
	ret		
 .end ?init@_InputArray@debug_build_guard@cv@@$$FIEAAXHPEBX@Z ; cv::debug_build_guard::_InputArray::init
;	.proc.end.void
; Function compile flags: /Odtp
; File C:\opencv\build\include\opencv2\core\mat.inl.hpp
	.text
	.comdat	any, ??1_InputArray@debug_build_guard@cv@@$$FQEAA@XZ
.global	??1_InputArray@debug_build_guard@cv@@$$FQEAA@XZ	; cv::debug_build_guard::_InputArray::~_InputArray
??1_InputArray@debug_build_guard@cv@@$$FQEAA@XZ:	; cv::debug_build_guard::_InputArray::~_InputArray
;	.proc.def	D:V(J)

; Function Header:
; max stack depth = 0
; function size = 1 bytes
; local varsig tk = 0x0 
; Exception Information:
; 0 handlers, each consisting of filtered handlers


;	.proc.beg

; 143  : inline _InputArray::~_InputArray() {}

	ret		
 .end ??1_InputArray@debug_build_guard@cv@@$$FQEAA@XZ	; cv::debug_build_guard::_InputArray::~_InputArray
;	.proc.end.void
.global	
	.bss
.local	,4
; Function compile flags: /Odtp
	.text
	.comdat	any, ??1_OutputArray@debug_build_guard@cv@@$$FQEAA@XZ
.global	??1_OutputArray@debug_build_guard@cv@@$$FQEAA@XZ ; cv::debug_build_guard::_OutputArray::~_OutputArray
??1_OutputArray@debug_build_guard@cv@@$$FQEAA@XZ:	; cv::debug_build_guard::_OutputArray::~_OutputArray
;	.proc.def	D:V(J)

; Function Header:
; max stack depth = 1
; function size = 7 bytes
; local varsig tk = 0x0 
; Exception Information:
; 0 handlers, each consisting of filtered handlers

;	.formal.i8 0,"this$" SIG: Optional C Binding Modifier(token:0x71B3409).Optional C Binding Modifier(token:0x71B340B).ptr.valueType (token:0x71B340E)

;	.proc.beg
	ldarg.0				; this$
	call		??1_InputArray@debug_build_guard@cv@@$$FQEAA@XZ
	ret		
 .end ??1_OutputArray@debug_build_guard@cv@@$$FQEAA@XZ	; cv::debug_build_guard::_OutputArray::~_OutputArray
;	.proc.end.void
.global	
	.bss
.local	,4
; Function compile flags: /Odtp
; File C:\opencv\build\include\opencv2\core\mat.inl.hpp
	.text
	.comdat	any, ??1Mat@cv@@$$FQEAA@XZ
.global	??1Mat@cv@@$$FQEAA@XZ				; cv::Mat::~Mat
??1Mat@cv@@$$FQEAA@XZ:					; cv::Mat::~Mat
;	.proc.def	D:V(J)

; Function Header:
; max stack depth = 3
; function size = 31 bytes
; local varsig tk = 0x0 
; Exception Information:
; 0 handlers, each consisting of filtered handlers

;	.formal.i8 0,"this$" SIG: Optional C Binding Modifier(token:0x72B1209).Optional C Binding Modifier(token:0x72B120B).ptr.valueType (token:0x72B120E)

;	.proc.beg

; 690  :     release();

	ldarg.0				; this$
	call		?release@Mat@cv@@$$FQEAAXXZ

; 691  :     if( step.p != step.buf )

	ldarg.0				; this$
	ldc.i4.s	72		; i64 0x48
	conv.i8		
	add		
	ldind.i8	
	ldarg.0				; this$
	ldc.i4.s	80		; i64 0x50
	conv.i8		
	add		
	beq.s		$LN1@Mat

; 692  :         fastFree(step.p);

	ldarg.0				; this$
	ldc.i4.s	72		; i64 0x48
	conv.i8		
	add		
	ldind.i8	
	call		?fastFree@cv@@$$FYAXPEAX@Z
$LN1@Mat:

; 693  : }

	ret		
 .end ??1Mat@cv@@$$FQEAA@XZ				; cv::Mat::~Mat
;	.proc.end.void
.global	
	.bss
.local	,4
.local	$T1,0
; Function compile flags: /Odtp
; File C:\opencv\build\include\opencv2\core\mat.inl.hpp
	.text
	.comdat	any, ?elemSize1@Mat@cv@@$$FQEBA_KXZ
.global	?elemSize1@Mat@cv@@$$FQEBA_KXZ			; cv::Mat::elemSize1
?elemSize1@Mat@cv@@$$FQEBA_KXZ:				; cv::Mat::elemSize1
;	.proc.def	D:J(J)

; Function Header:
; max stack depth = 3
; function size = 23 bytes
; local varsig tk = 0x11000072 
; Exception Information:
; 0 handlers, each consisting of filtered handlers

;	.formal.i8 0,"this$" SIG: Optional C Binding Modifier(token:0x72D01F9).Optional C Binding Modifier(token:0x72D01FB).ptr.Optional C Binding Modifier(token:0x72D01FE).valueType (token:0x72D0200)
;	.local.u8 0,"$T2" SIG: u8

;	.proc.beg

; 866  :     return CV_ELEM_SIZE1(flags);

	ldc.i8		2286166545	; u64 0x88442211
	ldarg.0				; this$
	ldind.i4	
	ldc.i.7		7		; i32 0x7
	and		
	ldc.i.4		4		; i32 0x4
	mul		
	shr.un		
	ldc.i4.s	15		; u64 0xf
	conv.i8		
	and		
	stloc.0				; $T2

; 867  : }

	ldloc.0				; $T2
	ret		
 .end ?elemSize1@Mat@cv@@$$FQEBA_KXZ			; cv::Mat::elemSize1
;	.proc.end.u8
	.bss
.local	$T1,0
; Function compile flags: /Odtp
; File C:\opencv\build\include\opencv2\core\mat.inl.hpp
	.text
	.comdat	any, ?channels@Mat@cv@@$$FQEBAHXZ
.global	?channels@Mat@cv@@$$FQEBAHXZ			; cv::Mat::channels
?channels@Mat@cv@@$$FQEBAHXZ:				; cv::Mat::channels
;	.proc.def	D:I(J)

; Function Header:
; max stack depth = 2
; function size = 15 bytes
; local varsig tk = 0x11000089 
; Exception Information:
; 0 handlers, each consisting of filtered handlers

;	.formal.i8 0,"this$" SIG: Optional C Binding Modifier(token:0x72D01F9).Optional C Binding Modifier(token:0x72D01FB).ptr.Optional C Binding Modifier(token:0x72D01FE).valueType (token:0x72D0200)
;	.local.i4 0,"$T2" SIG: i4

;	.proc.beg

; 884  :     return CV_MAT_CN(flags);

	ldarg.0				; this$
	ldind.i4	
	ldc.i4		4088		; i32 0xff8
	and		
	ldc.i.3		3		; i32 0x3
	shr		
	ldc.i.1		1		; i32 0x1
	add		
	stloc.0				; $T2

; 885  : }

	ldloc.0				; $T2
	ret		
 .end ?channels@Mat@cv@@$$FQEBAHXZ			; cv::Mat::channels
;	.proc.end.i4
.global	
.global	
	.bss
.local	,4
.local	,4
; Function compile flags: /Odtp
; File C:\opencv\build\include\opencv2\core\mat.inl.hpp
	.text
	.comdat	any, ??0MatSize@cv@@$$FQEAA@PEAH@Z
.global	??0MatSize@cv@@$$FQEAA@PEAH@Z			; cv::MatSize::MatSize
??0MatSize@cv@@$$FQEAA@PEAH@Z:				; cv::MatSize::MatSize
;	.proc.def	D:J(JJ)

; Function Header:
; max stack depth = 2
; function size = 5 bytes
; local varsig tk = 0x0 
; Exception Information:
; 0 handlers, each consisting of filtered handlers

;	.formal.i8 0,"this$" SIG: Optional C Binding Modifier(token:0x719A079).Optional C Binding Modifier(token:0x719A07B).ptr.valueType (token:0x719A07E)
;	.formal.i8 1,"_p$" SIG: ptr.i4

;	.proc.beg

; 1402 :     : p(_p) {}

	ldarg.0				; this$
	ldarg.1				; _p$
	stind.i8	
	ldarg.0				; this$
	ret		
 .end ??0MatSize@cv@@$$FQEAA@PEAH@Z			; cv::MatSize::MatSize
;	.proc.end.i8
.global	
	.bss
.local	,4
; Function compile flags: /Odtp
; File C:\opencv\build\include\opencv2\core\mat.inl.hpp
	.text
	.comdat	any, ??0MatStep@cv@@$$FQEAA@XZ
.global	??0MatStep@cv@@$$FQEAA@XZ			; cv::MatStep::MatStep
??0MatStep@cv@@$$FQEAA@XZ:				; cv::MatStep::MatStep
;	.proc.def	D:J(J)

; Function Header:
; max stack depth = 3
; function size = 27 bytes
; local varsig tk = 0x0 
; Exception Information:
; 0 handlers, each consisting of filtered handlers

;	.formal.i8 0,"this$" SIG: Optional C Binding Modifier(token:0x72123C9).Optional C Binding Modifier(token:0x72123CB).ptr.valueType (token:0x72123CE)

;	.proc.beg

; 1458 :     p = buf; p[0] = p[1] = 0;

	ldarg.0				; this$
	dup		
	ldc.i.8		8		; i64 0x8
	conv.i8		
	add		
	stind.i8	
	ldarg.0				; this$
	ldind.i8	
	ldc.i.8		8		; i64 0x8
	conv.i8		
	add		
	ldc.i.0		0		; u64 0x0
	conv.i8		
	stind.i8	
	ldarg.0				; this$
	ldind.i8	
	ldc.i.8		8		; i64 0x8
	conv.i8		
	ldc.i.0		0		; i64 0x0
	conv.i8		
	mul		
	add		
	ldc.i.0		0		; u64 0x0
	conv.i8		
	stind.i8	

; 1459 : }

	ldarg.0				; this$
	ret		
 .end ??0MatStep@cv@@$$FQEAA@XZ				; cv::MatStep::MatStep
;	.proc.end.i8
; Function compile flags: /Odtp
; File C:\opencv\build\include\opencv2\core\mat.inl.hpp
	.text
	.comdat	any, ??0MatStep@cv@@$$FQEAA@_K@Z
.global	??0MatStep@cv@@$$FQEAA@_K@Z			; cv::MatStep::MatStep
??0MatStep@cv@@$$FQEAA@_K@Z:				; cv::MatStep::MatStep
;	.proc.def	D:J(JJ)

; Function Header:
; max stack depth = 3
; function size = 26 bytes
; local varsig tk = 0x0 
; Exception Information:
; 0 handlers, each consisting of filtered handlers

;	.formal.i8 0,"this$" SIG: Optional C Binding Modifier(token:0x72123C9).Optional C Binding Modifier(token:0x72123CB).ptr.valueType (token:0x72123CE)
;	.formal.u8 1,"s$" SIG: u8

;	.proc.beg

; 1464 :     p = buf; p[0] = s; p[1] = 0;

	ldarg.0				; this$
	dup		
	ldc.i.8		8		; i64 0x8
	conv.i8		
	add		
	stind.i8	
	ldarg.0				; this$
	ldind.i8	
	ldc.i.8		8		; i64 0x8
	conv.i8		
	ldc.i.0		0		; i64 0x0
	conv.i8		
	mul		
	add		
	ldarg.1				; s$
	stind.i8	
	ldarg.0				; this$
	ldind.i8	
	ldc.i.8		8		; i64 0x8
	conv.i8		
	add		
	ldc.i.0		0		; u64 0x0
	conv.i8		
	stind.i8	

; 1465 : }

	ldarg.0				; this$
	ret		
 .end ??0MatStep@cv@@$$FQEAA@_K@Z			; cv::MatStep::MatStep
;	.proc.end.i8
.global	
	.bss
.local	,4
.local	$T1,0
; Function compile flags: /Odtp
; File C:\opencv\build\include\opencv2\core\mat.inl.hpp
	.text
	.comdat	any, ??AMatStep@cv@@$$FQEBAAEB_KH@Z
.global	??AMatStep@cv@@$$FQEBAAEB_KH@Z			; cv::MatStep::operator[]
??AMatStep@cv@@$$FQEBAAEB_KH@Z:				; cv::MatStep::operator[]
;	.proc.def	D:J(JI)

; Function Header:
; max stack depth = 3
; function size = 11 bytes
; local varsig tk = 0x1100008E 
; Exception Information:
; 0 handlers, each consisting of filtered handlers

;	.formal.i8 0,"this$" SIG: Optional C Binding Modifier(token:0x72AF671).Optional C Binding Modifier(token:0x72AF673).ptr.Optional C Binding Modifier(token:0x72AF676).valueType (token:0x72AF678)
;	.formal.i4 1,"i$" SIG: i4
;	.local.i8 0,"$T2" SIG: Optional C Binding Modifier(token:0x8981681).ptr.Optional C Binding Modifier(token:0x8981684).u8

;	.proc.beg

; 1470 :     return p[i];

	ldarg.0				; this$
	ldind.i8	
	ldarg.1				; i$
	conv.i8		
	ldc.i.8		8		; i64 0x8
	conv.i8		
	mul		
	add		
	stloc.0				; $T2

; 1471 : }

	ldloc.0				; $T2
	ret		
 .end ??AMatStep@cv@@$$FQEBAAEB_KH@Z			; cv::MatStep::operator[]
;	.proc.end.i8
	.bss
.local	$T1,0
; Function compile flags: /Odtp
; File C:\opencv\build\include\opencv2\core\mat.inl.hpp
	.text
	.comdat	any, ??AMatStep@cv@@$$FQEAAAEA_KH@Z
.global	??AMatStep@cv@@$$FQEAAAEA_KH@Z			; cv::MatStep::operator[]
??AMatStep@cv@@$$FQEAAAEA_KH@Z:				; cv::MatStep::operator[]
;	.proc.def	D:J(JI)

; Function Header:
; max stack depth = 3
; function size = 11 bytes
; local varsig tk = 0x1100008F 
; Exception Information:
; 0 handlers, each consisting of filtered handlers

;	.formal.i8 0,"this$" SIG: Optional C Binding Modifier(token:0x72123C9).Optional C Binding Modifier(token:0x72123CB).ptr.valueType (token:0x72123CE)
;	.formal.i4 1,"i$" SIG: i4
;	.local.i8 0,"$T2" SIG: Optional C Binding Modifier(token:0x8981DF9).ptr.u8

;	.proc.beg

; 1476 :     return p[i];

	ldarg.0				; this$
	ldind.i8	
	ldarg.1				; i$
	conv.i8		
	ldc.i.8		8		; i64 0x8
	conv.i8		
	mul		
	add		
	stloc.0				; $T2

; 1477 : }

	ldloc.0				; $T2
	ret		
 .end ??AMatStep@cv@@$$FQEAAAEA_KH@Z			; cv::MatStep::operator[]
;	.proc.end.i8
.global	
.global	
	.bss
.local	,4
.local	,4
; Function compile flags: /Odtp
; File C:\opencv\build\include\opencv2\core\mat.inl.hpp
	.text
	.comdat	any, ??0SparseMat@cv@@$$FQEAA@AEBV01@@Z
.global	??0SparseMat@cv@@$$FQEAA@AEBV01@@Z		; cv::SparseMat::SparseMat
??0SparseMat@cv@@$$FQEAA@AEBV01@@Z:			; cv::SparseMat::SparseMat
;	.proc.def	D:J(JJ)

; Function Header:
; max stack depth = 3
; function size = 22 bytes
; local varsig tk = 0x0 
; Exception Information:
; 0 handlers, each consisting of filtered handlers

;	.formal.i8 0,"this$" SIG: Optional C Binding Modifier(token:0x723CF29).Optional C Binding Modifier(token:0x723CF2B).ptr.valueType (token:0x723CF2E)
;	.formal.i8 1,"m$" SIG: Optional C Binding Modifier(token:0x720F559).ptr.Optional C Binding Modifier(token:0x720F55C).valueType (token:0x720F55E)

;	.proc.beg

; 2066 :     : flags(m.flags), hdr(m.hdr)

	ldarg.0				; this$
	ldarg.1				; m$
	ldind.i4	
	stind.i4	
	ldarg.0				; this$
	ldc.i.8		8		; i64 0x8
	conv.i8		
	add		
	ldarg.1				; m$
	ldc.i.8		8		; i64 0x8
	conv.i8		
	add		
	ldind.i8	
	stind.i8	

; 2068 :     addref();

	ldarg.0				; this$
	call		?addref@SparseMat@cv@@$$FQEAAXXZ

; 2069 : }

	ldarg.0				; this$
	ret		
 .end ??0SparseMat@cv@@$$FQEAA@AEBV01@@Z		; cv::SparseMat::SparseMat
;	.proc.end.i8
PUBLIC	__t2m@??0SparseMat@cv@@QEAA@AEBV01@@Z
PUBLIC	__m2mep@??0SparseMat@cv@@$$FQEAA@AEBV01@@Z
PUBLIC	__mep@??0SparseMat@cv@@$$FQEAA@AEBV01@@Z
;	COMDAT __mep@??0SparseMat@cv@@$$FQEAA@AEBV01@@Z
data	SEGMENT
__mep@??0SparseMat@cv@@$$FQEAA@AEBV01@@Z TOKEN 0A000115
data	ENDS
;	COMDAT __m2mep@??0SparseMat@cv@@$$FQEAA@AEBV01@@Z
data	SEGMENT
__m2mep@??0SparseMat@cv@@$$FQEAA@AEBV01@@Z DD FLAT:??0SparseMat@cv@@$$FQEAA@AEBV01@@Z
data	ENDS
; Function compile flags: /Ods
;	COMDAT nep
_TEXT	SEGMENT
__t2m@??0SparseMat@cv@@QEAA@AEBV01@@Z PROC		; COMDAT
	jmp	SHORT $LN1@
	ud2
$LN2@:
	jmp	QWORD PTR __m2mep@??0SparseMat@cv@@$$FQEAA@AEBV01@@Z
$LN1@:
	jmp	QWORD PTR __mep@??0SparseMat@cv@@$$FQEAA@AEBV01@@Z
__t2m@??0SparseMat@cv@@QEAA@AEBV01@@Z ENDP
_TEXT	ENDS
.global	
.global	
	.bss
.local	,4
.local	,4
; Function compile flags: /Odtp
; File C:\opencv\build\include\opencv2\core\mat.inl.hpp
	.text
	.comdat	any, ??0MatConstIterator@cv@@$$FQEAA@AEBV01@@Z
.global	??0MatConstIterator@cv@@$$FQEAA@AEBV01@@Z	; cv::MatConstIterator::MatConstIterator
??0MatConstIterator@cv@@$$FQEAA@AEBV01@@Z:		; cv::MatConstIterator::MatConstIterator
;	.proc.def	D:J(JJ)

; Function Header:
; max stack depth = 3
; function size = 52 bytes
; local varsig tk = 0x0 
; Exception Information:
; 0 handlers, each consisting of filtered handlers

;	.formal.i8 0,"this$" SIG: Optional C Binding Modifier(token:0x717B809).Optional C Binding Modifier(token:0x717B80B).ptr.valueType (token:0x717B80E)
;	.formal.i8 1,"it$" SIG: Optional C Binding Modifier(token:0x71AE949).ptr.Optional C Binding Modifier(token:0x71AE94C).valueType (token:0x71AE94E)

;	.proc.beg

; 2601 :     : m(it.m), elemSize(it.elemSize), ptr(it.ptr), sliceStart(it.sliceStart), sliceEnd(it.sliceEnd)

	ldarg.0				; this$
	ldarg.1				; it$
	ldind.i8	
	stind.i8	
	ldarg.0				; this$
	ldc.i.8		8		; i64 0x8
	conv.i8		
	add		
	ldarg.1				; it$
	ldc.i.8		8		; i64 0x8
	conv.i8		
	add		
	ldind.i8	
	stind.i8	
	ldarg.0				; this$
	ldc.i4.s	16		; i64 0x10
	conv.i8		
	add		
	ldarg.1				; it$
	ldc.i4.s	16		; i64 0x10
	conv.i8		
	add		
	ldind.i8	
	stind.i8	
	ldarg.0				; this$
	ldc.i4.s	24		; i64 0x18
	conv.i8		
	add		
	ldarg.1				; it$
	ldc.i4.s	24		; i64 0x18
	conv.i8		
	add		
	ldind.i8	
	stind.i8	
	ldarg.0				; this$
	ldc.i4.s	32		; i64 0x20
	conv.i8		
	add		
	ldarg.1				; it$
	ldc.i4.s	32		; i64 0x20
	conv.i8		
	add		
	ldind.i8	
	stind.i8	

; 2602 : {}

	ldarg.0				; this$
	ret		
 .end ??0MatConstIterator@cv@@$$FQEAA@AEBV01@@Z		; cv::MatConstIterator::MatConstIterator
;	.proc.end.i8
PUBLIC	__t2m@??0MatConstIterator@cv@@QEAA@AEBV01@@Z
PUBLIC	__m2mep@??0MatConstIterator@cv@@$$FQEAA@AEBV01@@Z
PUBLIC	__mep@??0MatConstIterator@cv@@$$FQEAA@AEBV01@@Z
;	COMDAT __mep@??0MatConstIterator@cv@@$$FQEAA@AEBV01@@Z
data	SEGMENT
__mep@??0MatConstIterator@cv@@$$FQEAA@AEBV01@@Z TOKEN 0A00011C
data	ENDS
;	COMDAT __m2mep@??0MatConstIterator@cv@@$$FQEAA@AEBV01@@Z
data	SEGMENT
__m2mep@??0MatConstIterator@cv@@$$FQEAA@AEBV01@@Z DD FLAT:??0MatConstIterator@cv@@$$FQEAA@AEBV01@@Z
data	ENDS
; Function compile flags: /Ods
;	COMDAT nep
_TEXT	SEGMENT
__t2m@??0MatConstIterator@cv@@QEAA@AEBV01@@Z PROC	; COMDAT
	jmp	SHORT $LN1@
	ud2
$LN2@:
	jmp	QWORD PTR __m2mep@??0MatConstIterator@cv@@$$FQEAA@AEBV01@@Z
$LN1@:
	jmp	QWORD PTR __mep@??0MatConstIterator@cv@@$$FQEAA@AEBV01@@Z
__t2m@??0MatConstIterator@cv@@QEAA@AEBV01@@Z ENDP
_TEXT	ENDS
.global	
.global	
	.bss
.local	,4
.local	,4
; Function compile flags: /Odtp
; File C:\opencv\build\include\opencv2\core\mat.inl.hpp
	.text
	.comdat	any, ??0SparseMatConstIterator@cv@@$$FQEAA@AEBV01@@Z
.global	??0SparseMatConstIterator@cv@@$$FQEAA@AEBV01@@Z	; cv::SparseMatConstIterator::SparseMatConstIterator
??0SparseMatConstIterator@cv@@$$FQEAA@AEBV01@@Z:	; cv::SparseMatConstIterator::SparseMatConstIterator
;	.proc.def	D:J(JJ)

; Function Header:
; max stack depth = 3
; function size = 28 bytes
; local varsig tk = 0x0 
; Exception Information:
; 0 handlers, each consisting of filtered handlers

;	.formal.i8 0,"this$" SIG: Optional C Binding Modifier(token:0x71A4C01).Optional C Binding Modifier(token:0x71A4C03).ptr.valueType (token:0x71A4C06)
;	.formal.i8 1,"it$" SIG: Optional C Binding Modifier(token:0x72DA8E9).ptr.Optional C Binding Modifier(token:0x72DA8EC).valueType (token:0x72DA8EE)

;	.proc.beg

; 3040 :     : m(it.m), hashidx(it.hashidx), ptr(it.ptr)

	ldarg.0				; this$
	ldarg.1				; it$
	ldind.i8	
	stind.i8	
	ldarg.0				; this$
	ldc.i.8		8		; i64 0x8
	conv.i8		
	add		
	ldarg.1				; it$
	ldc.i.8		8		; i64 0x8
	conv.i8		
	add		
	ldind.i8	
	stind.i8	
	ldarg.0				; this$
	ldc.i4.s	16		; i64 0x10
	conv.i8		
	add		
	ldarg.1				; it$
	ldc.i4.s	16		; i64 0x10
	conv.i8		
	add		
	ldind.i8	
	stind.i8	

; 3041 : {}

	ldarg.0				; this$
	ret		
 .end ??0SparseMatConstIterator@cv@@$$FQEAA@AEBV01@@Z	; cv::SparseMatConstIterator::SparseMatConstIterator
;	.proc.end.i8
PUBLIC	__t2m@??0SparseMatConstIterator@cv@@QEAA@AEBV01@@Z
PUBLIC	__m2mep@??0SparseMatConstIterator@cv@@$$FQEAA@AEBV01@@Z
PUBLIC	__mep@??0SparseMatConstIterator@cv@@$$FQEAA@AEBV01@@Z
;	COMDAT __mep@??0SparseMatConstIterator@cv@@$$FQEAA@AEBV01@@Z
data	SEGMENT
__mep@??0SparseMatConstIterator@cv@@$$FQEAA@AEBV01@@Z TOKEN 0A000122
data	ENDS
;	COMDAT __m2mep@??0SparseMatConstIterator@cv@@$$FQEAA@AEBV01@@Z
data	SEGMENT
__m2mep@??0SparseMatConstIterator@cv@@$$FQEAA@AEBV01@@Z DD FLAT:??0SparseMatConstIterator@cv@@$$FQEAA@AEBV01@@Z
data	ENDS
; Function compile flags: /Ods
;	COMDAT nep
_TEXT	SEGMENT
__t2m@??0SparseMatConstIterator@cv@@QEAA@AEBV01@@Z PROC	; COMDAT
	jmp	SHORT $LN1@
	ud2
$LN2@:
	jmp	QWORD PTR __m2mep@??0SparseMatConstIterator@cv@@$$FQEAA@AEBV01@@Z
$LN1@:
	jmp	QWORD PTR __mep@??0SparseMatConstIterator@cv@@$$FQEAA@AEBV01@@Z
__t2m@??0SparseMatConstIterator@cv@@QEAA@AEBV01@@Z ENDP
_TEXT	ENDS
.global	
.global	
	.bss
.local	,4
.local	,4
; Function compile flags: /Odtp
; File C:\opencv\build\include\opencv2\core\mat.inl.hpp
	.text
	.comdat	any, ??0SparseMatIterator@cv@@$$FQEAA@AEBV01@@Z
.global	??0SparseMatIterator@cv@@$$FQEAA@AEBV01@@Z	; cv::SparseMatIterator::SparseMatIterator
??0SparseMatIterator@cv@@$$FQEAA@AEBV01@@Z:		; cv::SparseMatIterator::SparseMatIterator
;	.proc.def	D:J(JJ)

; Function Header:
; max stack depth = 2
; function size = 10 bytes
; local varsig tk = 0x0 
; Exception Information:
; 0 handlers, each consisting of filtered handlers

;	.formal.i8 0,"this$" SIG: Optional C Binding Modifier(token:0x71F07F1).Optional C Binding Modifier(token:0x71F07F3).ptr.valueType (token:0x71F07F6)
;	.formal.i8 1,"it$" SIG: Optional C Binding Modifier(token:0x728FED9).ptr.Optional C Binding Modifier(token:0x728FEDC).valueType (token:0x728FEDE)

;	.proc.beg

; 3112 :     : SparseMatConstIterator(it)

	ldarg.0				; this$
	ldarg.1				; it$
	call		??0SparseMatConstIterator@cv@@$$FQEAA@AEBV01@@Z
	pop		

; 3113 : {}

	ldarg.0				; this$
	ret		
 .end ??0SparseMatIterator@cv@@$$FQEAA@AEBV01@@Z	; cv::SparseMatIterator::SparseMatIterator
;	.proc.end.i8
PUBLIC	__t2m@??0SparseMatIterator@cv@@QEAA@AEBV01@@Z
PUBLIC	__m2mep@??0SparseMatIterator@cv@@$$FQEAA@AEBV01@@Z
PUBLIC	__mep@??0SparseMatIterator@cv@@$$FQEAA@AEBV01@@Z
;	COMDAT __mep@??0SparseMatIterator@cv@@$$FQEAA@AEBV01@@Z
data	SEGMENT
__mep@??0SparseMatIterator@cv@@$$FQEAA@AEBV01@@Z TOKEN 0A000128
data	ENDS
;	COMDAT __m2mep@??0SparseMatIterator@cv@@$$FQEAA@AEBV01@@Z
data	SEGMENT
__m2mep@??0SparseMatIterator@cv@@$$FQEAA@AEBV01@@Z DD FLAT:??0SparseMatIterator@cv@@$$FQEAA@AEBV01@@Z
data	ENDS
; Function compile flags: /Ods
;	COMDAT nep
_TEXT	SEGMENT
__t2m@??0SparseMatIterator@cv@@QEAA@AEBV01@@Z PROC	; COMDAT
	jmp	SHORT $LN1@
	ud2
$LN2@:
	jmp	QWORD PTR __m2mep@??0SparseMatIterator@cv@@$$FQEAA@AEBV01@@Z
$LN1@:
	jmp	QWORD PTR __mep@??0SparseMatIterator@cv@@$$FQEAA@AEBV01@@Z
__t2m@??0SparseMatIterator@cv@@QEAA@AEBV01@@Z ENDP
_TEXT	ENDS
.global	
.global	
	.bss
.local	,4
.local	,4
; Function compile flags: /Odtp
; File C:\opencv\build\include\opencv2\core\mat.inl.hpp
	.text
	.comdat	any, ??0UMat@cv@@$$FQEAA@W4UMatUsageFlags@1@@Z
.global	??0UMat@cv@@$$FQEAA@W4UMatUsageFlags@1@@Z	; cv::UMat::UMat
??0UMat@cv@@$$FQEAA@W4UMatUsageFlags@1@@Z:		; cv::UMat::UMat
;	.proc.def	D:J(JI)

; Function Header:
; max stack depth = 3
; function size = 85 bytes
; local varsig tk = 0x0 
; Exception Information:
; 0 handlers, each consisting of filtered handlers

;	.formal.i8 0,"this$" SIG: Optional C Binding Modifier(token:0x728F041).Optional C Binding Modifier(token:0x728F043).ptr.valueType (token:0x728F046)
;	.formal.i4 1,"_usageFlags$" SIG: valueType (token:0x7243771)

;	.proc.beg

; 3536 : : flags(MAGIC_VAL), dims(0), rows(0), cols(0), allocator(0), usageFlags(_usageFlags), u(0), offset(0), size(&rows)

	ldarg.0				; this$
	ldc.i4		1124007936	; i32 0x42ff0000
	stind.i4	
	ldarg.0				; this$
	ldc.i.4		4		; i64 0x4
	conv.i8		
	add		
	ldc.i.0		0		; i32 0x0
	stind.i4	
	ldarg.0				; this$
	ldc.i.8		8		; i64 0x8
	conv.i8		
	add		
	ldc.i.0		0		; i32 0x0
	stind.i4	
	ldarg.0				; this$
	ldc.i4.s	12		; i64 0xc
	conv.i8		
	add		
	ldc.i.0		0		; i32 0x0
	stind.i4	
	ldarg.0				; this$
	ldc.i4.s	16		; i64 0x10
	conv.i8		
	add		
	ldc.i.0		0		; i64 0x0
	conv.i8		
	stind.i8	
	ldarg.0				; this$
	ldc.i4.s	24		; i64 0x18
	conv.i8		
	add		
	ldarg.1				; _usageFlags$
	stind.i4	
	ldarg.0				; this$
	ldc.i4.s	32		; i64 0x20
	conv.i8		
	add		
	ldc.i.0		0		; i64 0x0
	conv.i8		
	stind.i8	
	ldarg.0				; this$
	ldc.i4.s	40		; i64 0x28
	conv.i8		
	add		
	ldc.i.0		0		; u64 0x0
	conv.i8		
	stind.i8	
	ldarg.0				; this$
	ldc.i4.s	48		; i64 0x30
	conv.i8		
	add		
	ldarg.0				; this$
	ldc.i.8		8		; i64 0x8
	conv.i8		
	add		
	call		??0MatSize@cv@@$$FQEAA@PEAH@Z
	pop		

; 3537 : {}

	ldarg.0				; this$
	ldc.i4.s	56		; i64 0x38
	conv.i8		
	add		
	call		??0MatStep@cv@@$$FQEAA@XZ
	pop		
	ldarg.0				; this$
	ret		
 .end ??0UMat@cv@@$$FQEAA@W4UMatUsageFlags@1@@Z		; cv::UMat::UMat
;	.proc.end.i8
.global	
	.bss
.local	,4
; Function compile flags: /Odtp
; File C:\opencv\build\include\opencv2\core\mat.inl.hpp
	.text
	.comdat	any, ??0UMat@cv@@$$FQEAA@AEBV01@@Z
.global	??0UMat@cv@@$$FQEAA@AEBV01@@Z			; cv::UMat::UMat
??0UMat@cv@@$$FQEAA@AEBV01@@Z:				; cv::UMat::UMat
;	.proc.def	D:J(JJ)

; Function Header:
; max stack depth = 3
; function size = 189 bytes
; local varsig tk = 0x0 
; Exception Information:
; 0 handlers, each consisting of filtered handlers

;	.formal.i8 0,"this$" SIG: Optional C Binding Modifier(token:0x728F041).Optional C Binding Modifier(token:0x728F043).ptr.valueType (token:0x728F046)
;	.formal.i8 1,"m$" SIG: Optional C Binding Modifier(token:0x720C1D9).ptr.Optional C Binding Modifier(token:0x720C1DC).valueType (token:0x720C1DE)

;	.proc.beg

; 3586 : : flags(m.flags), dims(m.dims), rows(m.rows), cols(m.cols), allocator(m.allocator),

	ldarg.0				; this$
	ldarg.1				; m$
	ldind.i4	
	stind.i4	
	ldarg.0				; this$
	ldc.i.4		4		; i64 0x4
	conv.i8		
	add		
	ldarg.1				; m$
	ldc.i.4		4		; i64 0x4
	conv.i8		
	add		
	ldind.i4	
	stind.i4	
	ldarg.0				; this$
	ldc.i.8		8		; i64 0x8
	conv.i8		
	add		
	ldarg.1				; m$
	ldc.i.8		8		; i64 0x8
	conv.i8		
	add		
	ldind.i4	
	stind.i4	
	ldarg.0				; this$
	ldc.i4.s	12		; i64 0xc
	conv.i8		
	add		
	ldarg.1				; m$
	ldc.i4.s	12		; i64 0xc
	conv.i8		
	add		
	ldind.i4	
	stind.i4	
	ldarg.0				; this$
	ldc.i4.s	16		; i64 0x10
	conv.i8		
	add		
	ldarg.1				; m$
	ldc.i4.s	16		; i64 0x10
	conv.i8		
	add		
	ldind.i8	
	stind.i8	

; 3587 :   usageFlags(m.usageFlags), u(m.u), offset(m.offset), size(&rows)

	ldarg.0				; this$
	ldc.i4.s	24		; i64 0x18
	conv.i8		
	add		
	ldarg.1				; m$
	ldc.i4.s	24		; i64 0x18
	conv.i8		
	add		
	ldind.i4	
	stind.i4	
	ldarg.0				; this$
	ldc.i4.s	32		; i64 0x20
	conv.i8		
	add		
	ldarg.1				; m$
	ldc.i4.s	32		; i64 0x20
	conv.i8		
	add		
	ldind.i8	
	stind.i8	
	ldarg.0				; this$
	ldc.i4.s	40		; i64 0x28
	conv.i8		
	add		
	ldarg.1				; m$
	ldc.i4.s	40		; i64 0x28
	conv.i8		
	add		
	ldind.i8	
	stind.i8	
	ldarg.0				; this$
	ldc.i4.s	48		; i64 0x30
	conv.i8		
	add		
	ldarg.0				; this$
	ldc.i.8		8		; i64 0x8
	conv.i8		
	add		
	call		??0MatSize@cv@@$$FQEAA@PEAH@Z
	pop		

; 3588 : {

	ldarg.0				; this$
	ldc.i4.s	56		; i64 0x38
	conv.i8		
	add		
	call		??0MatStep@cv@@$$FQEAA@XZ
	pop		

; 3589 :     addref();

	ldarg.0				; this$
	call		?addref@UMat@cv@@$$FQEAAXXZ

; 3590 :     if( m.dims <= 2 )

	ldarg.1				; m$
	ldc.i.4		4		; i64 0x4
	conv.i8		
	add		
	ldind.i4	
	ldc.i.2		2		; i32 0x2
	bgt.s		$LN2@UMat

; 3591 :     {
; 3592 :         step[0] = m.step[0]; step[1] = m.step[1];

	ldarg.0				; this$
	ldc.i4.s	56		; i64 0x38
	conv.i8		
	add		
	ldc.i.0		0		; i32 0x0
	call		??AMatStep@cv@@$$FQEAAAEA_KH@Z
	ldarg.1				; m$
	ldc.i4.s	56		; i64 0x38
	conv.i8		
	add		
	ldc.i.0		0		; i32 0x0
	call		??AMatStep@cv@@$$FQEBAAEB_KH@Z
	ldind.i8	
	stind.i8	
	ldarg.0				; this$
	ldc.i4.s	56		; i64 0x38
	conv.i8		
	add		
	ldc.i.1		1		; i32 0x1
	call		??AMatStep@cv@@$$FQEAAAEA_KH@Z
	ldarg.1				; m$
	ldc.i4.s	56		; i64 0x38
	conv.i8		
	add		
	ldc.i.1		1		; i32 0x1
	call		??AMatStep@cv@@$$FQEBAAEB_KH@Z
	ldind.i8	
	stind.i8	

; 3593 :     }

	br.s		$LN1@UMat
$LN2@UMat:

; 3594 :     else
; 3595 :     {
; 3596 :         dims = 0;

	ldarg.0				; this$
	ldc.i.4		4		; i64 0x4
	conv.i8		
	add		
	ldc.i.0		0		; i32 0x0
	stind.i4	

; 3597 :         copySize(m);

	ldarg.0				; this$
	ldarg.1				; m$
	call		?copySize@UMat@cv@@$$FQEAAXAEBV12@@Z
$LN1@UMat:

; 3598 :     }
; 3599 : }

	ldarg.0				; this$
	ret		
 .end ??0UMat@cv@@$$FQEAA@AEBV01@@Z			; cv::UMat::UMat
;	.proc.end.i8
PUBLIC	__t2m@??0UMat@cv@@QEAA@AEBV01@@Z
PUBLIC	__m2mep@??0UMat@cv@@$$FQEAA@AEBV01@@Z
PUBLIC	__mep@??0UMat@cv@@$$FQEAA@AEBV01@@Z
;	COMDAT __mep@??0UMat@cv@@$$FQEAA@AEBV01@@Z
data	SEGMENT
__mep@??0UMat@cv@@$$FQEAA@AEBV01@@Z TOKEN 0A00012C
data	ENDS
;	COMDAT __m2mep@??0UMat@cv@@$$FQEAA@AEBV01@@Z
data	SEGMENT
__m2mep@??0UMat@cv@@$$FQEAA@AEBV01@@Z DD FLAT:??0UMat@cv@@$$FQEAA@AEBV01@@Z
data	ENDS
; Function compile flags: /Ods
;	COMDAT nep
_TEXT	SEGMENT
__t2m@??0UMat@cv@@QEAA@AEBV01@@Z PROC			; COMDAT
	jmp	SHORT $LN1@
	ud2
$LN2@:
	jmp	QWORD PTR __m2mep@??0UMat@cv@@$$FQEAA@AEBV01@@Z
$LN1@:
	jmp	QWORD PTR __mep@??0UMat@cv@@$$FQEAA@AEBV01@@Z
__t2m@??0UMat@cv@@QEAA@AEBV01@@Z ENDP
_TEXT	ENDS
.global	
.global	
	.bss
.local	,4
.local	,4
; Function compile flags: /Odtp
; File C:\opencv\build\include\opencv2\core\persistence.hpp
	.text
	.comdat	any, ??0FileNode@cv@@$$FQEAA@AEBV01@@Z
.global	??0FileNode@cv@@$$FQEAA@AEBV01@@Z		; cv::FileNode::FileNode
??0FileNode@cv@@$$FQEAA@AEBV01@@Z:			; cv::FileNode::FileNode
;	.proc.def	D:J(JJ)

; Function Header:
; max stack depth = 3
; function size = 16 bytes
; local varsig tk = 0x0 
; Exception Information:
; 0 handlers, each consisting of filtered handlers

;	.formal.i8 0,"this$" SIG: Optional C Binding Modifier(token:0x718ED71).Optional C Binding Modifier(token:0x718ED73).ptr.valueType (token:0x718ED76)
;	.formal.i8 1,"_node$" SIG: Optional C Binding Modifier(token:0x720C9E9).ptr.Optional C Binding Modifier(token:0x720C9EC).valueType (token:0x720C9EE)

;	.proc.beg

; 1325 : inline FileNode::FileNode(const FileNode& _node) : fs(_node.fs), node(_node.node) {}

	ldarg.0				; this$
	ldarg.1				; _node$
	ldind.i8	
	stind.i8	
	ldarg.0				; this$
	ldc.i.8		8		; i64 0x8
	conv.i8		
	add		
	ldarg.1				; _node$
	ldc.i.8		8		; i64 0x8
	conv.i8		
	add		
	ldind.i8	
	stind.i8	
	ldarg.0				; this$
	ret		
 .end ??0FileNode@cv@@$$FQEAA@AEBV01@@Z			; cv::FileNode::FileNode
;	.proc.end.i8
PUBLIC	__t2m@??0FileNode@cv@@QEAA@AEBV01@@Z
PUBLIC	__m2mep@??0FileNode@cv@@$$FQEAA@AEBV01@@Z
PUBLIC	__mep@??0FileNode@cv@@$$FQEAA@AEBV01@@Z
;	COMDAT __mep@??0FileNode@cv@@$$FQEAA@AEBV01@@Z
data	SEGMENT
__mep@??0FileNode@cv@@$$FQEAA@AEBV01@@Z TOKEN 0A000142
data	ENDS
;	COMDAT __m2mep@??0FileNode@cv@@$$FQEAA@AEBV01@@Z
data	SEGMENT
__m2mep@??0FileNode@cv@@$$FQEAA@AEBV01@@Z DD FLAT:??0FileNode@cv@@$$FQEAA@AEBV01@@Z
data	ENDS
; Function compile flags: /Ods
;	COMDAT nep
_TEXT	SEGMENT
__t2m@??0FileNode@cv@@QEAA@AEBV01@@Z PROC		; COMDAT
	jmp	SHORT $LN1@
	ud2
$LN2@:
	jmp	QWORD PTR __m2mep@??0FileNode@cv@@$$FQEAA@AEBV01@@Z
$LN1@:
	jmp	QWORD PTR __mep@??0FileNode@cv@@$$FQEAA@AEBV01@@Z
__t2m@??0FileNode@cv@@QEAA@AEBV01@@Z ENDP
_TEXT	ENDS
.global	
	.bss
.local	,4
; Function compile flags: /Odtp
	.text
	.comdat	any, ??1runtime_error@std@@$$FUEAA@XZ
.global	??1runtime_error@std@@$$FUEAA@XZ		; std::runtime_error::~runtime_error
??1runtime_error@std@@$$FUEAA@XZ:			; std::runtime_error::~runtime_error
;	.proc.def	D:V(J)

; Function Header:
; max stack depth = 1
; function size = 7 bytes
; local varsig tk = 0x0 
; Exception Information:
; 0 handlers, each consisting of filtered handlers

;	.formal.i8 0,"this$" SIG: Optional C Binding Modifier(token:0x7294909).Optional C Binding Modifier(token:0x729490B).ptr.valueType (token:0x729490E)

;	.proc.beg
	ldarg.0				; this$
	call		??1exception@std@@$$FUEAA@XZ
	ret		
 .end ??1runtime_error@std@@$$FUEAA@XZ			; std::runtime_error::~runtime_error
;	.proc.end.void
.global	
.global	??_R0?AVruntime_error@std@@@8			; std::runtime_error `RTTI Type Descriptor'
.global	??_R1A@?0A@EA@runtime_error@std@@8		; std::runtime_error::`RTTI Base Class Descriptor at (0,-1,0,64)'
.global	??_R2runtime_error@std@@8			; std::runtime_error::`RTTI Base Class Array'
.global	??_R3runtime_error@std@@8			; std::runtime_error::`RTTI Class Hierarchy Descriptor'
.global	??_R4runtime_error@std@@6B@			; std::runtime_error::`RTTI Complete Object Locator'
.global	??_7runtime_error@std@@6B@			; std::runtime_error::`vftable'
	.bss
.local	,4
	.data
	.comdat	largest, ??_7runtime_error@std@@6B@

??_7runtime_error@std@@6B@:				; std::runtime_error::`vftable'
	DQ	??_R4runtime_error@std@@6B@
	DQ	??_Eruntime_error@std@@UEAAPEAXI@Z
	DQ	?what@exception@std@@UEBAPEBDXZ
	.rdataseg	.rdata$r
	.comdat	any, ??_R4runtime_error@std@@6B@

??_R4runtime_error@std@@6B@:				; std::runtime_error::`RTTI Complete Object Locator'
	.word	0x1
	.word	0x0
	.word	0x0 DD imagerel ??_R0?AVruntime_error@std@@@8 DD imagerel ??_R3runtime_error@std@@8 DD imagerel ??_R4runtime_error@std@@6B@
	.rdataseg	.rdata$r
	.comdat	any, ??_R3runtime_error@std@@8

??_R3runtime_error@std@@8:				; std::runtime_error::`RTTI Class Hierarchy Descriptor'
	.word	0x0
	.word	0x0
	.word	0x2 DD imagerel ??_R2runtime_error@std@@8
	.rdataseg	.rdata$r
	.comdat	any, ??_R2runtime_error@std@@8

??_R2runtime_error@std@@8:				; std::runtime_error::`RTTI Base Class Array' DD imagerel ??_R1A@?0A@EA@runtime_error@std@@8 DD imagerel ??_R1A@?0A@EA@exception@std@@8
	.space	3
	.rdataseg	.rdata$r
	.comdat	any, ??_R1A@?0A@EA@runtime_error@std@@8

??_R1A@?0A@EA@runtime_error@std@@8:			; std::runtime_error::`RTTI Base Class Descriptor at (0,-1,0,64)' DD imagerel ??_R0?AVruntime_error@std@@@8
	.word	0x1
	.word	0x0
	.word	0xffffffff
	.word	0x0
	.word	0x40 DD imagerel ??_R3runtime_error@std@@8
	.dataseg	.data$r
	.comdat	any, ??_R0?AVruntime_error@std@@@8

??_R0?AVruntime_error@std@@@8:				; std::runtime_error `RTTI Type Descriptor'
	DQ	??_7type_info@@6B@
	.double	0x0000000000000000
	.ascii	".?AVruntime_error@std@@\000"
; Function compile flags: /Odtp
	.text
	.comdat	any, ??0runtime_error@std@@$$FQEAA@AEBV01@@Z
.global	??0runtime_error@std@@$$FQEAA@AEBV01@@Z		; std::runtime_error::runtime_error
??0runtime_error@std@@$$FQEAA@AEBV01@@Z:		; std::runtime_error::runtime_error
;	.proc.def	D:J(JJ)

; Function Header:
; max stack depth = 2
; function size = 32 bytes
; local varsig tk = 0x0 
; Exception Information:
; 1 handlers, each consisting of filtered handlers

;	.formal.i8 0,"this$" SIG: Optional C Binding Modifier(token:0x7294909).Optional C Binding Modifier(token:0x729490B).ptr.valueType (token:0x729490E)
;	.formal.i8 1,"__that$" SIG: Optional C Binding Modifier(token:0x718C5E1).ptr.Optional C Binding Modifier(token:0x718C5E4).valueType (token:0x718C5E6)

;	.proc.beg
	ldarg.0				; this$
	ldarg.1				; __that$
	call		??0exception@std@@$$FQEAA@AEBV01@@Z
	pop		
$LN4@runtime_er:
	ldarg.0				; this$
	ldsflda		??_7runtime_error@std@@6B@
	stind.i8	
	leave.s		$LN5@runtime_er
$LN6@runtime_er:
	ldftn		??1exception@std@@$$FUEAA@XZ
	ldarg.0				; this$
	call		?___CxxCallUnwindDtor@@$$J0YMXP6MXPEAX@Z0@Z
	endfinally	
$LN5@runtime_er:
	ldarg.0				; this$
	ret		
 .end ??0runtime_error@std@@$$FQEAA@AEBV01@@Z		; std::runtime_error::runtime_error
;	.proc.end.i8
PUBLIC	__t2m@??0runtime_error@std@@QEAA@AEBV01@@Z
PUBLIC	__m2mep@??0runtime_error@std@@$$FQEAA@AEBV01@@Z
PUBLIC	__mep@??0runtime_error@std@@$$FQEAA@AEBV01@@Z
;	COMDAT __mep@??0runtime_error@std@@$$FQEAA@AEBV01@@Z
data	SEGMENT
__mep@??0runtime_error@std@@$$FQEAA@AEBV01@@Z TOKEN 0A00016C
data	ENDS
;	COMDAT __m2mep@??0runtime_error@std@@$$FQEAA@AEBV01@@Z
data	SEGMENT
__m2mep@??0runtime_error@std@@$$FQEAA@AEBV01@@Z DD FLAT:??0runtime_error@std@@$$FQEAA@AEBV01@@Z
data	ENDS
; Function compile flags: /Ods
;	COMDAT nep
_TEXT	SEGMENT
__t2m@??0runtime_error@std@@QEAA@AEBV01@@Z PROC		; COMDAT
	jmp	SHORT $LN1@
	ud2
	jmp	QWORD PTR __m2mep@??0runtime_error@std@@$$FQEAA@AEBV01@@Z
$LN1@:
	jmp	QWORD PTR __mep@??0runtime_error@std@@$$FQEAA@AEBV01@@Z
__t2m@??0runtime_error@std@@QEAA@AEBV01@@Z ENDP
_TEXT	ENDS
.global	
.global	
.global	??_R0?AVrange_error@std@@@8			; std::range_error `RTTI Type Descriptor'
.global	??_R1A@?0A@EA@range_error@std@@8		; std::range_error::`RTTI Base Class Descriptor at (0,-1,0,64)'
.global	??_R2range_error@std@@8				; std::range_error::`RTTI Base Class Array'
.global	??_R3range_error@std@@8				; std::range_error::`RTTI Class Hierarchy Descriptor'
.global	??_R4range_error@std@@6B@			; std::range_error::`RTTI Complete Object Locator'
.global	??_7range_error@std@@6B@			; std::range_error::`vftable'
	.bss
.local	,4
.local	,4
	.data
	.comdat	largest, ??_7range_error@std@@6B@

??_7range_error@std@@6B@:				; std::range_error::`vftable'
	DQ	??_R4range_error@std@@6B@
	DQ	??_Erange_error@std@@UEAAPEAXI@Z
	DQ	?what@exception@std@@UEBAPEBDXZ
	.rdataseg	.rdata$r
	.comdat	any, ??_R4range_error@std@@6B@

??_R4range_error@std@@6B@:				; std::range_error::`RTTI Complete Object Locator'
	.word	0x1
	.word	0x0
	.word	0x0 DD imagerel ??_R0?AVrange_error@std@@@8 DD imagerel ??_R3range_error@std@@8 DD imagerel ??_R4range_error@std@@6B@
	.rdataseg	.rdata$r
	.comdat	any, ??_R3range_error@std@@8

??_R3range_error@std@@8:				; std::range_error::`RTTI Class Hierarchy Descriptor'
	.word	0x0
	.word	0x0
	.word	0x3 DD imagerel ??_R2range_error@std@@8
	.rdataseg	.rdata$r
	.comdat	any, ??_R2range_error@std@@8

??_R2range_error@std@@8:				; std::range_error::`RTTI Base Class Array' DD imagerel ??_R1A@?0A@EA@range_error@std@@8 DD imagerel ??_R1A@?0A@EA@runtime_error@std@@8 DD imagerel ??_R1A@?0A@EA@exception@std@@8
	.space	3
	.rdataseg	.rdata$r
	.comdat	any, ??_R1A@?0A@EA@range_error@std@@8

??_R1A@?0A@EA@range_error@std@@8:			; std::range_error::`RTTI Base Class Descriptor at (0,-1,0,64)' DD imagerel ??_R0?AVrange_error@std@@@8
	.word	0x2
	.word	0x0
	.word	0xffffffff
	.word	0x0
	.word	0x40 DD imagerel ??_R3range_error@std@@8
	.dataseg	.data$r
	.comdat	any, ??_R0?AVrange_error@std@@@8

??_R0?AVrange_error@std@@@8:				; std::range_error `RTTI Type Descriptor'
	DQ	??_7type_info@@6B@
	.double	0x0000000000000000
	.ascii	".?AVrange_error@std@@\000"
; Function compile flags: /Odtp
	.text
	.comdat	any, ??0range_error@std@@$$FQEAA@AEBV01@@Z
.global	??0range_error@std@@$$FQEAA@AEBV01@@Z		; std::range_error::range_error
??0range_error@std@@$$FQEAA@AEBV01@@Z:			; std::range_error::range_error
;	.proc.def	D:J(JJ)

; Function Header:
; max stack depth = 2
; function size = 32 bytes
; local varsig tk = 0x0 
; Exception Information:
; 1 handlers, each consisting of filtered handlers

;	.formal.i8 0,"this$" SIG: Optional C Binding Modifier(token:0x72276A1).Optional C Binding Modifier(token:0x72276A3).ptr.valueType (token:0x72276A6)
;	.formal.i8 1,"__that$" SIG: Optional C Binding Modifier(token:0x72A3F09).ptr.Optional C Binding Modifier(token:0x72A3F0C).valueType (token:0x72A3F0E)

;	.proc.beg
	ldarg.0				; this$
	ldarg.1				; __that$
	call		??0runtime_error@std@@$$FQEAA@AEBV01@@Z
	pop		
$LN4@range_erro:
	ldarg.0				; this$
	ldsflda		??_7range_error@std@@6B@
	stind.i8	
	leave.s		$LN5@range_erro
$LN6@range_erro:
	ldftn		??1runtime_error@std@@$$FUEAA@XZ
	ldarg.0				; this$
	call		?___CxxCallUnwindDtor@@$$J0YMXP6MXPEAX@Z0@Z
	endfinally	
$LN5@range_erro:
	ldarg.0				; this$
	ret		
 .end ??0range_error@std@@$$FQEAA@AEBV01@@Z		; std::range_error::range_error
;	.proc.end.i8
PUBLIC	__t2m@??0range_error@std@@QEAA@AEBV01@@Z
PUBLIC	__m2mep@??0range_error@std@@$$FQEAA@AEBV01@@Z
PUBLIC	__mep@??0range_error@std@@$$FQEAA@AEBV01@@Z
;	COMDAT __mep@??0range_error@std@@$$FQEAA@AEBV01@@Z
data	SEGMENT
__mep@??0range_error@std@@$$FQEAA@AEBV01@@Z TOKEN 0A00016B
data	ENDS
;	COMDAT __m2mep@??0range_error@std@@$$FQEAA@AEBV01@@Z
data	SEGMENT
__m2mep@??0range_error@std@@$$FQEAA@AEBV01@@Z DD FLAT:??0range_error@std@@$$FQEAA@AEBV01@@Z
data	ENDS
; Function compile flags: /Ods
;	COMDAT nep
_TEXT	SEGMENT
__t2m@??0range_error@std@@QEAA@AEBV01@@Z PROC		; COMDAT
	jmp	SHORT $LN1@
	ud2
	jmp	QWORD PTR __m2mep@??0range_error@std@@$$FQEAA@AEBV01@@Z
$LN1@:
	jmp	QWORD PTR __mep@??0range_error@std@@$$FQEAA@AEBV01@@Z
__t2m@??0range_error@std@@QEAA@AEBV01@@Z ENDP
_TEXT	ENDS
.global	
	.bss
.local	,4
; Function compile flags: /Odtp
	.text
	.comdat	any, ??1_System_error@std@@$$FUEAA@XZ
.global	??1_System_error@std@@$$FUEAA@XZ		; std::_System_error::~_System_error
??1_System_error@std@@$$FUEAA@XZ:			; std::_System_error::~_System_error
;	.proc.def	D:V(J)

; Function Header:
; max stack depth = 1
; function size = 7 bytes
; local varsig tk = 0x0 
; Exception Information:
; 0 handlers, each consisting of filtered handlers

;	.formal.i8 0,"this$" SIG: Optional C Binding Modifier(token:0x72D9221).Optional C Binding Modifier(token:0x72D9223).ptr.valueType (token:0x72D9226)

;	.proc.beg
	ldarg.0				; this$
	call		??1runtime_error@std@@$$FUEAA@XZ
	ret		
 .end ??1_System_error@std@@$$FUEAA@XZ			; std::_System_error::~_System_error
;	.proc.end.void
.global	
	.bss
.local	,4
; Function compile flags: /Odtp
	.text
	.comdat	any, ??1system_error@std@@$$FUEAA@XZ
.global	??1system_error@std@@$$FUEAA@XZ			; std::system_error::~system_error
??1system_error@std@@$$FUEAA@XZ:			; std::system_error::~system_error
;	.proc.def	D:V(J)

; Function Header:
; max stack depth = 1
; function size = 7 bytes
; local varsig tk = 0x0 
; Exception Information:
; 0 handlers, each consisting of filtered handlers

;	.formal.i8 0,"this$" SIG: Optional C Binding Modifier(token:0x72D0CC1).Optional C Binding Modifier(token:0x72D0CC3).ptr.valueType (token:0x72D0CC6)

;	.proc.beg
	ldarg.0				; this$
	call		??1_System_error@std@@$$FUEAA@XZ
	ret		
 .end ??1system_error@std@@$$FUEAA@XZ			; std::system_error::~system_error
;	.proc.end.void
.global	
.global	??_R0?AV_System_error@std@@@8			; std::_System_error `RTTI Type Descriptor'
.global	??_R1A@?0A@EA@_System_error@std@@8		; std::_System_error::`RTTI Base Class Descriptor at (0,-1,0,64)'
.global	??_R2_System_error@std@@8			; std::_System_error::`RTTI Base Class Array'
.global	??_R3_System_error@std@@8			; std::_System_error::`RTTI Class Hierarchy Descriptor'
.global	??_R4_System_error@std@@6B@			; std::_System_error::`RTTI Complete Object Locator'
.global	??_7_System_error@std@@6B@			; std::_System_error::`vftable'
	.bss
.local	,4
	.data
	.comdat	largest, ??_7_System_error@std@@6B@

??_7_System_error@std@@6B@:				; std::_System_error::`vftable'
	DQ	??_R4_System_error@std@@6B@
	DQ	??_E_System_error@std@@UEAAPEAXI@Z
	DQ	?what@exception@std@@UEBAPEBDXZ
	.rdataseg	.rdata$r
	.comdat	any, ??_R4_System_error@std@@6B@

??_R4_System_error@std@@6B@:				; std::_System_error::`RTTI Complete Object Locator'
	.word	0x1
	.word	0x0
	.word	0x0 DD imagerel ??_R0?AV_System_error@std@@@8 DD imagerel ??_R3_System_error@std@@8 DD imagerel ??_R4_System_error@std@@6B@
	.rdataseg	.rdata$r
	.comdat	any, ??_R3_System_error@std@@8

??_R3_System_error@std@@8:				; std::_System_error::`RTTI Class Hierarchy Descriptor'
	.word	0x0
	.word	0x0
	.word	0x3 DD imagerel ??_R2_System_error@std@@8
	.rdataseg	.rdata$r
	.comdat	any, ??_R2_System_error@std@@8

??_R2_System_error@std@@8:				; std::_System_error::`RTTI Base Class Array' DD imagerel ??_R1A@?0A@EA@_System_error@std@@8 DD imagerel ??_R1A@?0A@EA@runtime_error@std@@8 DD imagerel ??_R1A@?0A@EA@exception@std@@8
	.space	3
	.rdataseg	.rdata$r
	.comdat	any, ??_R1A@?0A@EA@_System_error@std@@8

??_R1A@?0A@EA@_System_error@std@@8:			; std::_System_error::`RTTI Base Class Descriptor at (0,-1,0,64)' DD imagerel ??_R0?AV_System_error@std@@@8
	.word	0x2
	.word	0x0
	.word	0xffffffff
	.word	0x0
	.word	0x40 DD imagerel ??_R3_System_error@std@@8
	.dataseg	.data$r
	.comdat	any, ??_R0?AV_System_error@std@@@8

??_R0?AV_System_error@std@@@8:				; std::_System_error `RTTI Type Descriptor'
	DQ	??_7type_info@@6B@
	.double	0x0000000000000000
	.ascii	".?AV_System_error@std@@\000"
; Function compile flags: /Odtp
	.text
	.comdat	any, ??0_System_error@std@@$$FQEAA@AEBV01@@Z
.global	??0_System_error@std@@$$FQEAA@AEBV01@@Z		; std::_System_error::_System_error
??0_System_error@std@@$$FQEAA@AEBV01@@Z:		; std::_System_error::_System_error
;	.proc.def	D:J(JJ)

; Function Header:
; max stack depth = 3
; function size = 46 bytes
; local varsig tk = 0x0 
; Exception Information:
; 1 handlers, each consisting of filtered handlers

;	.formal.i8 0,"this$" SIG: Optional C Binding Modifier(token:0x72D9221).Optional C Binding Modifier(token:0x72D9223).ptr.valueType (token:0x72D9226)
;	.formal.i8 1,"__that$" SIG: Optional C Binding Modifier(token:0x71E9D29).ptr.Optional C Binding Modifier(token:0x71E9D2C).valueType (token:0x71E9D2E)

;	.proc.beg
	ldarg.0				; this$
	ldarg.1				; __that$
	call		??0runtime_error@std@@$$FQEAA@AEBV01@@Z
	pop		
$LN4@System_err:
	ldarg.0				; this$
	ldsflda		??_7_System_error@std@@6B@
	stind.i8	
	ldarg.0				; this$
	ldc.i4.s	24		; i64 0x18
	conv.i8		
	add		
	ldarg.1				; __that$
	ldc.i4.s	24		; i64 0x18
	conv.i8		
	add		
	ldc.i4.s	16		; u32 0x10
	cpblk		
	leave.s		$LN5@System_err
$LN6@System_err:
	ldftn		??1runtime_error@std@@$$FUEAA@XZ
	ldarg.0				; this$
	call		?___CxxCallUnwindDtor@@$$J0YMXP6MXPEAX@Z0@Z
	endfinally	
$LN5@System_err:
	ldarg.0				; this$
	ret		
 .end ??0_System_error@std@@$$FQEAA@AEBV01@@Z		; std::_System_error::_System_error
;	.proc.end.i8
PUBLIC	__t2m@??0_System_error@std@@QEAA@AEBV01@@Z
PUBLIC	__m2mep@??0_System_error@std@@$$FQEAA@AEBV01@@Z
PUBLIC	__mep@??0_System_error@std@@$$FQEAA@AEBV01@@Z
;	COMDAT __mep@??0_System_error@std@@$$FQEAA@AEBV01@@Z
data	SEGMENT
__mep@??0_System_error@std@@$$FQEAA@AEBV01@@Z TOKEN 0A000192
data	ENDS
;	COMDAT __m2mep@??0_System_error@std@@$$FQEAA@AEBV01@@Z
data	SEGMENT
__m2mep@??0_System_error@std@@$$FQEAA@AEBV01@@Z DD FLAT:??0_System_error@std@@$$FQEAA@AEBV01@@Z
data	ENDS
; Function compile flags: /Ods
;	COMDAT nep
_TEXT	SEGMENT
__t2m@??0_System_error@std@@QEAA@AEBV01@@Z PROC		; COMDAT
	jmp	SHORT $LN1@
	ud2
	jmp	QWORD PTR __m2mep@??0_System_error@std@@$$FQEAA@AEBV01@@Z
$LN1@:
	jmp	QWORD PTR __mep@??0_System_error@std@@$$FQEAA@AEBV01@@Z
__t2m@??0_System_error@std@@QEAA@AEBV01@@Z ENDP
_TEXT	ENDS
.global	
.global	??_R0?AVsystem_error@std@@@8			; std::system_error `RTTI Type Descriptor'
.global	??_R1A@?0A@EA@system_error@std@@8		; std::system_error::`RTTI Base Class Descriptor at (0,-1,0,64)'
.global	??_R2system_error@std@@8			; std::system_error::`RTTI Base Class Array'
.global	??_R3system_error@std@@8			; std::system_error::`RTTI Class Hierarchy Descriptor'
.global	??_R4system_error@std@@6B@			; std::system_error::`RTTI Complete Object Locator'
.global	??_7system_error@std@@6B@			; std::system_error::`vftable'
	.bss
.local	,4
	.data
	.comdat	largest, ??_7system_error@std@@6B@

??_7system_error@std@@6B@:				; std::system_error::`vftable'
	DQ	??_R4system_error@std@@6B@
	DQ	??_Esystem_error@std@@UEAAPEAXI@Z
	DQ	?what@exception@std@@UEBAPEBDXZ
	.rdataseg	.rdata$r
	.comdat	any, ??_R4system_error@std@@6B@

??_R4system_error@std@@6B@:				; std::system_error::`RTTI Complete Object Locator'
	.word	0x1
	.word	0x0
	.word	0x0 DD imagerel ??_R0?AVsystem_error@std@@@8 DD imagerel ??_R3system_error@std@@8 DD imagerel ??_R4system_error@std@@6B@
	.rdataseg	.rdata$r
	.comdat	any, ??_R3system_error@std@@8

??_R3system_error@std@@8:				; std::system_error::`RTTI Class Hierarchy Descriptor'
	.word	0x0
	.word	0x0
	.word	0x4 DD imagerel ??_R2system_error@std@@8
	.rdataseg	.rdata$r
	.comdat	any, ??_R2system_error@std@@8

??_R2system_error@std@@8:				; std::system_error::`RTTI Base Class Array' DD imagerel ??_R1A@?0A@EA@system_error@std@@8 DD imagerel ??_R1A@?0A@EA@_System_error@std@@8 DD imagerel ??_R1A@?0A@EA@runtime_error@std@@8 DD imagerel ??_R1A@?0A@EA@exception@std@@8
	.space	3
	.rdataseg	.rdata$r
	.comdat	any, ??_R1A@?0A@EA@system_error@std@@8

??_R1A@?0A@EA@system_error@std@@8:			; std::system_error::`RTTI Base Class Descriptor at (0,-1,0,64)' DD imagerel ??_R0?AVsystem_error@std@@@8
	.word	0x3
	.word	0x0
	.word	0xffffffff
	.word	0x0
	.word	0x40 DD imagerel ??_R3system_error@std@@8
	.dataseg	.data$r
	.comdat	any, ??_R0?AVsystem_error@std@@@8

??_R0?AVsystem_error@std@@@8:				; std::system_error `RTTI Type Descriptor'
	DQ	??_7type_info@@6B@
	.double	0x0000000000000000
	.ascii	".?AVsystem_error@std@@\000"
; Function compile flags: /Odtp
	.text
	.comdat	any, ??0system_error@std@@$$FQEAA@AEBV01@@Z
.global	??0system_error@std@@$$FQEAA@AEBV01@@Z		; std::system_error::system_error
??0system_error@std@@$$FQEAA@AEBV01@@Z:			; std::system_error::system_error
;	.proc.def	D:J(JJ)

; Function Header:
; max stack depth = 2
; function size = 32 bytes
; local varsig tk = 0x0 
; Exception Information:
; 1 handlers, each consisting of filtered handlers

;	.formal.i8 0,"this$" SIG: Optional C Binding Modifier(token:0x72D0CC1).Optional C Binding Modifier(token:0x72D0CC3).ptr.valueType (token:0x72D0CC6)
;	.formal.i8 1,"__that$" SIG: Optional C Binding Modifier(token:0x724A779).ptr.Optional C Binding Modifier(token:0x724A77C).valueType (token:0x724A77E)

;	.proc.beg
	ldarg.0				; this$
	ldarg.1				; __that$
	call		??0_System_error@std@@$$FQEAA@AEBV01@@Z
	pop		
$LN4@system_err:
	ldarg.0				; this$
	ldsflda		??_7system_error@std@@6B@
	stind.i8	
	leave.s		$LN5@system_err
$LN6@system_err:
	ldftn		??1_System_error@std@@$$FUEAA@XZ
	ldarg.0				; this$
	call		?___CxxCallUnwindDtor@@$$J0YMXP6MXPEAX@Z0@Z
	endfinally	
$LN5@system_err:
	ldarg.0				; this$
	ret		
 .end ??0system_error@std@@$$FQEAA@AEBV01@@Z		; std::system_error::system_error
;	.proc.end.i8
PUBLIC	__t2m@??0system_error@std@@QEAA@AEBV01@@Z
PUBLIC	__m2mep@??0system_error@std@@$$FQEAA@AEBV01@@Z
PUBLIC	__mep@??0system_error@std@@$$FQEAA@AEBV01@@Z
;	COMDAT __mep@??0system_error@std@@$$FQEAA@AEBV01@@Z
data	SEGMENT
__mep@??0system_error@std@@$$FQEAA@AEBV01@@Z TOKEN 0A000191
data	ENDS
;	COMDAT __m2mep@??0system_error@std@@$$FQEAA@AEBV01@@Z
data	SEGMENT
__m2mep@??0system_error@std@@$$FQEAA@AEBV01@@Z DD FLAT:??0system_error@std@@$$FQEAA@AEBV01@@Z
data	ENDS
; Function compile flags: /Ods
;	COMDAT nep
_TEXT	SEGMENT
__t2m@??0system_error@std@@QEAA@AEBV01@@Z PROC		; COMDAT
	jmp	SHORT $LN1@
	ud2
	jmp	QWORD PTR __m2mep@??0system_error@std@@$$FQEAA@AEBV01@@Z
$LN1@:
	jmp	QWORD PTR __mep@??0system_error@std@@$$FQEAA@AEBV01@@Z
__t2m@??0system_error@std@@QEAA@AEBV01@@Z ENDP
_TEXT	ENDS
.global	
.global	
.global	??_R0?AVbad_cast@std@@@8			; std::bad_cast `RTTI Type Descriptor'
.global	??_R1A@?0A@EA@bad_cast@std@@8			; std::bad_cast::`RTTI Base Class Descriptor at (0,-1,0,64)'
.global	??_R2bad_cast@std@@8				; std::bad_cast::`RTTI Base Class Array'
.global	??_R3bad_cast@std@@8				; std::bad_cast::`RTTI Class Hierarchy Descriptor'
.global	??_R4bad_cast@std@@6B@				; std::bad_cast::`RTTI Complete Object Locator'
.global	??_7bad_cast@std@@6B@				; std::bad_cast::`vftable'
	.bss
.local	,4
.local	,4
	.data
	.comdat	largest, ??_7bad_cast@std@@6B@

??_7bad_cast@std@@6B@:					; std::bad_cast::`vftable'
	DQ	??_R4bad_cast@std@@6B@
	DQ	??_Ebad_cast@std@@UEAAPEAXI@Z
	DQ	?what@exception@std@@UEBAPEBDXZ
	.rdataseg	.rdata$r
	.comdat	any, ??_R4bad_cast@std@@6B@

??_R4bad_cast@std@@6B@:					; std::bad_cast::`RTTI Complete Object Locator'
	.word	0x1
	.word	0x0
	.word	0x0 DD imagerel ??_R0?AVbad_cast@std@@@8 DD imagerel ??_R3bad_cast@std@@8 DD imagerel ??_R4bad_cast@std@@6B@
	.rdataseg	.rdata$r
	.comdat	any, ??_R3bad_cast@std@@8

??_R3bad_cast@std@@8:					; std::bad_cast::`RTTI Class Hierarchy Descriptor'
	.word	0x0
	.word	0x0
	.word	0x2 DD imagerel ??_R2bad_cast@std@@8
	.rdataseg	.rdata$r
	.comdat	any, ??_R2bad_cast@std@@8

??_R2bad_cast@std@@8:					; std::bad_cast::`RTTI Base Class Array' DD imagerel ??_R1A@?0A@EA@bad_cast@std@@8 DD imagerel ??_R1A@?0A@EA@exception@std@@8
	.space	3
	.rdataseg	.rdata$r
	.comdat	any, ??_R1A@?0A@EA@bad_cast@std@@8

??_R1A@?0A@EA@bad_cast@std@@8:				; std::bad_cast::`RTTI Base Class Descriptor at (0,-1,0,64)' DD imagerel ??_R0?AVbad_cast@std@@@8
	.word	0x1
	.word	0x0
	.word	0xffffffff
	.word	0x0
	.word	0x40 DD imagerel ??_R3bad_cast@std@@8
	.dataseg	.data$r
	.comdat	any, ??_R0?AVbad_cast@std@@@8

??_R0?AVbad_cast@std@@@8:				; std::bad_cast `RTTI Type Descriptor'
	DQ	??_7type_info@@6B@
	.double	0x0000000000000000
	.ascii	".?AVbad_cast@std@@\000"
; Function compile flags: /Odtp
	.text
	.comdat	any, ??0bad_cast@std@@$$FQEAA@AEBV01@@Z
.global	??0bad_cast@std@@$$FQEAA@AEBV01@@Z		; std::bad_cast::bad_cast
??0bad_cast@std@@$$FQEAA@AEBV01@@Z:			; std::bad_cast::bad_cast
;	.proc.def	D:J(JJ)

; Function Header:
; max stack depth = 2
; function size = 32 bytes
; local varsig tk = 0x0 
; Exception Information:
; 1 handlers, each consisting of filtered handlers

;	.formal.i8 0,"this$" SIG: Optional C Binding Modifier(token:0x71AE6B9).Optional C Binding Modifier(token:0x71AE6BB).ptr.valueType (token:0x71AE6BE)
;	.formal.i8 1,"__that$" SIG: Optional C Binding Modifier(token:0x71E1109).ptr.Optional C Binding Modifier(token:0x71E110C).valueType (token:0x71E110E)

;	.proc.beg
	ldarg.0				; this$
	ldarg.1				; __that$
	call		??0exception@std@@$$FQEAA@AEBV01@@Z
	pop		
$LN4@bad_cast:
	ldarg.0				; this$
	ldsflda		??_7bad_cast@std@@6B@
	stind.i8	
	leave.s		$LN5@bad_cast
$LN6@bad_cast:
	ldftn		??1exception@std@@$$FUEAA@XZ
	ldarg.0				; this$
	call		?___CxxCallUnwindDtor@@$$J0YMXP6MXPEAX@Z0@Z
	endfinally	
$LN5@bad_cast:
	ldarg.0				; this$
	ret		
 .end ??0bad_cast@std@@$$FQEAA@AEBV01@@Z		; std::bad_cast::bad_cast
;	.proc.end.i8
PUBLIC	__t2m@??0bad_cast@std@@QEAA@AEBV01@@Z
PUBLIC	__m2mep@??0bad_cast@std@@$$FQEAA@AEBV01@@Z
PUBLIC	__mep@??0bad_cast@std@@$$FQEAA@AEBV01@@Z
;	COMDAT __mep@??0bad_cast@std@@$$FQEAA@AEBV01@@Z
data	SEGMENT
__mep@??0bad_cast@std@@$$FQEAA@AEBV01@@Z TOKEN 0A0001B4
data	ENDS
;	COMDAT __m2mep@??0bad_cast@std@@$$FQEAA@AEBV01@@Z
data	SEGMENT
__m2mep@??0bad_cast@std@@$$FQEAA@AEBV01@@Z DD FLAT:??0bad_cast@std@@$$FQEAA@AEBV01@@Z
data	ENDS
; Function compile flags: /Ods
;	COMDAT nep
_TEXT	SEGMENT
__t2m@??0bad_cast@std@@QEAA@AEBV01@@Z PROC		; COMDAT
	jmp	SHORT $LN1@
	ud2
	jmp	QWORD PTR __m2mep@??0bad_cast@std@@$$FQEAA@AEBV01@@Z
$LN1@:
	jmp	QWORD PTR __mep@??0bad_cast@std@@$$FQEAA@AEBV01@@Z
__t2m@??0bad_cast@std@@QEAA@AEBV01@@Z ENDP
_TEXT	ENDS
.global	
.global	
.global	??_R0?AVbad_weak_ptr@std@@@8			; std::bad_weak_ptr `RTTI Type Descriptor'
.global	??_R1A@?0A@EA@bad_weak_ptr@std@@8		; std::bad_weak_ptr::`RTTI Base Class Descriptor at (0,-1,0,64)'
.global	??_R2bad_weak_ptr@std@@8			; std::bad_weak_ptr::`RTTI Base Class Array'
.global	??_R3bad_weak_ptr@std@@8			; std::bad_weak_ptr::`RTTI Class Hierarchy Descriptor'
.global	??_R4bad_weak_ptr@std@@6B@			; std::bad_weak_ptr::`RTTI Complete Object Locator'
.global	??_7bad_weak_ptr@std@@6B@			; std::bad_weak_ptr::`vftable'
	.bss
.local	,4
.local	,4
	.data
	.comdat	largest, ??_7bad_weak_ptr@std@@6B@

??_7bad_weak_ptr@std@@6B@:				; std::bad_weak_ptr::`vftable'
	DQ	??_R4bad_weak_ptr@std@@6B@
	DQ	??_Ebad_weak_ptr@std@@UEAAPEAXI@Z
	DQ	?what@bad_weak_ptr@std@@UEBAPEBDXZ
	.rdataseg	.rdata$r
	.comdat	any, ??_R4bad_weak_ptr@std@@6B@

??_R4bad_weak_ptr@std@@6B@:				; std::bad_weak_ptr::`RTTI Complete Object Locator'
	.word	0x1
	.word	0x0
	.word	0x0 DD imagerel ??_R0?AVbad_weak_ptr@std@@@8 DD imagerel ??_R3bad_weak_ptr@std@@8 DD imagerel ??_R4bad_weak_ptr@std@@6B@
	.rdataseg	.rdata$r
	.comdat	any, ??_R3bad_weak_ptr@std@@8

??_R3bad_weak_ptr@std@@8:				; std::bad_weak_ptr::`RTTI Class Hierarchy Descriptor'
	.word	0x0
	.word	0x0
	.word	0x2 DD imagerel ??_R2bad_weak_ptr@std@@8
	.rdataseg	.rdata$r
	.comdat	any, ??_R2bad_weak_ptr@std@@8

??_R2bad_weak_ptr@std@@8:				; std::bad_weak_ptr::`RTTI Base Class Array' DD imagerel ??_R1A@?0A@EA@bad_weak_ptr@std@@8 DD imagerel ??_R1A@?0A@EA@exception@std@@8
	.space	3
	.rdataseg	.rdata$r
	.comdat	any, ??_R1A@?0A@EA@bad_weak_ptr@std@@8

??_R1A@?0A@EA@bad_weak_ptr@std@@8:			; std::bad_weak_ptr::`RTTI Base Class Descriptor at (0,-1,0,64)' DD imagerel ??_R0?AVbad_weak_ptr@std@@@8
	.word	0x1
	.word	0x0
	.word	0xffffffff
	.word	0x0
	.word	0x40 DD imagerel ??_R3bad_weak_ptr@std@@8
	.dataseg	.data$r
	.comdat	any, ??_R0?AVbad_weak_ptr@std@@@8

??_R0?AVbad_weak_ptr@std@@@8:				; std::bad_weak_ptr `RTTI Type Descriptor'
	DQ	??_7type_info@@6B@
	.double	0x0000000000000000
	.ascii	".?AVbad_weak_ptr@std@@\000"
; Function compile flags: /Odtp
	.text
	.comdat	any, ??0bad_weak_ptr@std@@$$FQEAA@AEBV01@@Z
.global	??0bad_weak_ptr@std@@$$FQEAA@AEBV01@@Z		; std::bad_weak_ptr::bad_weak_ptr
??0bad_weak_ptr@std@@$$FQEAA@AEBV01@@Z:			; std::bad_weak_ptr::bad_weak_ptr
;	.proc.def	D:J(JJ)

; Function Header:
; max stack depth = 2
; function size = 32 bytes
; local varsig tk = 0x0 
; Exception Information:
; 1 handlers, each consisting of filtered handlers

;	.formal.i8 0,"this$" SIG: Optional C Binding Modifier(token:0x72D56C1).Optional C Binding Modifier(token:0x72D56C3).ptr.valueType (token:0x72D56C6)
;	.formal.i8 1,"__that$" SIG: Optional C Binding Modifier(token:0x7200181).ptr.Optional C Binding Modifier(token:0x7200184).valueType (token:0x7200186)

;	.proc.beg
	ldarg.0				; this$
	ldarg.1				; __that$
	call		??0exception@std@@$$FQEAA@AEBV01@@Z
	pop		
$LN4@bad_weak_p:
	ldarg.0				; this$
	ldsflda		??_7bad_weak_ptr@std@@6B@
	stind.i8	
	leave.s		$LN5@bad_weak_p
$LN6@bad_weak_p:
	ldftn		??1exception@std@@$$FUEAA@XZ
	ldarg.0				; this$
	call		?___CxxCallUnwindDtor@@$$J0YMXP6MXPEAX@Z0@Z
	endfinally	
$LN5@bad_weak_p:
	ldarg.0				; this$
	ret		
 .end ??0bad_weak_ptr@std@@$$FQEAA@AEBV01@@Z		; std::bad_weak_ptr::bad_weak_ptr
;	.proc.end.i8
PUBLIC	__t2m@??0bad_weak_ptr@std@@QEAA@AEBV01@@Z
PUBLIC	__m2mep@??0bad_weak_ptr@std@@$$FQEAA@AEBV01@@Z
PUBLIC	__mep@??0bad_weak_ptr@std@@$$FQEAA@AEBV01@@Z
;	COMDAT __mep@??0bad_weak_ptr@std@@$$FQEAA@AEBV01@@Z
data	SEGMENT
__mep@??0bad_weak_ptr@std@@$$FQEAA@AEBV01@@Z TOKEN 0A0001B9
data	ENDS
;	COMDAT __m2mep@??0bad_weak_ptr@std@@$$FQEAA@AEBV01@@Z
data	SEGMENT
__m2mep@??0bad_weak_ptr@std@@$$FQEAA@AEBV01@@Z DD FLAT:??0bad_weak_ptr@std@@$$FQEAA@AEBV01@@Z
data	ENDS
; Function compile flags: /Ods
;	COMDAT nep
_TEXT	SEGMENT
__t2m@??0bad_weak_ptr@std@@QEAA@AEBV01@@Z PROC		; COMDAT
	jmp	SHORT $LN1@
	ud2
	jmp	QWORD PTR __m2mep@??0bad_weak_ptr@std@@$$FQEAA@AEBV01@@Z
$LN1@:
	jmp	QWORD PTR __mep@??0bad_weak_ptr@std@@$$FQEAA@AEBV01@@Z
__t2m@??0bad_weak_ptr@std@@QEAA@AEBV01@@Z ENDP
_TEXT	ENDS
.global	
.global	
	.bss
.local	,4
.local	,4
.local	$SigTok$$$A8facet@locale@std@@EAAXXZ,4
; Function compile flags: /Odtp
; File C:\Program Files (x86)\Microsoft Visual Studio\2019\Enterprise\VC\Tools\MSVC\14.27.29110\include\xlocale
	.text
	.comdat	any, ??0locale@std@@$$FQEAA@AEBV01@@Z
.global	??0locale@std@@$$FQEAA@AEBV01@@Z		; std::locale::locale
??0locale@std@@$$FQEAA@AEBV01@@Z:			; std::locale::locale
;	.proc.def	D:J(JJ)

; Function Header:
; max stack depth = 3
; function size = 32 bytes
; local varsig tk = 0x0 
; Exception Information:
; 0 handlers, each consisting of filtered handlers

;	.formal.i8 0,"this$" SIG: Optional C Binding Modifier(token:0x71A72B1).Optional C Binding Modifier(token:0x71A72B3).ptr.valueType (token:0x71A72B6)
;	.formal.i8 1,"_Right$" SIG: Optional C Binding Modifier(token:0x72CEA81).ptr.Optional C Binding Modifier(token:0x72CEA84).valueType (token:0x72CEA86)

;	.proc.beg

; 267  :     locale(const locale& _Right) noexcept : _Ptr(_Right._Ptr) {

	ldarg.0				; this$
	ldc.i.8		8		; i64 0x8
	conv.i8		
	add		
	ldarg.1				; _Right$
	ldc.i.8		8		; i64 0x8
	conv.i8		
	add		
	ldind.i8	
	stind.i8	

; 268  :         _Ptr->_Incref();

	ldarg.0				; this$
	ldc.i.8		8		; i64 0x8
	conv.i8		
	add		
	ldind.i8	
	ldarg.0				; this$
	ldc.i.8		8		; i64 0x8
	conv.i8		
	add		
	ldind.i8	
	ldind.i8	
	ldc.i.8		8		; i64 0x8
	conv.i8		
	add		
	ldind.i8	
	calli		D:V(J)

; 269  :     }

	ldarg.0				; this$
	ret		
 .end ??0locale@std@@$$FQEAA@AEBV01@@Z			; std::locale::locale
;	.proc.end.i8
PUBLIC	__t2m@??0locale@std@@QEAA@AEBV01@@Z
PUBLIC	__m2mep@??0locale@std@@$$FQEAA@AEBV01@@Z
PUBLIC	__mep@??0locale@std@@$$FQEAA@AEBV01@@Z
;	COMDAT __mep@??0locale@std@@$$FQEAA@AEBV01@@Z
data	SEGMENT
__mep@??0locale@std@@$$FQEAA@AEBV01@@Z TOKEN 0A0001DE
data	ENDS
;	COMDAT __m2mep@??0locale@std@@$$FQEAA@AEBV01@@Z
data	SEGMENT
__m2mep@??0locale@std@@$$FQEAA@AEBV01@@Z DD FLAT:??0locale@std@@$$FQEAA@AEBV01@@Z
data	ENDS
; Function compile flags: /Ods
;	COMDAT nep
_TEXT	SEGMENT
__t2m@??0locale@std@@QEAA@AEBV01@@Z PROC		; COMDAT
	jmp	SHORT $LN1@
	ud2
$LN2@:
	jmp	QWORD PTR __m2mep@??0locale@std@@$$FQEAA@AEBV01@@Z
$LN1@:
	jmp	QWORD PTR __mep@??0locale@std@@$$FQEAA@AEBV01@@Z
__t2m@??0locale@std@@QEAA@AEBV01@@Z ENDP
_TEXT	ENDS
.global	
.global	
.global	
.global	??_C@_0GJ@OPFKIEFE@C?3?2Program?5Files?5?$CIx86?$CJ?2Microsof@ ; `string'
	.bss
.local	,4
.local	,4
.local	,4
.local	$T1,0
	.rdata
	.comdat	any, ??_C@_0GJ@OPFKIEFE@C?3?2Program?5Files?5?$CIx86?$CJ?2Microsof@

??_C@_0GJ@OPFKIEFE@C?3?2Program?5Files?5?$CIx86?$CJ?2Microsof@: ; `string'
	.ascii	"C:\\Program Files (x86)\\Microsoft Visual Studio\\2019\\"
	.ascii	"Enterprise\\VC\\Tools\\MSVC\\14.27.29110\\include\\xlocal"
	.ascii	"e\000"
; Function compile flags: /Odtp
; File C:\Program Files (x86)\Microsoft Visual Studio\2019\Enterprise\VC\Tools\MSVC\14.27.29110\include\xlocale
	.text
	.comdat	any, ??$_Maklocstr@_W@std@@$$FYAPEA_WPEBDPEA_WAEBU_Cvtvec@@@Z
.global	??$_Maklocstr@_W@std@@$$FYAPEA_WPEBDPEA_WAEBU_Cvtvec@@@Z ; std::_Maklocstr<wchar_t>
??$_Maklocstr@_W@std@@$$FYAPEA_WPEBDPEA_WAEBU_Cvtvec@@@Z: ; std::_Maklocstr<wchar_t>
;	.proc.def	D:J(JJJ)

; Function Header:
; max stack depth = 5
; function size = 183 bytes
; local varsig tk = 0x110000AE 
; Exception Information:
; 0 handlers, each consisting of filtered handlers

;	.formal.i8 0,"_Ptr$" SIG: ptr.Optional C Binding Modifier(token:0x7225A8A).Optional C Binding Modifier(token:0x7225A8C).i1
;	.formal.i8 2,"_Cvt$" SIG: Optional C Binding Modifier(token:0x72A0BF1).ptr.Optional C Binding Modifier(token:0x72A0BF4).valueType (token:0x72A0BF6)
;	.local.u8 0,"_Wchars$" SIG: u8
;	.local.i4 1,"_Bytes$" SIG: i4
;	.local.u8 2,"_Count$" SIG: u8
;	.local.i8 3,"_Ptrnext$" SIG: ptr.char
;	.local.i8 4,"_Ptrdest$" SIG: ptr.char
;	.local.i8 5,"_Ptr1$" SIG: ptr.Optional C Binding Modifier(token:0x7225A8A).Optional C Binding Modifier(token:0x7225A8C).i1
;	.local.u8 6,"_Count1$" SIG: u8
;	.local.i8 7,"$T2" SIG: ptr.char
;	.local.mb8   8,"_Mbst2$" SIG: valueType (token:0x7170899)
;	.local.u2 9,"_Wc$" SIG: char
;	.local.mb8   10,"_Mbst1$" SIG: valueType (token:0x7170899)

;	.proc.beg

; 582  :     // convert C string to wchar_t sequence using _Cvtvec
; 583  :     size_t _Count;
; 584  :     size_t _Count1;
; 585  :     size_t _Wchars;
; 586  :     const char* _Ptr1;
; 587  :     int _Bytes;
; 588  :     wchar_t _Wc;
; 589  :     mbstate_t _Mbst1 = {};

	ldloca.s	10		; _Mbst1$
	ldc.i.0		0		; i32 0x0
	ldc.i.8		8		; u64 0x8
	conv.i8		
	unaligned	4		; u32 0x4
	initblk		

; 590  : 
; 591  :     _Count1 = _CSTD strlen(_Ptr) + 1;

	ldarg.0				; _Ptr$
	call		?strlen@@$$J0YA_KPEBD@Z
	ldc.i.1		1		; u64 0x1
	conv.i8		
	add		
	stloc.s		6		; _Count1$

; 592  :     for (_Count = _Count1, _Wchars = 0, _Ptr1 = _Ptr; 0 < _Count; _Count -= _Bytes, _Ptr1 += _Bytes, ++_Wchars) {

	ldloc.s		6		; _Count1$
	stloc.2				; _Count$
	ldc.i.0		0		; u64 0x0
	conv.i8		
	stloc.0				; _Wchars$
	ldarg.0				; _Ptr$
	stloc.s		5		; _Ptr1$
	br.s		$LN4@Maklocstr
$LN2@Maklocstr:
	ldloc.2				; _Count$
	ldloc.1				; _Bytes$
	conv.i8		
	sub		
	stloc.2				; _Count$
	ldloc.s		5		; _Ptr1$
	ldloc.1				; _Bytes$
	conv.i8		
	add		
	stloc.s		5		; _Ptr1$
	ldloc.0				; _Wchars$
	ldc.i.1		1		; u64 0x1
	conv.i8		
	add		
	stloc.0				; _Wchars$
$LN4@Maklocstr:
	ldc.i.0		0		; u64 0x0
	conv.i8		
	ldloc.2				; _Count$
	bge.un.s	$LN3@Maklocstr

; 593  :         if ((_Bytes = _Mbrtowc(&_Wc, _Ptr1, _Count, &_Mbst1, &_Cvt)) <= 0) {

	ldloca.s	9		; _Wc$
	ldloc.s		5		; _Ptr1$
	ldloc.2				; _Count$
	ldloca.s	10		; _Mbst1$
	ldarg.2				; _Cvt$
	call		?_Mbrtowc@@$$J0YAHPEA_WPEBD_KPEAU_Mbstatet@@PEBU_Cvtvec@@@Z
	stloc.1				; _Bytes$
	ldloc.1				; _Bytes$
	ldc.i.0		0		; i32 0x0
	bgt.s		$LN8@Maklocstr

; 594  :             break;

	br.s		$LN3@Maklocstr
$LN8@Maklocstr:

; 595  :         }
; 596  :     }

	br.s		$LN2@Maklocstr
$LN3@Maklocstr:

; 597  : 
; 598  :     ++_Wchars; // count terminating nul

	ldloc.0				; _Wchars$
	ldc.i.1		1		; u64 0x1
	conv.i8		
	add		
	stloc.0				; _Wchars$

; 599  : 
; 600  :     wchar_t* _Ptrdest = static_cast<wchar_t*>(_calloc_dbg(_Wchars, sizeof(wchar_t), _CRT_BLOCK, __FILE__, __LINE__));

	ldloc.0				; _Wchars$
	ldc.i.2		2		; u64 0x2
	conv.i8		
	ldc.i.2		2		; i32 0x2
	ldsflda		??_C@_0GJ@OPFKIEFE@C?3?2Program?5Files?5?$CIx86?$CJ?2Microsof@
	ldc.i4		600		; i32 0x258
	call		?_calloc_dbg@@$$J0YAPEAX_K0HPEBDH@Z
	stloc.s		4		; _Ptrdest$

; 601  : 
; 602  :     if (!_Ptrdest) {

	ldloc.s		4		; _Ptrdest$
	brtrue.s	$LN9@Maklocstr

; 603  :         _Xbad_alloc();

	call		?_Xbad_alloc@std@@$$FYAXXZ
$LN9@Maklocstr:

; 604  :     }
; 605  : 
; 606  :     wchar_t* _Ptrnext = _Ptrdest;

	ldloc.s		4		; _Ptrdest$
	stloc.3				; _Ptrnext$

; 607  :     mbstate_t _Mbst2  = {};

	ldloca.s	8		; _Mbst2$
	ldc.i.0		0		; i32 0x0
	ldc.i.8		8		; u64 0x8
	conv.i8		
	unaligned	4		; u32 0x4
	initblk		

; 608  : 
; 609  :     for (; 0 < _Wchars; _Count -= _Bytes, _Ptr += _Bytes, --_Wchars, ++_Ptrnext) {

	br.s		$LN7@Maklocstr
$LN5@Maklocstr:
	ldloc.2				; _Count$
	ldloc.1				; _Bytes$
	conv.i8		
	sub		
	stloc.2				; _Count$
	ldarg.0				; _Ptr$
	ldloc.1				; _Bytes$
	conv.i8		
	add		
	starg.s		0		; _Ptr$
	ldloc.0				; _Wchars$
	ldc.i.1		1		; u64 0x1
	conv.i8		
	sub		
	stloc.0				; _Wchars$
	ldloc.3				; _Ptrnext$
	ldc.i.2		2		; i64 0x2
	conv.i8		
	add		
	stloc.3				; _Ptrnext$
$LN7@Maklocstr:
	ldc.i.0		0		; u64 0x0
	conv.i8		
	ldloc.0				; _Wchars$
	bge.un.s	$LN6@Maklocstr

; 610  :         if ((_Bytes = _Mbrtowc(_Ptrnext, _Ptr, _Count1, &_Mbst2, &_Cvt)) <= 0) {

	ldloc.3				; _Ptrnext$
	ldarg.0				; _Ptr$
	ldloc.s		6		; _Count1$
	ldloca.s	8		; _Mbst2$
	ldarg.2				; _Cvt$
	call		?_Mbrtowc@@$$J0YAHPEA_WPEBD_KPEAU_Mbstatet@@PEBU_Cvtvec@@@Z
	stloc.1				; _Bytes$
	ldloc.1				; _Bytes$
	ldc.i.0		0		; i32 0x0
	bgt.s		$LN10@Maklocstr

; 611  :             break;

	br.s		$LN6@Maklocstr
$LN10@Maklocstr:

; 612  :         }
; 613  :     }

	br.s		$LN5@Maklocstr
$LN6@Maklocstr:

; 614  : 
; 615  :     *_Ptrnext = L'\0';

	ldloc.3				; _Ptrnext$
	ldc.i.0		0		; u16 0x0
	stind.i2	

; 616  : 
; 617  :     return _Ptrdest;

	ldloc.s		4		; _Ptrdest$
	stloc.s		7		; $T2

; 618  : }

	ldloc.s		7		; $T2
	ret		
 .end ??$_Maklocstr@_W@std@@$$FYAPEA_WPEBDPEA_WAEBU_Cvtvec@@@Z ; std::_Maklocstr<wchar_t>
;	.proc.end.i8
.global	
.global	
.global	??_R0?AVfailure@ios_base@std@@@8		; std::ios_base::failure `RTTI Type Descriptor'
.global	??_R1A@?0A@EA@failure@ios_base@std@@8		; std::ios_base::failure::`RTTI Base Class Descriptor at (0,-1,0,64)'
.global	??_R2failure@ios_base@std@@8			; std::ios_base::failure::`RTTI Base Class Array'
.global	??_R3failure@ios_base@std@@8			; std::ios_base::failure::`RTTI Class Hierarchy Descriptor'
.global	??_R4failure@ios_base@std@@6B@			; std::ios_base::failure::`RTTI Complete Object Locator'
.global	??_7failure@ios_base@std@@6B@			; std::ios_base::failure::`vftable'
	.bss
.local	,4
.local	,4
	.data
	.comdat	largest, ??_7failure@ios_base@std@@6B@

??_7failure@ios_base@std@@6B@:				; std::ios_base::failure::`vftable'
	DQ	??_R4failure@ios_base@std@@6B@
	DQ	??_Efailure@ios_base@std@@UEAAPEAXI@Z
	DQ	?what@exception@std@@UEBAPEBDXZ
	.rdataseg	.rdata$r
	.comdat	any, ??_R4failure@ios_base@std@@6B@

??_R4failure@ios_base@std@@6B@:				; std::ios_base::failure::`RTTI Complete Object Locator'
	.word	0x1
	.word	0x0
	.word	0x0 DD imagerel ??_R0?AVfailure@ios_base@std@@@8 DD imagerel ??_R3failure@ios_base@std@@8 DD imagerel ??_R4failure@ios_base@std@@6B@
	.rdataseg	.rdata$r
	.comdat	any, ??_R3failure@ios_base@std@@8

??_R3failure@ios_base@std@@8:				; std::ios_base::failure::`RTTI Class Hierarchy Descriptor'
	.word	0x0
	.word	0x0
	.word	0x5 DD imagerel ??_R2failure@ios_base@std@@8
	.rdataseg	.rdata$r
	.comdat	any, ??_R2failure@ios_base@std@@8

??_R2failure@ios_base@std@@8:				; std::ios_base::failure::`RTTI Base Class Array' DD imagerel ??_R1A@?0A@EA@failure@ios_base@std@@8 DD imagerel ??_R1A@?0A@EA@system_error@std@@8 DD imagerel ??_R1A@?0A@EA@_System_error@std@@8 DD imagerel ??_R1A@?0A@EA@runtime_error@std@@8 DD imagerel ??_R1A@?0A@EA@exception@std@@8
	.space	3
	.rdataseg	.rdata$r
	.comdat	any, ??_R1A@?0A@EA@failure@ios_base@std@@8

??_R1A@?0A@EA@failure@ios_base@std@@8:			; std::ios_base::failure::`RTTI Base Class Descriptor at (0,-1,0,64)' DD imagerel ??_R0?AVfailure@ios_base@std@@@8
	.word	0x4
	.word	0x0
	.word	0xffffffff
	.word	0x0
	.word	0x40 DD imagerel ??_R3failure@ios_base@std@@8
	.dataseg	.data$r
	.comdat	any, ??_R0?AVfailure@ios_base@std@@@8

??_R0?AVfailure@ios_base@std@@@8:			; std::ios_base::failure `RTTI Type Descriptor'
	DQ	??_7type_info@@6B@
	.double	0x0000000000000000
	.ascii	".?AVfailure@ios_base@std@@\000"
; Function compile flags: /Odtp
	.text
	.comdat	any, ??0failure@ios_base@std@@$$FQEAA@AEBV012@@Z
.global	??0failure@ios_base@std@@$$FQEAA@AEBV012@@Z	; std::ios_base::failure::failure
??0failure@ios_base@std@@$$FQEAA@AEBV012@@Z:		; std::ios_base::failure::failure
;	.proc.def	D:J(JJ)

; Function Header:
; max stack depth = 2
; function size = 32 bytes
; local varsig tk = 0x0 
; Exception Information:
; 1 handlers, each consisting of filtered handlers

;	.formal.i8 0,"this$" SIG: Optional C Binding Modifier(token:0x721B0D1).Optional C Binding Modifier(token:0x721B0D3).ptr.valueType (token:0x721B0D6)
;	.formal.i8 1,"__that$" SIG: Optional C Binding Modifier(token:0x717FD29).ptr.Optional C Binding Modifier(token:0x717FD2C).valueType (token:0x717FD2E)

;	.proc.beg
	ldarg.0				; this$
	ldarg.1				; __that$
	call		??0system_error@std@@$$FQEAA@AEBV01@@Z
	pop		
$LN4@failure:
	ldarg.0				; this$
	ldsflda		??_7failure@ios_base@std@@6B@
	stind.i8	
	leave.s		$LN5@failure
$LN6@failure:
	ldftn		??1system_error@std@@$$FUEAA@XZ
	ldarg.0				; this$
	call		?___CxxCallUnwindDtor@@$$J0YMXP6MXPEAX@Z0@Z
	endfinally	
$LN5@failure:
	ldarg.0				; this$
	ret		
 .end ??0failure@ios_base@std@@$$FQEAA@AEBV012@@Z	; std::ios_base::failure::failure
;	.proc.end.i8
PUBLIC	__t2m@??0failure@ios_base@std@@QEAA@AEBV012@@Z
PUBLIC	__m2mep@??0failure@ios_base@std@@$$FQEAA@AEBV012@@Z
PUBLIC	__mep@??0failure@ios_base@std@@$$FQEAA@AEBV012@@Z
;	COMDAT __mep@??0failure@ios_base@std@@$$FQEAA@AEBV012@@Z
data	SEGMENT
__mep@??0failure@ios_base@std@@$$FQEAA@AEBV012@@Z TOKEN 0A000278
data	ENDS
;	COMDAT __m2mep@??0failure@ios_base@std@@$$FQEAA@AEBV012@@Z
data	SEGMENT
__m2mep@??0failure@ios_base@std@@$$FQEAA@AEBV012@@Z DD FLAT:??0failure@ios_base@std@@$$FQEAA@AEBV012@@Z
data	ENDS
; Function compile flags: /Ods
;	COMDAT nep
_TEXT	SEGMENT
__t2m@??0failure@ios_base@std@@QEAA@AEBV012@@Z PROC	; COMDAT
	jmp	SHORT $LN1@
	ud2
	jmp	QWORD PTR __m2mep@??0failure@ios_base@std@@$$FQEAA@AEBV012@@Z
$LN1@:
	jmp	QWORD PTR __mep@??0failure@ios_base@std@@$$FQEAA@AEBV012@@Z
__t2m@??0failure@ios_base@std@@QEAA@AEBV012@@Z ENDP
_TEXT	ENDS
.global	??_C@_0GJ@GMBHIGPF@C?3?2Program?5Files?5?$CIx86?$CJ?2Microsof@ ; `string'
	.bss
.local	$T1,0
	.rdata
	.comdat	any, ??_C@_0GJ@GMBHIGPF@C?3?2Program?5Files?5?$CIx86?$CJ?2Microsof@

??_C@_0GJ@GMBHIGPF@C?3?2Program?5Files?5?$CIx86?$CJ?2Microsof@: ; `string'
	.ascii	"C:\\Program Files (x86)\\Microsoft Visual Studio\\2019\\"
	.ascii	"Enterprise\\VC\\Tools\\MSVC\\14.27.29110\\include\\xlocnu"
	.ascii	"m\000"
; Function compile flags: /Odtp
; File C:\Program Files (x86)\Microsoft Visual Studio\2019\Enterprise\VC\Tools\MSVC\14.27.29110\include\xlocnum
	.text
	.comdat	any, ?_Maklocwcs@std@@$$FYAPEA_WPEB_W@Z
.global	?_Maklocwcs@std@@$$FYAPEA_WPEB_W@Z		; std::_Maklocwcs
?_Maklocwcs@std@@$$FYAPEA_WPEB_W@Z:			; std::_Maklocwcs
;	.proc.def	D:J(J)

; Function Header:
; max stack depth = 5
; function size = 48 bytes
; local varsig tk = 0x110000B1 
; Exception Information:
; 0 handlers, each consisting of filtered handlers

;	.formal.i8 0,"_Ptr$" SIG: ptr.Optional C Binding Modifier(token:0x719A7C2).char
;	.local.i8 0,"_Ptrdest$" SIG: ptr.char
;	.local.u8 1,"_Count$" SIG: Optional C Binding Modifier(token:0x722FC51).u8
;	.local.i8 2,"$T2" SIG: ptr.char

;	.proc.beg

; 91   :     const size_t _Count = _CSTD wcslen(_Ptr) + 1;

	ldarg.0				; _Ptr$
	call		?wcslen@@$$J0YA_KPEB_W@Z
	ldc.i.1		1		; u64 0x1
	conv.i8		
	add		
	stloc.1				; _Count$

; 92   : 
; 93   :     wchar_t* _Ptrdest = static_cast<wchar_t*>(_calloc_dbg(_Count, sizeof(wchar_t), _CRT_BLOCK, __FILE__, __LINE__));

	ldloc.1				; _Count$
	ldc.i.2		2		; u64 0x2
	conv.i8		
	ldc.i.2		2		; i32 0x2
	ldsflda		??_C@_0GJ@GMBHIGPF@C?3?2Program?5Files?5?$CIx86?$CJ?2Microsof@
	ldc.i4.s	93		; i32 0x5d
	call		?_calloc_dbg@@$$J0YAPEAX_K0HPEBDH@Z
	stloc.0				; _Ptrdest$

; 94   : 
; 95   :     if (!_Ptrdest) {

	ldloc.0				; _Ptrdest$
	brtrue.s	$LN2@Maklocwcs

; 96   :         _Xbad_alloc();

	call		?_Xbad_alloc@std@@$$FYAXXZ
$LN2@Maklocwcs:

; 97   :     }
; 98   : 
; 99   :     _CSTD wmemcpy(_Ptrdest, _Ptr, _Count);

	ldloc.0				; _Ptrdest$
	ldarg.0				; _Ptr$
	ldloc.1				; _Count$
	call		?wmemcpy@@$$J0YAPEA_WPEA_WPEB_W_K@Z
	pop		

; 100  :     return _Ptrdest;

	ldloc.0				; _Ptrdest$
	stloc.2				; $T2

; 101  : }

	ldloc.2				; $T2
	ret		
 .end ?_Maklocwcs@std@@$$FYAPEA_WPEB_W@Z		; std::_Maklocwcs
;	.proc.end.i8
.global	
.global	
	.bss
.local	,4
.local	,4
; Function compile flags: /Odtp
; File C:\Program Files (x86)\Microsoft Visual Studio\2019\Enterprise\VC\Tools\MSVC\14.27.29110\include\tuple
	.text
	.comdat	any, ??0?$tuple@$$V@std@@$$FQEAA@AEBV01@@Z
.global	??0?$tuple@$$V@std@@$$FQEAA@AEBV01@@Z		; std::tuple<>::tuple<>
??0?$tuple@$$V@std@@$$FQEAA@AEBV01@@Z:			; std::tuple<>::tuple<>
;	.proc.def	D:J(JJ)

; Function Header:
; max stack depth = 1
; function size = 2 bytes
; local varsig tk = 0x0 
; Exception Information:
; 0 handlers, each consisting of filtered handlers

;	.formal.i8 0,"this$" SIG: Optional C Binding Modifier(token:0x7294181).Optional C Binding Modifier(token:0x7294183).ptr.valueType (token:0x7294186)

;	.proc.beg

; 209  :     constexpr tuple(const tuple&) noexcept /* strengthened */ {} // TRANSITION, ABI: should be defaulted

	ldarg.0				; this$
	ret		
 .end ??0?$tuple@$$V@std@@$$FQEAA@AEBV01@@Z		; std::tuple<>::tuple<>
;	.proc.end.i8
PUBLIC	__t2m@??0?$tuple@$$V@std@@QEAA@AEBV01@@Z
PUBLIC	__m2mep@??0?$tuple@$$V@std@@$$FQEAA@AEBV01@@Z
PUBLIC	__mep@??0?$tuple@$$V@std@@$$FQEAA@AEBV01@@Z
;	COMDAT __mep@??0?$tuple@$$V@std@@$$FQEAA@AEBV01@@Z
data	SEGMENT
__mep@??0?$tuple@$$V@std@@$$FQEAA@AEBV01@@Z TOKEN 0A00029D
data	ENDS
;	COMDAT __m2mep@??0?$tuple@$$V@std@@$$FQEAA@AEBV01@@Z
data	SEGMENT
__m2mep@??0?$tuple@$$V@std@@$$FQEAA@AEBV01@@Z DD FLAT:??0?$tuple@$$V@std@@$$FQEAA@AEBV01@@Z
data	ENDS
; Function compile flags: /Ods
;	COMDAT nep
_TEXT	SEGMENT
__t2m@??0?$tuple@$$V@std@@QEAA@AEBV01@@Z PROC		; COMDAT
	jmp	SHORT $LN1@
	ud2
$LN2@:
	jmp	QWORD PTR __m2mep@??0?$tuple@$$V@std@@$$FQEAA@AEBV01@@Z
$LN1@:
	jmp	QWORD PTR __mep@??0?$tuple@$$V@std@@$$FQEAA@AEBV01@@Z
__t2m@??0?$tuple@$$V@std@@QEAA@AEBV01@@Z ENDP
_TEXT	ENDS
.global	
.global	
	.bss
.local	,4
.local	,4
; Function compile flags: /Odtp
; File C:\opencv\build\include\opencv2\core\types_c.h
	.text
	.comdat	any, ??0CvMat@@$$FQEAA@AEBU0@@Z
.global	??0CvMat@@$$FQEAA@AEBU0@@Z			; CvMat::CvMat
??0CvMat@@$$FQEAA@AEBU0@@Z:				; CvMat::CvMat
;	.proc.def	D:J(JJ)

; Function Header:
; max stack depth = 3
; function size = 13 bytes
; local varsig tk = 0x0 
; Exception Information:
; 0 handlers, each consisting of filtered handlers

;	.formal.i8 0,"this$" SIG: Optional C Binding Modifier(token:0x71852E1).Optional C Binding Modifier(token:0x71852E3).ptr.valueType (token:0x71852E6)
;	.formal.i8 1,"m$" SIG: Optional C Binding Modifier(token:0x7236941).ptr.Optional C Binding Modifier(token:0x7236944).valueType (token:0x7236946)

;	.proc.beg

; 461  :     CvMat(const CvMat& m) { memcpy(this, &m, sizeof(CvMat));}

	ldarg.0				; this$
	ldarg.1				; m$
	ldc.i4.s	40		; u64 0x28
	conv.i8		
	call		?memcpy@@$$J0YAPEAXPEAXPEBX_K@Z
	pop		
	ldarg.0				; this$
	ret		
 .end ??0CvMat@@$$FQEAA@AEBU0@@Z			; CvMat::CvMat
;	.proc.end.i8
PUBLIC	__t2m@??0CvMat@@QEAA@AEBU0@@Z
PUBLIC	__m2mep@??0CvMat@@$$FQEAA@AEBU0@@Z
PUBLIC	__mep@??0CvMat@@$$FQEAA@AEBU0@@Z
;	COMDAT __mep@??0CvMat@@$$FQEAA@AEBU0@@Z
data	SEGMENT
__mep@??0CvMat@@$$FQEAA@AEBU0@@Z TOKEN 0A0002AF
data	ENDS
;	COMDAT __m2mep@??0CvMat@@$$FQEAA@AEBU0@@Z
data	SEGMENT
__m2mep@??0CvMat@@$$FQEAA@AEBU0@@Z DD FLAT:??0CvMat@@$$FQEAA@AEBU0@@Z
data	ENDS
; Function compile flags: /Ods
;	COMDAT nep
_TEXT	SEGMENT
__t2m@??0CvMat@@QEAA@AEBU0@@Z PROC			; COMDAT
	jmp	SHORT $LN1@
	ud2
$LN2@:
	jmp	QWORD PTR __m2mep@??0CvMat@@$$FQEAA@AEBU0@@Z
$LN1@:
	jmp	QWORD PTR __mep@??0CvMat@@$$FQEAA@AEBU0@@Z
__t2m@??0CvMat@@QEAA@AEBU0@@Z ENDP
_TEXT	ENDS
.global	
.global	??_R0?AUbase_any_policy@anyimpl@cvflann@@@8	; cvflann::anyimpl::base_any_policy `RTTI Type Descriptor'
.global	??_R1A@?0A@EA@base_any_policy@anyimpl@cvflann@@8 ; cvflann::anyimpl::base_any_policy::`RTTI Base Class Descriptor at (0,-1,0,64)'
.global	??_R2base_any_policy@anyimpl@cvflann@@8		; cvflann::anyimpl::base_any_policy::`RTTI Base Class Array'
.global	??_R3base_any_policy@anyimpl@cvflann@@8		; cvflann::anyimpl::base_any_policy::`RTTI Class Hierarchy Descriptor'
.global	??_R4base_any_policy@anyimpl@cvflann@@6B@	; cvflann::anyimpl::base_any_policy::`RTTI Complete Object Locator'
.global	??_7base_any_policy@anyimpl@cvflann@@6B@	; cvflann::anyimpl::base_any_policy::`vftable'
	.bss
.local	,4
	.data
	.comdat	largest, ??_7base_any_policy@anyimpl@cvflann@@6B@

??_7base_any_policy@anyimpl@cvflann@@6B@:		; cvflann::anyimpl::base_any_policy::`vftable'
	DQ	??_R4base_any_policy@anyimpl@cvflann@@6B@
	DQ	_purecall
	DQ	_purecall
	DQ	_purecall
	DQ	_purecall
	DQ	_purecall
	DQ	_purecall
	DQ	_purecall
	DQ	_purecall
	DQ	_purecall
	DQ	??_Ebase_any_policy@anyimpl@cvflann@@UEAAPEAXI@Z
	.rdataseg	.rdata$r
	.comdat	any, ??_R4base_any_policy@anyimpl@cvflann@@6B@

??_R4base_any_policy@anyimpl@cvflann@@6B@:		; cvflann::anyimpl::base_any_policy::`RTTI Complete Object Locator'
	.word	0x1
	.word	0x0
	.word	0x0 DD imagerel ??_R0?AUbase_any_policy@anyimpl@cvflann@@@8 DD imagerel ??_R3base_any_policy@anyimpl@cvflann@@8 DD imagerel ??_R4base_any_policy@anyimpl@cvflann@@6B@
	.rdataseg	.rdata$r
	.comdat	any, ??_R3base_any_policy@anyimpl@cvflann@@8

??_R3base_any_policy@anyimpl@cvflann@@8:		; cvflann::anyimpl::base_any_policy::`RTTI Class Hierarchy Descriptor'
	.word	0x0
	.word	0x0
	.word	0x1 DD imagerel ??_R2base_any_policy@anyimpl@cvflann@@8
	.rdataseg	.rdata$r
	.comdat	any, ??_R2base_any_policy@anyimpl@cvflann@@8

??_R2base_any_policy@anyimpl@cvflann@@8:		; cvflann::anyimpl::base_any_policy::`RTTI Base Class Array' DD imagerel ??_R1A@?0A@EA@base_any_policy@anyimpl@cvflann@@8
	.space	3
	.rdataseg	.rdata$r
	.comdat	any, ??_R1A@?0A@EA@base_any_policy@anyimpl@cvflann@@8

??_R1A@?0A@EA@base_any_policy@anyimpl@cvflann@@8:	; cvflann::anyimpl::base_any_policy::`RTTI Base Class Descriptor at (0,-1,0,64)' DD imagerel ??_R0?AUbase_any_policy@anyimpl@cvflann@@@8
	.word	0x0
	.word	0x0
	.word	0xffffffff
	.word	0x0
	.word	0x40 DD imagerel ??_R3base_any_policy@anyimpl@cvflann@@8
	.dataseg	.data$r
	.comdat	any, ??_R0?AUbase_any_policy@anyimpl@cvflann@@@8

??_R0?AUbase_any_policy@anyimpl@cvflann@@@8:		; cvflann::anyimpl::base_any_policy `RTTI Type Descriptor'
	DQ	??_7type_info@@6B@
	.double	0x0000000000000000
	.ascii	".?AUbase_any_policy@anyimpl@cvflann@@\000"
; Function compile flags: /Odtp
; File C:\opencv\build\include\opencv2\flann\any.h
	.text
	.comdat	any, ??1base_any_policy@anyimpl@cvflann@@$$FUEAA@XZ
.global	??1base_any_policy@anyimpl@cvflann@@$$FUEAA@XZ	; cvflann::anyimpl::base_any_policy::~base_any_policy
??1base_any_policy@anyimpl@cvflann@@$$FUEAA@XZ:		; cvflann::anyimpl::base_any_policy::~base_any_policy
;	.proc.def	D:V(J)

; Function Header:
; max stack depth = 2
; function size = 8 bytes
; local varsig tk = 0x0 
; Exception Information:
; 0 handlers, each consisting of filtered handlers

;	.formal.i8 0,"this$" SIG: Optional C Binding Modifier(token:0x71AB391).Optional C Binding Modifier(token:0x71AB393).ptr.valueType (token:0x71AB396)

;	.proc.beg

; 51   :     virtual ~base_any_policy() {}

	ldarg.0				; this$
	ldsflda		??_7base_any_policy@anyimpl@cvflann@@6B@
	stind.i8	
	ret		
 .end ??1base_any_policy@anyimpl@cvflann@@$$FUEAA@XZ	; cvflann::anyimpl::base_any_policy::~base_any_policy
;	.proc.end.void
.global	
.global	
.global	??_R0?AVException@cv@@@8			; cv::Exception `RTTI Type Descriptor'
.global	??_R1A@?0A@EA@Exception@cv@@8			; cv::Exception::`RTTI Base Class Descriptor at (0,-1,0,64)'
.global	??_R2Exception@cv@@8				; cv::Exception::`RTTI Base Class Array'
.global	??_R3Exception@cv@@8				; cv::Exception::`RTTI Class Hierarchy Descriptor'
.global	??_R4Exception@cv@@6B@				; cv::Exception::`RTTI Complete Object Locator'
.global	??_7Exception@cv@@6B@				; cv::Exception::`vftable'
	.bss
.local	,4
.local	,4
	.data
	.comdat	largest, ??_7Exception@cv@@6B@

??_7Exception@cv@@6B@:					; cv::Exception::`vftable'
	DQ	??_R4Exception@cv@@6B@
	DQ	??_EException@cv@@UEAAPEAXI@Z
	DQ	?what@Exception@cv@@UEBAPEBDXZ
	.rdataseg	.rdata$r
	.comdat	any, ??_R4Exception@cv@@6B@

??_R4Exception@cv@@6B@:					; cv::Exception::`RTTI Complete Object Locator'
	.word	0x1
	.word	0x0
	.word	0x0 DD imagerel ??_R0?AVException@cv@@@8 DD imagerel ??_R3Exception@cv@@8 DD imagerel ??_R4Exception@cv@@6B@
	.rdataseg	.rdata$r
	.comdat	any, ??_R3Exception@cv@@8

??_R3Exception@cv@@8:					; cv::Exception::`RTTI Class Hierarchy Descriptor'
	.word	0x0
	.word	0x0
	.word	0x2 DD imagerel ??_R2Exception@cv@@8
	.rdataseg	.rdata$r
	.comdat	any, ??_R2Exception@cv@@8

??_R2Exception@cv@@8:					; cv::Exception::`RTTI Base Class Array' DD imagerel ??_R1A@?0A@EA@Exception@cv@@8 DD imagerel ??_R1A@?0A@EA@exception@std@@8
	.space	3
	.rdataseg	.rdata$r
	.comdat	any, ??_R1A@?0A@EA@Exception@cv@@8

??_R1A@?0A@EA@Exception@cv@@8:				; cv::Exception::`RTTI Base Class Descriptor at (0,-1,0,64)' DD imagerel ??_R0?AVException@cv@@@8
	.word	0x1
	.word	0x0
	.word	0xffffffff
	.word	0x0
	.word	0x40 DD imagerel ??_R3Exception@cv@@8
	.dataseg	.data$r
	.comdat	any, ??_R0?AVException@cv@@@8

??_R0?AVException@cv@@@8:				; cv::Exception `RTTI Type Descriptor'
	DQ	??_7type_info@@6B@
	.double	0x0000000000000000
	.ascii	".?AVException@cv@@\000"
; Function compile flags: /Odtp
	.text
	.comdat	any, ??0Exception@cv@@$$FQEAA@AEBV01@@Z
.global	??0Exception@cv@@$$FQEAA@AEBV01@@Z		; cv::Exception::Exception
??0Exception@cv@@$$FQEAA@AEBV01@@Z:			; cv::Exception::Exception
;	.proc.def	D:J(JJ)

; Function Header:
; max stack depth = 3
; function size = 196 bytes
; local varsig tk = 0x0 
; Exception Information:
; 5 handlers, each consisting of filtered handlers

;	.formal.i8 0,"this$" SIG: Optional C Binding Modifier(token:0x72D14F9).Optional C Binding Modifier(token:0x72D14FB).ptr.valueType (token:0x72D14FE)
;	.formal.i8 1,"__that$" SIG: Optional C Binding Modifier(token:0x71FF739).ptr.Optional C Binding Modifier(token:0x71FF73C).valueType (token:0x71FF73E)

;	.proc.beg
	ldarg.0				; this$
	ldarg.1				; __that$
	call		??0exception@std@@$$FQEAA@AEBV01@@Z
	pop		
$LN8@Exception:
	ldarg.0				; this$
	ldsflda		??_7Exception@cv@@6B@
	stind.i8	
	ldarg.0				; this$
	ldc.i4.s	24		; i64 0x18
	conv.i8		
	add		
	ldarg.1				; __that$
	ldc.i4.s	24		; i64 0x18
	conv.i8		
	add		
	call		??0String@cv@@$$FQEAA@AEBV01@@Z
	pop		
$LN9@Exception:
	ldarg.0				; this$
	ldc.i4.s	40		; i64 0x28
	conv.i8		
	add		
	ldarg.1				; __that$
	ldc.i4.s	40		; i64 0x28
	conv.i8		
	add		
	ldind.i4	
	stind.i4	
	ldarg.0				; this$
	ldc.i4.s	48		; i64 0x30
	conv.i8		
	add		
	ldarg.1				; __that$
	ldc.i4.s	48		; i64 0x30
	conv.i8		
	add		
	call		??0String@cv@@$$FQEAA@AEBV01@@Z
	pop		
$LN10@Exception:
	ldarg.0				; this$
	ldc.i4.s	64		; i64 0x40
	conv.i8		
	add		
	ldarg.1				; __that$
	ldc.i4.s	64		; i64 0x40
	conv.i8		
	add		
	call		??0String@cv@@$$FQEAA@AEBV01@@Z
	pop		
$LN11@Exception:
	ldarg.0				; this$
	ldc.i4.s	80		; i64 0x50
	conv.i8		
	add		
	ldarg.1				; __that$
	ldc.i4.s	80		; i64 0x50
	conv.i8		
	add		
	call		??0String@cv@@$$FQEAA@AEBV01@@Z
	pop		
$LN12@Exception:
	ldarg.0				; this$
	ldc.i4.s	96		; i64 0x60
	conv.i8		
	add		
	ldarg.1				; __that$
	ldc.i4.s	96		; i64 0x60
	conv.i8		
	add		
	ldind.i4	
	stind.i4	
	leave.s		$LN13@Exception
$LN14@Exception:
	ldftn		??1String@cv@@$$FQEAA@XZ
	ldarg.0				; this$
	ldc.i4.s	80		; i64 0x50
	conv.i8		
	add		
	call		?___CxxCallUnwindDtor@@$$J0YMXP6MXPEAX@Z0@Z
	endfinally	
$LN13@Exception:
	leave.s		$LN15@Exception
$LN16@Exception:
	ldftn		??1String@cv@@$$FQEAA@XZ
	ldarg.0				; this$
	ldc.i4.s	64		; i64 0x40
	conv.i8		
	add		
	call		?___CxxCallUnwindDtor@@$$J0YMXP6MXPEAX@Z0@Z
	endfinally	
$LN15@Exception:
	leave.s		$LN17@Exception
$LN18@Exception:
	ldftn		??1String@cv@@$$FQEAA@XZ
	ldarg.0				; this$
	ldc.i4.s	48		; i64 0x30
	conv.i8		
	add		
	call		?___CxxCallUnwindDtor@@$$J0YMXP6MXPEAX@Z0@Z
	endfinally	
$LN17@Exception:
	leave.s		$LN19@Exception
$LN20@Exception:
	ldftn		??1String@cv@@$$FQEAA@XZ
	ldarg.0				; this$
	ldc.i4.s	24		; i64 0x18
	conv.i8		
	add		
	call		?___CxxCallUnwindDtor@@$$J0YMXP6MXPEAX@Z0@Z
	endfinally	
$LN19@Exception:
	leave.s		$LN21@Exception
$LN22@Exception:
	ldftn		??1exception@std@@$$FUEAA@XZ
	ldarg.0				; this$
	call		?___CxxCallUnwindDtor@@$$J0YMXP6MXPEAX@Z0@Z
	endfinally	
$LN21@Exception:
	ldarg.0				; this$
	ret		
 .end ??0Exception@cv@@$$FQEAA@AEBV01@@Z		; cv::Exception::Exception
;	.proc.end.i8
PUBLIC	__t2m@??0Exception@cv@@QEAA@AEBV01@@Z
PUBLIC	__m2mep@??0Exception@cv@@$$FQEAA@AEBV01@@Z
PUBLIC	__mep@??0Exception@cv@@$$FQEAA@AEBV01@@Z
;	COMDAT __mep@??0Exception@cv@@$$FQEAA@AEBV01@@Z
data	SEGMENT
__mep@??0Exception@cv@@$$FQEAA@AEBV01@@Z TOKEN 0A0002DF
data	ENDS
;	COMDAT __m2mep@??0Exception@cv@@$$FQEAA@AEBV01@@Z
data	SEGMENT
__m2mep@??0Exception@cv@@$$FQEAA@AEBV01@@Z DD FLAT:??0Exception@cv@@$$FQEAA@AEBV01@@Z
data	ENDS
; Function compile flags: /Ods
;	COMDAT nep
_TEXT	SEGMENT
__t2m@??0Exception@cv@@QEAA@AEBV01@@Z PROC		; COMDAT
	jmp	SHORT $LN1@
	ud2
	jmp	QWORD PTR __m2mep@??0Exception@cv@@$$FQEAA@AEBV01@@Z
$LN1@:
	jmp	QWORD PTR __mep@??0Exception@cv@@$$FQEAA@AEBV01@@Z
__t2m@??0Exception@cv@@QEAA@AEBV01@@Z ENDP
_TEXT	ENDS
.global	
.global	
.global	??_R0?AVFLANNException@cvflann@@@8		; cvflann::FLANNException `RTTI Type Descriptor'
.global	??_R1A@?0A@EA@FLANNException@cvflann@@8		; cvflann::FLANNException::`RTTI Base Class Descriptor at (0,-1,0,64)'
.global	??_R2FLANNException@cvflann@@8			; cvflann::FLANNException::`RTTI Base Class Array'
.global	??_R3FLANNException@cvflann@@8			; cvflann::FLANNException::`RTTI Class Hierarchy Descriptor'
.global	??_R4FLANNException@cvflann@@6B@		; cvflann::FLANNException::`RTTI Complete Object Locator'
.global	??_7FLANNException@cvflann@@6B@			; cvflann::FLANNException::`vftable'
	.bss
.local	,4
.local	,4
	.data
	.comdat	largest, ??_7FLANNException@cvflann@@6B@

??_7FLANNException@cvflann@@6B@:			; cvflann::FLANNException::`vftable'
	DQ	??_R4FLANNException@cvflann@@6B@
	DQ	??_EFLANNException@cvflann@@UEAAPEAXI@Z
	DQ	?what@Exception@cv@@UEBAPEBDXZ
	.rdataseg	.rdata$r
	.comdat	any, ??_R4FLANNException@cvflann@@6B@

??_R4FLANNException@cvflann@@6B@:			; cvflann::FLANNException::`RTTI Complete Object Locator'
	.word	0x1
	.word	0x0
	.word	0x0 DD imagerel ??_R0?AVFLANNException@cvflann@@@8 DD imagerel ??_R3FLANNException@cvflann@@8 DD imagerel ??_R4FLANNException@cvflann@@6B@
	.rdataseg	.rdata$r
	.comdat	any, ??_R3FLANNException@cvflann@@8

??_R3FLANNException@cvflann@@8:				; cvflann::FLANNException::`RTTI Class Hierarchy Descriptor'
	.word	0x0
	.word	0x0
	.word	0x3 DD imagerel ??_R2FLANNException@cvflann@@8
	.rdataseg	.rdata$r
	.comdat	any, ??_R2FLANNException@cvflann@@8

??_R2FLANNException@cvflann@@8:				; cvflann::FLANNException::`RTTI Base Class Array' DD imagerel ??_R1A@?0A@EA@FLANNException@cvflann@@8 DD imagerel ??_R1A@?0A@EA@Exception@cv@@8 DD imagerel ??_R1A@?0A@EA@exception@std@@8
	.space	3
	.rdataseg	.rdata$r
	.comdat	any, ??_R1A@?0A@EA@FLANNException@cvflann@@8

??_R1A@?0A@EA@FLANNException@cvflann@@8:		; cvflann::FLANNException::`RTTI Base Class Descriptor at (0,-1,0,64)' DD imagerel ??_R0?AVFLANNException@cvflann@@@8
	.word	0x2
	.word	0x0
	.word	0xffffffff
	.word	0x0
	.word	0x40 DD imagerel ??_R3FLANNException@cvflann@@8
	.dataseg	.data$r
	.comdat	any, ??_R0?AVFLANNException@cvflann@@@8

??_R0?AVFLANNException@cvflann@@@8:			; cvflann::FLANNException `RTTI Type Descriptor'
	DQ	??_7type_info@@6B@
	.double	0x0000000000000000
	.ascii	".?AVFLANNException@cvflann@@\000"
; Function compile flags: /Odtp
	.text
	.comdat	any, ??0FLANNException@cvflann@@$$FQEAA@AEBV01@@Z
.global	??0FLANNException@cvflann@@$$FQEAA@AEBV01@@Z	; cvflann::FLANNException::FLANNException
??0FLANNException@cvflann@@$$FQEAA@AEBV01@@Z:		; cvflann::FLANNException::FLANNException
;	.proc.def	D:J(JJ)

; Function Header:
; max stack depth = 2
; function size = 32 bytes
; local varsig tk = 0x0 
; Exception Information:
; 1 handlers, each consisting of filtered handlers

;	.formal.i8 0,"this$" SIG: Optional C Binding Modifier(token:0x71747B9).Optional C Binding Modifier(token:0x71747BB).ptr.valueType (token:0x71747BE)
;	.formal.i8 1,"__that$" SIG: Optional C Binding Modifier(token:0x71B58C1).ptr.Optional C Binding Modifier(token:0x71B58C4).valueType (token:0x71B58C6)

;	.proc.beg
	ldarg.0				; this$
	ldarg.1				; __that$
	call		??0Exception@cv@@$$FQEAA@AEBV01@@Z
	pop		
$LN4@FLANNExcep:
	ldarg.0				; this$
	ldsflda		??_7FLANNException@cvflann@@6B@
	stind.i8	
	leave.s		$LN5@FLANNExcep
$LN6@FLANNExcep:
	ldftn		??1Exception@cv@@$$FUEAA@XZ
	ldarg.0				; this$
	call		?___CxxCallUnwindDtor@@$$J0YMXP6MXPEAX@Z0@Z
	endfinally	
$LN5@FLANNExcep:
	ldarg.0				; this$
	ret		
 .end ??0FLANNException@cvflann@@$$FQEAA@AEBV01@@Z	; cvflann::FLANNException::FLANNException
;	.proc.end.i8
PUBLIC	__t2m@??0FLANNException@cvflann@@QEAA@AEBV01@@Z
PUBLIC	__m2mep@??0FLANNException@cvflann@@$$FQEAA@AEBV01@@Z
PUBLIC	__mep@??0FLANNException@cvflann@@$$FQEAA@AEBV01@@Z
;	COMDAT __mep@??0FLANNException@cvflann@@$$FQEAA@AEBV01@@Z
data	SEGMENT
__mep@??0FLANNException@cvflann@@$$FQEAA@AEBV01@@Z TOKEN 0A0002DE
data	ENDS
;	COMDAT __m2mep@??0FLANNException@cvflann@@$$FQEAA@AEBV01@@Z
data	SEGMENT
__m2mep@??0FLANNException@cvflann@@$$FQEAA@AEBV01@@Z DD FLAT:??0FLANNException@cvflann@@$$FQEAA@AEBV01@@Z
data	ENDS
; Function compile flags: /Ods
;	COMDAT nep
_TEXT	SEGMENT
__t2m@??0FLANNException@cvflann@@QEAA@AEBV01@@Z PROC	; COMDAT
	jmp	SHORT $LN1@
	ud2
	jmp	QWORD PTR __m2mep@??0FLANNException@cvflann@@$$FQEAA@AEBV01@@Z
$LN1@:
	jmp	QWORD PTR __mep@??0FLANNException@cvflann@@$$FQEAA@AEBV01@@Z
__t2m@??0FLANNException@cvflann@@QEAA@AEBV01@@Z ENDP
_TEXT	ENDS
PUBLIC	??0GpuMat@cuda@cv@@QEAA@AEBV012@@Z		; cv::cuda::GpuMat::GpuMat
; Function compile flags: /Odtp
; File C:\opencv\build\include\opencv2\core\cuda.inl.hpp
;	COMDAT ??0GpuMat@cuda@cv@@QEAA@AEBV012@@Z
_TEXT	SEGMENT
this$ = 8
m$ = 16
??0GpuMat@cuda@cv@@QEAA@AEBV012@@Z PROC			; cv::cuda::GpuMat::GpuMat, COMDAT

; 103  : {

	mov	QWORD PTR [rsp+16], rdx
	mov	QWORD PTR [rsp+8], rcx

; 102  :     : flags(m.flags), rows(m.rows), cols(m.cols), step(m.step), data(m.data), refcount(m.refcount), datastart(m.datastart), dataend(m.dataend), allocator(m.allocator)

	mov	rax, QWORD PTR this$[rsp]
	mov	rcx, QWORD PTR m$[rsp]
	mov	ecx, DWORD PTR [rcx]
	mov	DWORD PTR [rax], ecx
	mov	rax, QWORD PTR this$[rsp]
	mov	rcx, QWORD PTR m$[rsp]
	mov	ecx, DWORD PTR [rcx+4]
	mov	DWORD PTR [rax+4], ecx
	mov	rax, QWORD PTR this$[rsp]
	mov	rcx, QWORD PTR m$[rsp]
	mov	ecx, DWORD PTR [rcx+8]
	mov	DWORD PTR [rax+8], ecx
	mov	rax, QWORD PTR this$[rsp]
	mov	rcx, QWORD PTR m$[rsp]
	mov	rcx, QWORD PTR [rcx+16]
	mov	QWORD PTR [rax+16], rcx
	mov	rax, QWORD PTR this$[rsp]
	mov	rcx, QWORD PTR m$[rsp]
	mov	rcx, QWORD PTR [rcx+24]
	mov	QWORD PTR [rax+24], rcx
	mov	rax, QWORD PTR this$[rsp]
	mov	rcx, QWORD PTR m$[rsp]
	mov	rcx, QWORD PTR [rcx+32]
	mov	QWORD PTR [rax+32], rcx
	mov	rax, QWORD PTR this$[rsp]
	mov	rcx, QWORD PTR m$[rsp]
	mov	rcx, QWORD PTR [rcx+40]
	mov	QWORD PTR [rax+40], rcx
	mov	rax, QWORD PTR this$[rsp]
	mov	rcx, QWORD PTR m$[rsp]
	mov	rcx, QWORD PTR [rcx+48]
	mov	QWORD PTR [rax+48], rcx
	mov	rax, QWORD PTR this$[rsp]
	mov	rcx, QWORD PTR m$[rsp]
	mov	rcx, QWORD PTR [rcx+56]
	mov	QWORD PTR [rax+56], rcx

; 104  :     if (refcount)

	mov	rax, QWORD PTR this$[rsp]
	cmp	QWORD PTR [rax+32], 0
	je	SHORT $LN2@GpuMat

; 105  :         CV_XADD(refcount, 1);

	mov	rax, QWORD PTR this$[rsp]
	mov	rax, QWORD PTR [rax+32]
	lock inc DWORD PTR [rax]
$LN2@GpuMat:

; 106  : }

	mov	rax, QWORD PTR this$[rsp]
	ret	0
??0GpuMat@cuda@cv@@QEAA@AEBV012@@Z ENDP			; cv::cuda::GpuMat::GpuMat
_TEXT	ENDS
PUBLIC	??0HostMem@cuda@cv@@QEAA@AEBV012@@Z		; cv::cuda::HostMem::HostMem
; Function compile flags: /Odtp
; File C:\opencv\build\include\opencv2\core\cuda.inl.hpp
;	COMDAT ??0HostMem@cuda@cv@@QEAA@AEBV012@@Z
_TEXT	SEGMENT
this$ = 8
m$ = 16
??0HostMem@cuda@cv@@QEAA@AEBV012@@Z PROC		; cv::cuda::HostMem::HostMem, COMDAT

; 393  : {

	mov	QWORD PTR [rsp+16], rdx
	mov	QWORD PTR [rsp+8], rcx

; 392  :     : flags(m.flags), rows(m.rows), cols(m.cols), step(m.step), data(m.data), refcount(m.refcount), datastart(m.datastart), dataend(m.dataend), alloc_type(m.alloc_type)

	mov	rax, QWORD PTR this$[rsp]
	mov	rcx, QWORD PTR m$[rsp]
	mov	ecx, DWORD PTR [rcx]
	mov	DWORD PTR [rax], ecx
	mov	rax, QWORD PTR this$[rsp]
	mov	rcx, QWORD PTR m$[rsp]
	mov	ecx, DWORD PTR [rcx+4]
	mov	DWORD PTR [rax+4], ecx
	mov	rax, QWORD PTR this$[rsp]
	mov	rcx, QWORD PTR m$[rsp]
	mov	ecx, DWORD PTR [rcx+8]
	mov	DWORD PTR [rax+8], ecx
	mov	rax, QWORD PTR this$[rsp]
	mov	rcx, QWORD PTR m$[rsp]
	mov	rcx, QWORD PTR [rcx+16]
	mov	QWORD PTR [rax+16], rcx
	mov	rax, QWORD PTR this$[rsp]
	mov	rcx, QWORD PTR m$[rsp]
	mov	rcx, QWORD PTR [rcx+24]
	mov	QWORD PTR [rax+24], rcx
	mov	rax, QWORD PTR this$[rsp]
	mov	rcx, QWORD PTR m$[rsp]
	mov	rcx, QWORD PTR [rcx+32]
	mov	QWORD PTR [rax+32], rcx
	mov	rax, QWORD PTR this$[rsp]
	mov	rcx, QWORD PTR m$[rsp]
	mov	rcx, QWORD PTR [rcx+40]
	mov	QWORD PTR [rax+40], rcx
	mov	rax, QWORD PTR this$[rsp]
	mov	rcx, QWORD PTR m$[rsp]
	mov	rcx, QWORD PTR [rcx+48]
	mov	QWORD PTR [rax+48], rcx
	mov	rax, QWORD PTR this$[rsp]
	mov	rcx, QWORD PTR m$[rsp]
	mov	ecx, DWORD PTR [rcx+56]
	mov	DWORD PTR [rax+56], ecx

; 394  :     if( refcount )

	mov	rax, QWORD PTR this$[rsp]
	cmp	QWORD PTR [rax+32], 0
	je	SHORT $LN2@HostMem

; 395  :         CV_XADD(refcount, 1);

	mov	rax, QWORD PTR this$[rsp]
	mov	rax, QWORD PTR [rax+32]
	lock inc DWORD PTR [rax]
$LN2@HostMem:

; 396  : }

	mov	rax, QWORD PTR this$[rsp]
	ret	0
??0HostMem@cuda@cv@@QEAA@AEBV012@@Z ENDP		; cv::cuda::HostMem::HostMem
_TEXT	ENDS
.global	
.global	
	.bss
.local	,4
.local	,4
.local	$T1,0
; Function compile flags: /Odtp
; File C:\Program Files (x86)\Microsoft Visual Studio\2019\Enterprise\VC\Tools\MSVC\14.27.29110\include\vcclr.h
	.text
	.comdat	any, ?PtrToStringChars@@$$FYMPE$CB_WPE$ABVString@System@@@Z
.global	?PtrToStringChars@@$$FYMPE$CB_WPE$ABVString@System@@@Z ; PtrToStringChars
?PtrToStringChars@@$$FYMPE$CB_WPE$ABVString@System@@@Z:	; PtrToStringChars
;	.proc.def	D:J(P)

; Function Header:
; max stack depth = 2
; function size = 18 bytes
; local varsig tk = 0x110000BD 
; Exception Information:
; 0 handlers, each consisting of filtered handlers

;	.formal.mptr 0,"s$" SIG: Optional C Binding Modifier(token:0x72CF751).string
;	.local.i8 0,"bp$" SIG: Optional C Binding Modifier(token:0x71AE5C1).byref.u1
;	.local.i8 1,"$T2" SIG: Optional C Binding Modifier(token:0x88CFBB1).byref.Optional C Binding Modifier(token:0x88CFBB5).char

;	.proc.beg

; 40   : 
; 41   : 	_Byte_ptr bp = const_cast<_Byte_ptr>(reinterpret_cast<__const_Byte_ptr>(s));

	ldarg.0				; s$
	stloc.0				; bp$

; 42   : 	if( bp != _NULLPTR ) {

	ldloc.0				; bp$
	brfalse.s	$LN2@PtrToStrin

; 43   : 		bp += System::Runtime::CompilerServices::RuntimeHelpers::OffsetToStringData;

	ldloc.0				; bp$
	call		?get@OffsetToStringData@RuntimeHelpers@CompilerServices@Runtime@System@@$$FSMHXZ
	conv.i8		
	add		
	stloc.0				; bp$
$LN2@PtrToStrin:

; 44   : 	}
; 45   : 	return reinterpret_cast<__const_Char_ptr>(bp);

	ldloc.0				; bp$
	stloc.1				; $T2

; 46   : }

	ldloc.1				; $T2
	ret		
 .end ?PtrToStringChars@@$$FYMPE$CB_WPE$ABVString@System@@@Z ; PtrToStringChars
;	.proc.end.i8
.global	
	.bss
.local	,4
.local	$StringLiteralTok$??_C@_1NM@JJLECOOJ@?$AAC?$AAo?$AAn?$AAv?$AAe?$AAr?$AAs?$AAi?$AAo?$AAn?$AA?5?$AAf?$AAr?$AAo?$AAm@,4
.local	$T1,0
; Function compile flags: /Odtp
; File C:\Program Files (x86)\Microsoft Visual Studio\2019\Enterprise\VC\Tools\MSVC\14.27.29110\include\msclr\marshal.h
	.text
	.comdat	any, ?GetAnsiStringSize@details@interop@msclr@@$$FYM_KPE$AAVString@System@@@Z
.global	?GetAnsiStringSize@details@interop@msclr@@$$FYM_KPE$AAVString@System@@@Z ; msclr::interop::details::GetAnsiStringSize
?GetAnsiStringSize@details@interop@msclr@@$$FYM_KPE$AAVString@System@@@Z: ; msclr::interop::details::GetAnsiStringSize
;	.proc.def	D:J(P)

; Function Header:
; max stack depth = 8
; function size = 65 bytes
; local varsig tk = 0x110000BF 
; Exception Information:
; 0 handlers, each consisting of filtered handlers

;	.formal.mptr 0,"_str$" SIG: string
;	.local.u8 0,"_size$" SIG: u8
;	.local.u8 1,"$T2" SIG: u8
;	.local.i8 2,"_pinned_ptr$" SIG: Optional C Binding Modifier(token:0x7185CC1).u1

;	.proc.beg

; 84   :                 cli::pin_ptr<const wchar_t> _pinned_ptr = PtrToStringChars(_str);

	ldarg.0				; _str$
	call		?PtrToStringChars@@$$FYMPE$CB_WPE$ABVString@System@@@Z
	stloc.2				; _pinned_ptr$

; 85   : 
; 86   :                 auto _size = static_cast<size_t>(

	ldc.i.3		3		; u32 0x3
	ldc.i4		1024		; u32 0x400
	ldloc.2				; _pinned_ptr$
	ldarg.0				; _str$
	call		?get@Length@String@System@@$$FQE$AAMHXZ
	ldc.i.0		0		; i64 0x0
	conv.i8		
	ldc.i.0		0		; i32 0x0
	ldc.i.0		0		; i64 0x0
	conv.i8		
	ldc.i.0		0		; i64 0x0
	conv.i8		
	call		?WideCharToMultiByte@@$$J0YAHIKPEB_WHPEADHPEBDPEAH@Z
	conv.i8		
	stloc.0				; _size$

; 87   :                         ::WideCharToMultiByte(CP_THREAD_ACP, WC_NO_BEST_FIT_CHARS, _pinned_ptr,
; 88   :                         _str->Length, NULL, 0, NULL,NULL));
; 89   :                 if (_size == 0 && _str->Length != 0)

	ldloc.0				; _size$
	brtrue.s	$LN2@GetAnsiStr
	ldarg.0				; _str$
	call		?get@Length@String@System@@$$FQE$AAMHXZ
	brfalse.s	$LN2@GetAnsiStr

; 90   :                 {
; 91   :                         throw gcnew System::ArgumentException(_EXCEPTION_WC2MB);

	ldstr		$StringLiteralTok$??_C@_1NM@JJLECOOJ@?$AAC?$AAo?$AAn?$AAv?$AAe?$AAr?$AAs?$AAi?$AAo?$AAn?$AA?5?$AAf?$AAr?$AAo?$AAm@
	newobj		??0ArgumentException@System@@$$FQE$AAM@PE$AAVString@1@@Z
	throw.u2	
$LN2@GetAnsiStr:

; 92   :                 }
; 93   :                 // adding 1 for terminating nul
; 94   :                 _size+=1;

	ldloc.0				; _size$
	ldc.i.1		1		; u64 0x1
	conv.i8		
	add		
	stloc.0				; _size$

; 95   :                 return _size;

	ldloc.0				; _size$
	stloc.1				; $T2

; 96   :         }

	ldloc.1				; $T2
	ret		
 .end ?GetAnsiStringSize@details@interop@msclr@@$$FYM_KPE$AAVString@System@@@Z ; msclr::interop::details::GetAnsiStringSize
;	.proc.end.u8
.global	
	.bss
.local	,4
.local	$StringLiteralTok$??_C@_1EA@EAFCEBNG@?$AAS?$AAi?$AAz?$AAe?$AA?5?$AAo?$AAf?$AA?5?$AAs?$AAt?$AAr?$AAi?$AAn?$AAg?$AA?5@,4
.local	$T1,0
; Function compile flags: /Odtp
; File C:\Program Files (x86)\Microsoft Visual Studio\2019\Enterprise\VC\Tools\MSVC\14.27.29110\include\msclr\marshal.h
	.text
	.comdat	any, ?WriteAnsiString@details@interop@msclr@@$$FYMXPEAD_KPE$AAVString@System@@@Z
.global	?WriteAnsiString@details@interop@msclr@@$$FYMXPEAD_KPE$AAVString@System@@@Z ; msclr::interop::details::WriteAnsiString
?WriteAnsiString@details@interop@msclr@@$$FYMXPEAD_KPE$AAVString@System@@@Z: ; msclr::interop::details::WriteAnsiString
;	.proc.def	D:V(JJP)

; Function Header:
; max stack depth = 8
; function size = 83 bytes
; local varsig tk = 0x110000C1 
; Exception Information:
; 0 handlers, each consisting of filtered handlers

;	.formal.i8 0,"_buf$" SIG: ptr.Optional C Binding Modifier(token:0x7207992).i1
;	.formal.u8 1,"_size$" SIG: u8
;	.formal.mptr 2,"_str$" SIG: string
;	.local.u8 0,"_written$" SIG: Optional C Binding Modifier(token:0x722FC51).u8
;	.local.i8 1,"_pinned_ptr$" SIG: Optional C Binding Modifier(token:0x7185CC1).u1

;	.proc.beg

; 100  :                 cli::pin_ptr<const wchar_t> _pinned_ptr = PtrToStringChars(_str);

	ldarg.2				; _str$
	call		?PtrToStringChars@@$$FYMPE$CB_WPE$ABVString@System@@@Z
	stloc.1				; _pinned_ptr$

; 101  : 
; 102  :                 //checking for overflow
; 103  :                 if (_size > INT_MAX)

	ldarg.1				; _size$
	ldc.i4		2147483647	; u64 0x7fffffff
	conv.i8		
	ble.un.s	$LN2@WriteAnsiS

; 104  :                 {
; 105  :                         // this should never happen if _size was returned by GetAnsiStringSize()
; 106  :                         throw gcnew System::ArgumentOutOfRangeException(_EXCEPTION_GREATER_THAN_INT_MAX);

	ldstr		$StringLiteralTok$??_C@_1EA@EAFCEBNG@?$AAS?$AAi?$AAz?$AAe?$AA?5?$AAo?$AAf?$AA?5?$AAs?$AAt?$AAr?$AAi?$AAn?$AAg?$AA?5@
	newobj		??0ArgumentOutOfRangeException@System@@$$FQE$AAM@PE$AAVString@1@@Z
	throw.u2	
$LN2@WriteAnsiS:

; 107  :                 }
; 108  : 
; 109  :                 const auto _written = static_cast<size_t>(::WideCharToMultiByte(CP_THREAD_ACP, WC_NO_BEST_FIT_CHARS,

	ldc.i.3		3		; u32 0x3
	ldc.i4		1024		; u32 0x400
	ldloc.1				; _pinned_ptr$
	ldarg.2				; _str$
	call		?get@Length@String@System@@$$FQE$AAMHXZ
	ldarg.0				; _buf$
	ldarg.1				; _size$
	conv.i4		
	ldc.i.0		0		; i64 0x0
	conv.i8		
	ldc.i.0		0		; i64 0x0
	conv.i8		
	call		?WideCharToMultiByte@@$$J0YAHIKPEB_WHPEADHPEBDPEAH@Z
	conv.i8		
	stloc.0				; _written$

; 110  :                         _pinned_ptr, _str->Length, _buf, static_cast<int>(_size), NULL, NULL));
; 111  :                 if( _written >= _size || (_written == 0 && _size != 1)) // allowing empty string

	ldloc.0				; _written$
	ldarg.1				; _size$
	bge.un.s	$LN4@WriteAnsiS
	ldloc.0				; _written$
	brtrue.s	$LN3@WriteAnsiS
	ldarg.1				; _size$
	ldc.i.1		1		; u64 0x1
	conv.i8		
	beq.s		$LN3@WriteAnsiS
$LN4@WriteAnsiS:

; 112  :                 {
; 113  :                         throw gcnew System::ArgumentException(_EXCEPTION_WC2MB);

	ldstr		$StringLiteralTok$??_C@_1NM@JJLECOOJ@?$AAC?$AAo?$AAn?$AAv?$AAe?$AAr?$AAs?$AAi?$AAo?$AAn?$AA?5?$AAf?$AAr?$AAo?$AAm@
	newobj		??0ArgumentException@System@@$$FQE$AAM@PE$AAVString@1@@Z
	throw.u2	
$LN3@WriteAnsiS:

; 114  :                 }
; 115  : 
; 116  :                 _buf[_written] = '\0';

	ldarg.0				; _buf$
	ldloc.0				; _written$
	add		
	ldc.i.0		0		; i8 0x0
	stind.i1	

; 117  :         }

	ret		
 .end ?WriteAnsiString@details@interop@msclr@@$$FYMXPEAD_KPE$AAVString@System@@@Z ; msclr::interop::details::WriteAnsiString
;	.proc.end.void
.global	
	.bss
.local	,4
; Function compile flags: /Odtp
	.text
	.comdat	any, ??0context_node_base@interop@msclr@@$$FQE$AAM@XZ
.global	??0context_node_base@interop@msclr@@$$FQE$AAM@XZ ; msclr::interop::context_node_base::context_node_base
??0context_node_base@interop@msclr@@$$FQE$AAM@XZ:	; msclr::interop::context_node_base::context_node_base
;	.proc.def	D:V()

; Function Header:
; max stack depth = 1
; function size = 7 bytes
; local varsig tk = 0x0 
; Exception Information:
; 0 handlers, each consisting of filtered handlers

;	.formal.mptr 0,"this$" SIG: Optional C Binding Modifier(token:0x717E2E1).class (token:0x717E2E3)

;	.proc.beg
	ldarg.0				; this$
	call		??0Object@System@@$$FQE$AAM@XZ
	ret		
 .end ??0context_node_base@interop@msclr@@$$FQE$AAM@XZ	; msclr::interop::context_node_base::context_node_base
;	.proc.end.void
.global	?_Needs_Context@context_node_base@interop@msclr@@2_NB ; msclr::interop::context_node_base::_Needs_Context
	.bss
.local	?_Needs_Context@context_node_base@interop@msclr@@2_NB,1 ; msclr::interop::context_node_base::_Needs_Context
; Function compile flags: /Odtp
	.text
	.comdat	any, ?.cctor@context_node_base@interop@msclr@@$$FSMXXZ
.global	?.cctor@context_node_base@interop@msclr@@$$FSMXXZ ; ?.cctor@context_node_base@interop@msclr@@$$FSMXXZ
?.cctor@context_node_base@interop@msclr@@$$FSMXXZ:	; ?.cctor@context_node_base@interop@msclr@@$$FSMXXZ
;	.proc.def	D:V()

; Function Header:
; max stack depth = 1
; function size = 7 bytes
; local varsig tk = 0x0 
; Exception Information:
; 0 handlers, each consisting of filtered handlers


;	.proc.beg
	ldc.i.1		1		; u8 0x1
	stsfld		?_Needs_Context@context_node_base@interop@msclr@@2_NB
	ret		
 .end ?.cctor@context_node_base@interop@msclr@@$$FSMXXZ	; ?.cctor@context_node_base@interop@msclr@@$$FSMXXZ
;	.proc.end.void
.global	
.global	?_ptr@?$context_node@PEBDPE$AAVString@System@@@interop@msclr@@3PEADEA ; msclr::interop::context_node<char const *,System::String ^>::_ptr
	.bss
	.align	4
.local	,4
	.align	8
.local	?_ptr@?$context_node@PEBDPE$AAVString@System@@@interop@msclr@@3PEADEA,8 ; msclr::interop::context_node<char const *,System::String ^>::_ptr
; Function compile flags: /Odtp
; File C:\Program Files (x86)\Microsoft Visual Studio\2019\Enterprise\VC\Tools\MSVC\14.27.29110\include\msclr\marshal.h
	.text
	.comdat	any, ?<Finalizer>@?$context_node@PEBDPE$AAVString@System@@@interop@msclr@@$$FAE$AAMXXZ
.global	?<Finalizer>@?$context_node@PEBDPE$AAVString@System@@@interop@msclr@@$$FAE$AAMXXZ ; msclr::interop::context_node<char const *,System::String ^>::<Finalizer>
?<Finalizer>@?$context_node@PEBDPE$AAVString@System@@@interop@msclr@@$$FAE$AAMXXZ: ; msclr::interop::context_node<char const *,System::String ^>::<Finalizer>
;	.proc.def	D:V()

; Function Header:
; max stack depth = 1
; function size = 12 bytes
; local varsig tk = 0x0 
; Exception Information:
; 0 handlers, each consisting of filtered handlers

;	.formal.mptr 0,"this$" SIG: Optional C Binding Modifier(token:0x72066F9).class (token:0x72066FB)

;	.proc.beg

; 309  :                         delete [] _ptr;

	ldarg.0				; this$
	ldfld		?_ptr@?$context_node@PEBDPE$AAVString@System@@@interop@msclr@@3PEADEA
	call		??_V@$$FYAXPEAX@Z

; 310  :                 }

	ret		
 .end ?<Finalizer>@?$context_node@PEBDPE$AAVString@System@@@interop@msclr@@$$FAE$AAMXXZ ; msclr::interop::context_node<char const *,System::String ^>::<Finalizer>
;	.proc.end.void
.global	
.global	
.global	?_ip@?$context_node@PEB_WPE$AAVString@System@@@interop@msclr@@3VIntPtr@System@@A ; msclr::interop::context_node<wchar_t const *,System::String ^>::_ip
	.bss
.local	,4
.local	,4
.local	?_ip@?$context_node@PEB_WPE$AAVString@System@@@interop@msclr@@3VIntPtr@System@@A,8 ; msclr::interop::context_node<wchar_t const *,System::String ^>::_ip
.local	$T1,0
; Function compile flags: /Odtp
; File C:\Program Files (x86)\Microsoft Visual Studio\2019\Enterprise\VC\Tools\MSVC\14.27.29110\include\msclr\marshal.h
	.text
	.comdat	any, ??0?$context_node@PEB_WPE$AAVString@System@@@interop@msclr@@$$FQE$AAM@AEAPEB_WPE$AAVString@System@@@Z
.global	??0?$context_node@PEB_WPE$AAVString@System@@@interop@msclr@@$$FQE$AAM@AEAPEB_WPE$AAVString@System@@@Z ; msclr::interop::context_node<wchar_t const *,System::String ^>::context_node<wchar_t const *,System::String ^>
??0?$context_node@PEB_WPE$AAVString@System@@@interop@msclr@@$$FQE$AAM@AEAPEB_WPE$AAVString@System@@@Z: ; msclr::interop::context_node<wchar_t const *,System::String ^>::context_node<wchar_t const *,System::String ^>
;	.proc.def	D:V(JP)

; Function Header:
; max stack depth = 2
; function size = 34 bytes
; local varsig tk = 0x110000C6 
; Exception Information:
; 0 handlers, each consisting of filtered handlers

;	.formal.mptr 0,"this$" SIG: Optional C Binding Modifier(token:0x7173B71).class (token:0x7173B73)
;	.formal.i8 1,"_to_object$" SIG: Optional C Binding Modifier(token:0x7237AB9).ptr.ptr.Optional C Binding Modifier(token:0x7237ABD).char
;	.formal.mptr 2,"_from_object$" SIG: string
;	.local.mb8   0,"$T2" SIG: Unknown COM+ Object Signature

;	.proc.beg

; 321  :                 {

	ldarg.0				; this$
	call		??0context_node_base@interop@msclr@@$$FQE$AAM@XZ

; 322  :                         _ip = System::Runtime::InteropServices::Marshal::StringToHGlobalUni (_from_object);

	ldarg.2				; _from_object$
	call		?StringToHGlobalUni@Marshal@InteropServices@Runtime@System@@$$FSM?AVIntPtr@4@PE$AAVString@4@@Z
	stloc.0				; $T2
	ldarg.0				; this$
	ldloc.0				; $T2
	stfld		?_ip@?$context_node@PEB_WPE$AAVString@System@@@interop@msclr@@3VIntPtr@System@@A

; 323  :                         _to_object = static_cast<wchar_t*>(_ip.ToPointer());

	ldarg.1				; _to_object$
	ldarg.0				; this$
	ldflda		?_ip@?$context_node@PEB_WPE$AAVString@System@@@interop@msclr@@3VIntPtr@System@@A
	call		?ToPointer@IntPtr@System@@$$FQE$CAMPEAXXZ
	stind.i8	

; 324  :                 }

	ret		
 .end ??0?$context_node@PEB_WPE$AAVString@System@@@interop@msclr@@$$FQE$AAM@AEAPEB_WPE$AAVString@System@@@Z ; msclr::interop::context_node<wchar_t const *,System::String ^>::context_node<wchar_t const *,System::String ^>
;	.proc.end.void
.global	?Zero@IntPtr@System@@2V12@A			; System::IntPtr::Zero
	.bss
.local	$TypeTok$11218FBC$,4
	.align	8
.local	?Zero@IntPtr@System@@2V12@A,8			; System::IntPtr::Zero
; Function compile flags: /Odtp
; File C:\Program Files (x86)\Microsoft Visual Studio\2019\Enterprise\VC\Tools\MSVC\14.27.29110\include\msclr\marshal.h
	.text
	.comdat	any, ?<Finalizer>@?$context_node@PEB_WPE$AAVString@System@@@interop@msclr@@$$FAE$AAMXXZ
.global	?<Finalizer>@?$context_node@PEB_WPE$AAVString@System@@@interop@msclr@@$$FAE$AAMXXZ ; msclr::interop::context_node<wchar_t const *,System::String ^>::<Finalizer>
?<Finalizer>@?$context_node@PEB_WPE$AAVString@System@@@interop@msclr@@$$FAE$AAMXXZ: ; msclr::interop::context_node<wchar_t const *,System::String ^>::<Finalizer>
;	.proc.def	D:V()

; Function Header:
; max stack depth = 2
; function size = 40 bytes
; local varsig tk = 0x0 
; Exception Information:
; 0 handlers, each consisting of filtered handlers

;	.formal.mptr 0,"this$" SIG: Optional C Binding Modifier(token:0x7173B71).class (token:0x7173B73)

;	.proc.beg

; 334  :                         if(_ip != System::IntPtr::Zero)

	ldarg.0				; this$
	ldflda		?_ip@?$context_node@PEB_WPE$AAVString@System@@@interop@msclr@@3VIntPtr@System@@A
	ldobj		$TypeTok$11218FBC$
	ldsfld		?Zero@IntPtr@System@@2V12@A
	call		??9IntPtr@System@@$$FSM_NV01@0@Z
	brfalse.s	$LN1@

; 335  :                                 System::Runtime::InteropServices::Marshal::FreeHGlobal(_ip);

	ldarg.0				; this$
	ldflda		?_ip@?$context_node@PEB_WPE$AAVString@System@@@interop@msclr@@3VIntPtr@System@@A
	ldobj		$TypeTok$11218FBC$
	call		?FreeHGlobal@Marshal@InteropServices@Runtime@System@@$$FSMXVIntPtr@4@@Z
$LN1@:

; 336  :                 }

	ret		
 .end ?<Finalizer>@?$context_node@PEB_WPE$AAVString@System@@@interop@msclr@@$$FAE$AAMXXZ ; msclr::interop::context_node<wchar_t const *,System::String ^>::<Finalizer>
;	.proc.end.void
.global	
.global	?_clean_up_list@marshal_context@interop@msclr@@3V?$LinkedList@PE$AAVObject@System@@@Generic@Collections@System@@A ; msclr::interop::marshal_context::_clean_up_list
	.bss
.local	,4
	.align	8
.local	?_clean_up_list@marshal_context@interop@msclr@@3V?$LinkedList@PE$AAVObject@System@@@Generic@Collections@System@@A,8 ; msclr::interop::marshal_context::_clean_up_list
; Function compile flags: /Odtp
; File C:\Program Files (x86)\Microsoft Visual Studio\2019\Enterprise\VC\Tools\MSVC\14.27.29110\include\msclr\marshal.h
	.text
	.comdat	any, ??0marshal_context@interop@msclr@@$$FQE$AAM@XZ
.global	??0marshal_context@interop@msclr@@$$FQE$AAM@XZ	; msclr::interop::marshal_context::marshal_context
??0marshal_context@interop@msclr@@$$FQE$AAM@XZ:		; msclr::interop::marshal_context::marshal_context
;	.proc.def	D:V()

; Function Header:
; max stack depth = 2
; function size = 18 bytes
; local varsig tk = 0x0 
; Exception Information:
; 0 handlers, each consisting of filtered handlers

;	.formal.mptr 0,"this$" SIG: Optional C Binding Modifier(token:0x7290C11).class (token:0x7290C13)

;	.proc.beg

; 407  :         marshal_context() {}

	ldarg.0				; this$
	newobj		??0?$LinkedList@PE$AAVObject@System@@@Generic@Collections@System@@$$FQE$AAM@XZ
	stfld		?_clean_up_list@marshal_context@interop@msclr@@3V?$LinkedList@PE$AAVObject@System@@@Generic@Collections@System@@A
	ldarg.0				; this$
	call		??0Object@System@@$$FQE$AAM@XZ
	ret		
 .end ??0marshal_context@interop@msclr@@$$FQE$AAM@XZ	; msclr::interop::marshal_context::marshal_context
;	.proc.end.void
.global	
.global	
	.bss
.local	,4
.local	,4
.local	$TypeTok$11218D3C$,4
.local	$T1,0
; Function compile flags: /Odtp
; File C:\Program Files (x86)\Microsoft Visual Studio\2019\Enterprise\VC\Tools\MSVC\14.27.29110\include\msclr\marshal.h
	.text
	.comdat	any, ??1marshal_context@interop@msclr@@$$FAE$AAM@XZ
.global	??1marshal_context@interop@msclr@@$$FAE$AAM@XZ	; msclr::interop::marshal_context::~marshal_context
??1marshal_context@interop@msclr@@$$FAE$AAM@XZ:		; msclr::interop::marshal_context::~marshal_context
;	.proc.def	D:V()

; Function Header:
; max stack depth = 1
; function size = 58 bytes
; local varsig tk = 0x110000CA 
; Exception Information:
; 0 handlers, each consisting of filtered handlers

;	.formal.mptr 0,"this$" SIG: Optional C Binding Modifier(token:0x7290C11).class (token:0x7290C13)
;	.local.mptr 0,"$T2" SIG: class (token:0x72289D1)
;	.local.mptr 1,"_obj$3" SIG: Unknown COM+ Object Signature
;	.local.i8 2,"tv81"
;	.local.mb48  3,"$S1$4" SIG: genericInst (token:0x100006C) <Unknown COM+ Object Signature>

;	.proc.beg

; 410  :         {

	ldnull		0		; i64 0x0
	stloc.1				; _obj$3

; 411  :                 for each(Object^ _obj in _clean_up_list)

	ldarg.0				; this$
	ldfld		?_clean_up_list@marshal_context@interop@msclr@@3V?$LinkedList@PE$AAVObject@System@@@Generic@Collections@System@@A
	call		?GetEnumerator@?$LinkedList@PE$AAVObject@System@@@Generic@Collections@System@@$$FQE$AAM?AVEnumerator@1234@XZ
	stloc.3				; $S1$4
$LN2@marshal_co:
	ldloca.s	3		; $S1$4
	call		?MoveNext@Enumerator@?$LinkedList@PE$AAVObject@System@@@Generic@Collections@System@@$$FUE$CAM_NXZ
	brfalse.s	$LN1@marshal_co
	ldloca.s	3		; $S1$4
	call		?get@Current@Enumerator@?$LinkedList@PE$AAVObject@System@@@Generic@Collections@System@@$$FUE$CAMPE$AAVObject@6@XZ
	stloc.1				; _obj$3

; 412  :                         delete _obj;

	ldloc.1				; _obj$3
	isInst		$TypeTok$11218D3C$
	stloc.0				; $T2
	ldloc.0				; $T2
	brfalse.s	$LN5@marshal_co
	ldloc.0				; $T2
	callvirt	?<Dispose>@IDisposable@System@@$$FUE$AAMXXZ
	ldc.i.0		0		; i64 0x0
	conv.i8		
	stloc.2				
	br.s		$LN6@marshal_co
$LN5@marshal_co:
	ldc.i.0		0		; i64 0x0
	conv.i8		
	stloc.2				
$LN6@marshal_co:
	br.s		$LN2@marshal_co
$LN1@marshal_co:

; 413  :         }

	ret		
 .end ??1marshal_context@interop@msclr@@$$FAE$AAM@XZ	; msclr::interop::marshal_context::~marshal_context
;	.proc.end.void
; Function compile flags: /Odtp
	.text
	.comdat	any, ?<Dispose>@marshal_context@interop@msclr@@$$FME$AAMX_N@Z
.global	?<Dispose>@marshal_context@interop@msclr@@$$FME$AAMX_N@Z ; msclr::interop::marshal_context::<Dispose>
?<Dispose>@marshal_context@interop@msclr@@$$FME$AAMX_N@Z: ; msclr::interop::marshal_context::<Dispose>
;	.proc.def	D:V(I)

; Function Header:
; max stack depth = 1
; function size = 18 bytes
; local varsig tk = 0x0 
; Exception Information:
; 0 handlers, each consisting of filtered handlers

;	.formal.mptr 0,"this$" SIG: Optional C Binding Modifier(token:0x7290C11).class (token:0x7290C13)
;	.formal.u1 1,"disposing$" SIG: bool

;	.proc.beg
	ldarg.1				; disposing$
	brfalse.s	$LN2@
	ldarg.0				; this$
	call		??1marshal_context@interop@msclr@@$$FAE$AAM@XZ
	br.s		$LN1@
$LN2@:
	ldarg.0				; this$
	call		?<Finalize>@Object@System@@$$FME$AAMXXZ
$LN1@:
	ret		
 .end ?<Dispose>@marshal_context@interop@msclr@@$$FME$AAMX_N@Z ; msclr::interop::marshal_context::<Dispose>
;	.proc.end.void
.global	
.global	
	.bss
.local	,4
.local	,4
.local	$T1,0
; Function compile flags: /Odtp
; File C:\Users\César Mosqueira\source\repos\CLRCV\CLRCV\EQ_functions.hpp
	.text
.global	?round_this@@$$FYAMAEBM@Z			; round_this
?round_this@@$$FYAMAEBM@Z:				; round_this
;	.proc.def	D:R(J)

; Function Header:
; max stack depth = 2
; function size = 42 bytes
; local varsig tk = 0x110000CD 
; Exception Information:
; 0 handlers, each consisting of filtered handlers

;	.formal.i8 0,"var$" SIG: Optional C Binding Modifier(token:0x7255A39).ptr.Optional C Binding Modifier(token:0x7255A3C).r4
;	.local.r4 0,"$T2" SIG: r4
;	.local.r4 1,"value$" SIG: r4

;	.proc.beg

; 21   : 	float value = (int)(var * 100 + .5);

	ldarg.0				; var$
	ldind.r4	
	conv.r8		
	ldc.r8		100.000000
	mul		
	ldc.r8		0.500000
	add		
	conv.i4		
	conv.r4		
	stloc.1				; value$

; 22   : 	return (float)value / 100;

	ldloc.1				; value$
	conv.r8		
	ldc.r8		100.000000
	div		
	conv.r4		
	stloc.0				; $T2

; 23   : }

	ldloc.0				; $T2
	ret		
 .end ?round_this@@$$FYAMAEBM@Z				; round_this
;	.proc.end.r4
PUBLIC	?round_this@@YAMAEBM@Z				; round_this
PUBLIC	__m2mep@?round_this@@$$FYAMAEBM@Z
PUBLIC	__mep@?round_this@@$$FYAMAEBM@Z
;	COMDAT __mep@?round_this@@$$FYAMAEBM@Z
data	SEGMENT
__mep@?round_this@@$$FYAMAEBM@Z TOKEN 0A000473
data	ENDS
;	COMDAT __m2mep@?round_this@@$$FYAMAEBM@Z
data	SEGMENT
__m2mep@?round_this@@$$FYAMAEBM@Z DD FLAT:?round_this@@$$FYAMAEBM@Z
data	ENDS
; Function compile flags: /Ods
;	COMDAT nep
_TEXT	SEGMENT
?round_this@@YAMAEBM@Z PROC				; round_this, COMDAT
	jmp	SHORT $LN1@round_this
	ud2
$LN2@round_this:
	jmp	QWORD PTR __m2mep@?round_this@@$$FYAMAEBM@Z
$LN1@round_this:
	jmp	QWORD PTR __mep@?round_this@@$$FYAMAEBM@Z
?round_this@@YAMAEBM@Z ENDP				; round_this
_TEXT	ENDS
.global	
	.bss
.local	,4
; Function compile flags: /Odtp
	.text
	.comdat	any, ?<MarshalDestroy>@Mat@cv@@$$FSMXPEAV12@@Z
.global	?<MarshalDestroy>@Mat@cv@@$$FSMXPEAV12@@Z	; cv::Mat::<MarshalDestroy>
?<MarshalDestroy>@Mat@cv@@$$FSMXPEAV12@@Z:		; cv::Mat::<MarshalDestroy>
;	.proc.def	D:V(J)

; Function Header:
; max stack depth = 1
; function size = 7 bytes
; local varsig tk = 0x0 
; Exception Information:
; 0 handlers, each consisting of filtered handlers

;	.formal.i8 0,"__P0$" SIG: ptr.valueType (token:0x7290622)

;	.proc.beg
	ldarg.0				; __P0$
	call		??1Mat@cv@@$$FQEAA@XZ
	ret		
 .end ?<MarshalDestroy>@Mat@cv@@$$FSMXPEAV12@@Z		; cv::Mat::<MarshalDestroy>
;	.proc.end.void
PUBLIC	__t2m@?<MarshalDestroy>@Mat@cv@@SMXPEAV12@@Z
PUBLIC	__m2mep@?<MarshalDestroy>@Mat@cv@@$$FSMXPEAV12@@Z
PUBLIC	__mep@?<MarshalDestroy>@Mat@cv@@$$FSMXPEAV12@@Z
;	COMDAT __mep@?<MarshalDestroy>@Mat@cv@@$$FSMXPEAV12@@Z
data	SEGMENT
__mep@?<MarshalDestroy>@Mat@cv@@$$FSMXPEAV12@@Z TOKEN 060000E0
data	ENDS
;	COMDAT __m2mep@?<MarshalDestroy>@Mat@cv@@$$FSMXPEAV12@@Z
data	SEGMENT
__m2mep@?<MarshalDestroy>@Mat@cv@@$$FSMXPEAV12@@Z DD FLAT:?<MarshalDestroy>@Mat@cv@@$$FSMXPEAV12@@Z
data	ENDS
; Function compile flags: /Ods
;	COMDAT nep
_TEXT	SEGMENT
__t2m@?<MarshalDestroy>@Mat@cv@@SMXPEAV12@@Z PROC	; COMDAT
	jmp	SHORT $LN1@
	ud2
$LN2@:
	jmp	QWORD PTR __m2mep@?<MarshalDestroy>@Mat@cv@@$$FSMXPEAV12@@Z
$LN1@:
	jmp	QWORD PTR __mep@?<MarshalDestroy>@Mat@cv@@$$FSMXPEAV12@@Z
__t2m@?<MarshalDestroy>@Mat@cv@@SMXPEAV12@@Z ENDP
_TEXT	ENDS
.global	
.global	?components@Display@CLRCV@@3PE$AAVContainer@ComponentModel@System@@E$AA ; CLRCV::Display::components
	.bss
.local	,4
	.align	8
.local	?components@Display@CLRCV@@3PE$AAVContainer@ComponentModel@System@@E$AA,8 ; CLRCV::Display::components
.local	$T1,0
; Function compile flags: /Odtp
; File C:\Users\César Mosqueira\source\repos\CLRCV\CLRCV\Display.h
	.text
	.comdat	any, ??1Display@CLRCV@@$$FAE$AAM@XZ
.global	??1Display@CLRCV@@$$FAE$AAM@XZ			; CLRCV::Display::~Display
??1Display@CLRCV@@$$FAE$AAM@XZ:				; CLRCV::Display::~Display
;	.proc.def	D:V()

; Function Header:
; max stack depth = 1
; function size = 33 bytes
; local varsig tk = 0x110000D0 
; Exception Information:
; 0 handlers, each consisting of filtered handlers

;	.formal.mptr 0,"this$" SIG: Optional C Binding Modifier(token:0x7199EA1).class (token:0x7199EA3)
;	.local.mptr 0,"$T2" SIG: class (token:0x72CA5F9)
;	.local.i8 1,"tv74"

;	.proc.beg

; 35   : 			if (components)

	ldarg.0				; this$
	ldfld		?components@Display@CLRCV@@3PE$AAVContainer@ComponentModel@System@@E$AA
	brfalse.s	$LN1@Display

; 36   : 			{
; 37   : 				delete components;

	ldarg.0				; this$
	ldfld		?components@Display@CLRCV@@3PE$AAVContainer@ComponentModel@System@@E$AA
	stloc.0				; $T2
	ldloc.0				; $T2
	brfalse.s	$LN4@Display
	ldloc.0				; $T2
	callvirt	?<Dispose>@IDisposable@System@@$$FUE$AAMXXZ
	ldc.i.0		0		; i64 0x0
	conv.i8		
	stloc.1				
	br.s		$LN1@Display
$LN4@Display:
	ldc.i.0		0		; i64 0x0
	conv.i8		
	stloc.1				
$LN1@Display:

; 38   : 			}
; 39   : 		}

	ret		
 .end ??1Display@CLRCV@@$$FAE$AAM@XZ			; CLRCV::Display::~Display
;	.proc.end.void
.global	
.global	?dialogFile@Display@CLRCV@@3PE$AAVOpenFileDialog@Forms@Windows@System@@E$AA ; CLRCV::Display::dialogFile
.global	?image_path@Display@CLRCV@@3PE$AAVTextBox@Forms@Windows@System@@E$AA ; CLRCV::Display::image_path
	.bss
.local	,4
	.align	8
.local	?dialogFile@Display@CLRCV@@3PE$AAVOpenFileDialog@Forms@Windows@System@@E$AA,8 ; CLRCV::Display::dialogFile
.local	$StringLiteralTok$??_C@_1CA@MAOJCACB@?$AAS?$AAe?$AAl?$AAe?$AAc?$AAt?$AA?5?$AAa?$AAn?$AA?5?$AAi?$AAm?$AAa?$AAg?$AAe@,4
	.align	8
.local	?image_path@Display@CLRCV@@3PE$AAVTextBox@Forms@Windows@System@@E$AA,8 ; CLRCV::Display::image_path
; Function compile flags: /Odtp
; File C:\Users\César Mosqueira\source\repos\CLRCV\CLRCV\Display.h
	.text
	.comdat	any, ?examinate_Click@Display@CLRCV@@$$FAE$AAMXPE$AAVObject@System@@PE$AAVEventArgs@4@@Z
.global	?examinate_Click@Display@CLRCV@@$$FAE$AAMXPE$AAVObject@System@@PE$AAVEventArgs@4@@Z ; CLRCV::Display::examinate_Click
?examinate_Click@Display@CLRCV@@$$FAE$AAMXPE$AAVObject@System@@PE$AAVEventArgs@4@@Z: ; CLRCV::Display::examinate_Click
;	.proc.def	D:V(PP)

; Function Header:
; max stack depth = 2
; function size = 51 bytes
; local varsig tk = 0x0 
; Exception Information:
; 0 handlers, each consisting of filtered handlers

;	.formal.mptr 0,"this$" SIG: Optional C Binding Modifier(token:0x7199EA1).class (token:0x7199EA3)

;	.proc.beg

; 277  : 	
; 278  : 	dialogFile->Title = "Select an image";

	ldarg.0				; this$
	ldfld		?dialogFile@Display@CLRCV@@3PE$AAVOpenFileDialog@Forms@Windows@System@@E$AA
	ldstr		$StringLiteralTok$??_C@_1CA@MAOJCACB@?$AAS?$AAe?$AAl?$AAe?$AAc?$AAt?$AA?5?$AAa?$AAn?$AA?5?$AAi?$AAm?$AAa?$AAg?$AAe@
	call		?set@Title@FileDialog@Forms@Windows@System@@$$FQE$AAMXPE$AAVString@5@@Z

; 279  : 	dialogFile->ShowDialog();

	ldarg.0				; this$
	ldfld		?dialogFile@Display@CLRCV@@3PE$AAVOpenFileDialog@Forms@Windows@System@@E$AA
	call		?ShowDialog@CommonDialog@Forms@Windows@System@@$$FQE$AAM?AW4DialogResult@234@XZ
	pop		

; 280  : 	image_path->Text = dialogFile->FileName;

	ldarg.0				; this$
	ldfld		?image_path@Display@CLRCV@@3PE$AAVTextBox@Forms@Windows@System@@E$AA
	ldarg.0				; this$
	ldfld		?dialogFile@Display@CLRCV@@3PE$AAVOpenFileDialog@Forms@Windows@System@@E$AA
	call		?get@FileName@FileDialog@Forms@Windows@System@@$$FQE$AAMPE$AAVString@5@XZ
	callvirt	?set@Text@TextBox@Forms@Windows@System@@$$FUE$AAMXPE$AAVString@5@@Z

; 281  : 	
; 282  : }

	ret		
 .end ?examinate_Click@Display@CLRCV@@$$FAE$AAMXPE$AAVObject@System@@PE$AAVEventArgs@4@@Z ; CLRCV::Display::examinate_Click
;	.proc.end.void
; Function compile flags: /Odtp
; File C:\Users\César Mosqueira\source\repos\CLRCV\CLRCV\Display.h
	.text
	.comdat	any, ?Display_Load@Display@CLRCV@@$$FAE$AAMXPE$AAVObject@System@@PE$AAVEventArgs@4@@Z
.global	?Display_Load@Display@CLRCV@@$$FAE$AAMXPE$AAVObject@System@@PE$AAVEventArgs@4@@Z ; CLRCV::Display::Display_Load
?Display_Load@Display@CLRCV@@$$FAE$AAMXPE$AAVObject@System@@PE$AAVEventArgs@4@@Z: ; CLRCV::Display::Display_Load
;	.proc.def	D:V(PP)

; Function Header:
; max stack depth = 0
; function size = 1 bytes
; local varsig tk = 0x0 
; Exception Information:
; 0 handlers, each consisting of filtered handlers


;	.proc.beg

; 284  : }

	ret		
 .end ?Display_Load@Display@CLRCV@@$$FAE$AAMXPE$AAVObject@System@@PE$AAVEventArgs@4@@Z ; CLRCV::Display::Display_Load
;	.proc.end.void
; Function compile flags: /Odtp
	.text
	.comdat	any, ?<Dispose>@Display@CLRCV@@$$FME$AAMX_N@Z
.global	?<Dispose>@Display@CLRCV@@$$FME$AAMX_N@Z	; CLRCV::Display::<Dispose>
?<Dispose>@Display@CLRCV@@$$FME$AAMX_N@Z:		; CLRCV::Display::<Dispose>
;	.proc.def	D:V(I)

; Function Header:
; max stack depth = 2
; function size = 29 bytes
; local varsig tk = 0x0 
; Exception Information:
; 1 handlers, each consisting of filtered handlers

;	.formal.mptr 0,"this$" SIG: Optional C Binding Modifier(token:0x7199EA1).class (token:0x7199EA3)
;	.formal.u1 1,"disposing$" SIG: bool

;	.proc.beg
	ldarg.1				; disposing$
	brfalse.s	$LN2@
$LN13@:
	ldarg.0				; this$
	call		??1Display@CLRCV@@$$FAE$AAM@XZ
$LN8@:
	leave.s		$LN12@
$LN7@:
	ldarg.0				; this$
	ldc.i.1		1		; u8 0x1
	call		?<Dispose>@Form@Forms@Windows@System@@$$FME$AAMX_N@Z
$LN9@:
	endfinally	
$LN12@:
	br.s		$LN6@
$LN2@:
	ldarg.0				; this$
	ldc.i.0		0		; u8 0x0
	call		?<Dispose>@Form@Forms@Windows@System@@$$FME$AAMX_N@Z
$LN6@:
	ret		
 .end ?<Dispose>@Display@CLRCV@@$$FME$AAMX_N@Z		; CLRCV::Display::<Dispose>
;	.proc.end.void
.global	
	.bss
.local	,4
.local	$T1,0
; Function compile flags: /Odtp
; File C:\Program Files (x86)\Microsoft Visual Studio\2019\Enterprise\VC\Tools\MSVC\14.27.29110\include\msclr\marshal.h
	.text
	.comdat	any, ?release@?$char_buffer@D@details@interop@msclr@@$$FQEAAPEADXZ
.global	?release@?$char_buffer@D@details@interop@msclr@@$$FQEAAPEADXZ ; msclr::interop::details::char_buffer<char>::release
?release@?$char_buffer@D@details@interop@msclr@@$$FQEAAPEADXZ: ; msclr::interop::details::char_buffer<char>::release
;	.proc.def	D:J(J)

; Function Header:
; max stack depth = 2
; function size = 11 bytes
; local varsig tk = 0x110000D3 
; Exception Information:
; 0 handlers, each consisting of filtered handlers

;	.formal.i8 0,"this$" SIG: Optional C Binding Modifier(token:0x7200319).Optional C Binding Modifier(token:0x720031B).ptr.valueType (token:0x720031E)
;	.local.i8 0,"$T2" SIG: ptr.Optional C Binding Modifier(token:0x89028E2).i1
;	.local.i8 1,"_ret_value$" SIG: ptr.Optional C Binding Modifier(token:0x7207992).i1

;	.proc.beg

; 69   :                         T *_ret_value = _ptr;

	ldarg.0				; this$
	ldind.i8	
	stloc.1				; _ret_value$

; 70   :                         _ptr = NULL;

	ldarg.0				; this$
	ldc.i.0		0		; i64 0x0
	conv.i8		
	stind.i8	

; 71   :                         return _ret_value;

	ldloc.1				; _ret_value$
	stloc.0				; $T2

; 72   :                 }

	ldloc.0				; $T2
	ret		
 .end ?release@?$char_buffer@D@details@interop@msclr@@$$FQEAAPEADXZ ; msclr::interop::details::char_buffer<char>::release
;	.proc.end.i8
.global	
	.bss
.local	,4
.local	$T1,0
; Function compile flags: /Odtp
; File C:\Program Files (x86)\Microsoft Visual Studio\2019\Enterprise\VC\Tools\MSVC\14.27.29110\include\msclr\marshal.h
	.text
	.comdat	any, ?get@?$char_buffer@D@details@interop@msclr@@$$FQEBAPEADXZ
.global	?get@?$char_buffer@D@details@interop@msclr@@$$FQEBAPEADXZ ; msclr::interop::details::char_buffer<char>::get
?get@?$char_buffer@D@details@interop@msclr@@$$FQEBAPEADXZ: ; msclr::interop::details::char_buffer<char>::get
;	.proc.def	D:J(J)

; Function Header:
; max stack depth = 1
; function size = 5 bytes
; local varsig tk = 0x110000D5 
; Exception Information:
; 0 handlers, each consisting of filtered handlers

;	.formal.i8 0,"this$" SIG: Optional C Binding Modifier(token:0x72CBB31).Optional C Binding Modifier(token:0x72CBB33).ptr.Optional C Binding Modifier(token:0x72CBB36).valueType (token:0x72CBB38)
;	.local.i8 0,"$T2" SIG: ptr.Optional C Binding Modifier(token:0x89030F2).i1

;	.proc.beg

; 64   :                         return _ptr;

	ldarg.0				; this$
	ldind.i8	
	stloc.0				; $T2

; 65   :                 }

	ldloc.0				; $T2
	ret		
 .end ?get@?$char_buffer@D@details@interop@msclr@@$$FQEBAPEADXZ ; msclr::interop::details::char_buffer<char>::get
;	.proc.end.i8
; Function compile flags: /Odtp
; File C:\Program Files (x86)\Microsoft Visual Studio\2019\Enterprise\VC\Tools\MSVC\14.27.29110\include\msclr\marshal.h
	.text
	.comdat	any, ??1?$char_buffer@D@details@interop@msclr@@$$FQEAA@XZ
.global	??1?$char_buffer@D@details@interop@msclr@@$$FQEAA@XZ ; msclr::interop::details::char_buffer<char>::~char_buffer<char>
??1?$char_buffer@D@details@interop@msclr@@$$FQEAA@XZ:	; msclr::interop::details::char_buffer<char>::~char_buffer<char>
;	.proc.def	D:V(J)

; Function Header:
; max stack depth = 1
; function size = 8 bytes
; local varsig tk = 0x0 
; Exception Information:
; 0 handlers, each consisting of filtered handlers

;	.formal.i8 0,"this$" SIG: Optional C Binding Modifier(token:0x7200319).Optional C Binding Modifier(token:0x720031B).ptr.valueType (token:0x720031E)

;	.proc.beg

; 59   :                         delete [] _ptr;

	ldarg.0				; this$
	ldind.i8	
	call		??_V@$$FYAXPEAX@Z

; 60   :                 }

	ret		
 .end ??1?$char_buffer@D@details@interop@msclr@@$$FQEAA@XZ ; msclr::interop::details::char_buffer<char>::~char_buffer<char>
;	.proc.end.void
	.bss
.local	$T1,0
; Function compile flags: /Odtp
; File C:\Program Files (x86)\Microsoft Visual Studio\2019\Enterprise\VC\Tools\MSVC\14.27.29110\include\msclr\marshal.h
	.text
	.comdat	any, ??0?$char_buffer@D@details@interop@msclr@@$$FQEAA@_K@Z
.global	??0?$char_buffer@D@details@interop@msclr@@$$FQEAA@_K@Z ; msclr::interop::details::char_buffer<char>::char_buffer<char>
??0?$char_buffer@D@details@interop@msclr@@$$FQEAA@_K@Z:	; msclr::interop::details::char_buffer<char>::char_buffer<char>
;	.proc.def	D:J(JJ)

; Function Header:
; max stack depth = 2
; function size = 12 bytes
; local varsig tk = 0x110000D5 
; Exception Information:
; 0 handlers, each consisting of filtered handlers

;	.formal.i8 0,"this$" SIG: Optional C Binding Modifier(token:0x7200319).Optional C Binding Modifier(token:0x720031B).ptr.valueType (token:0x720031E)
;	.formal.u8 1,"_size$" SIG: u8
;	.local.i8 0,"$T2" SIG: ptr.Optional C Binding Modifier(token:0x7207992).i1

;	.proc.beg

; 53   :                 {
; 54   :                         _ptr = new T[_size];

	ldarg.1				; _size$
	call		??_U@$$FYAPEAX_K@Z
	stloc.0				; $T2
	ldarg.0				; this$
	ldloc.0				; $T2
	stind.i8	

; 55   :                 }

	ldarg.0				; this$
	ret		
 .end ??0?$char_buffer@D@details@interop@msclr@@$$FQEAA@_K@Z ; msclr::interop::details::char_buffer<char>::char_buffer<char>
;	.proc.end.i8
.global	
	.bss
.local	,4
.local	$T1,0
; Function compile flags: /Odtp
; File C:\Program Files (x86)\Microsoft Visual Studio\2019\Enterprise\VC\Tools\MSVC\14.27.29110\include\utility
	.text
	.comdat	any, ??$min@_K@std@@$$FYAAEB_KAEB_K0@Z
.global	??$min@_K@std@@$$FYAAEB_KAEB_K0@Z		; std::min<unsigned __int64>
??$min@_K@std@@$$FYAAEB_KAEB_K0@Z:			; std::min<unsigned __int64>
;	.proc.def	D:J(JJ)

; Function Header:
; max stack depth = 2
; function size = 13 bytes
; local varsig tk = 0x1100008E 
; Exception Information:
; 0 handlers, each consisting of filtered handlers

;	.formal.i8 0,"_Left$" SIG: Optional C Binding Modifier(token:0x72C4001).ptr.Optional C Binding Modifier(token:0x72C4004).u8
;	.formal.i8 1,"_Right$" SIG: Optional C Binding Modifier(token:0x72C4001).ptr.Optional C Binding Modifier(token:0x72C4004).u8
;	.local.i8 0,"$T2" SIG: Optional C Binding Modifier(token:0x891CFF1).ptr.Optional C Binding Modifier(token:0x891CFF4).u8

;	.proc.beg

; 68   :     // return smaller of _Left and _Right
; 69   :     return _Right < _Left ? _Right : _Left;

	ldarg.1				; _Right$
	ldind.i8	
	ldarg.0				; _Left$
	ldind.i8	
	bge.un.s	$LN3@min
	ldarg.1				; _Right$
	br.s		$LN4@min
$LN3@min:
	ldarg.0				; _Left$
$LN4@min:
	stloc.0				; $T2

; 70   : }

	ldloc.0				; $T2
	ret		
 .end ??$min@_K@std@@$$FYAAEB_KAEB_K0@Z			; std::min<unsigned __int64>
;	.proc.end.i8
.global	
.global	
.global	??_C@_0GI@BDJNFBPD@C?3?2Program?5Files?5?$CIx86?$CJ?2Microsof@ ; `string'
.global	??_C@_0BO@PFKOHNJC@vector?5subscript?5out?5of?5range@ ; `string'
.global	??_C@_1EA@LEKOKFNB@?$AA?$CC?$AAv?$AAe?$AAc?$AAt?$AAo?$AAr?$AA?5?$AAs?$AAu?$AAb?$AAs?$AAc?$AAr?$AAi@ ; `string'
.global	??_C@_1HK@EJDBECKJ@?$AAs?$AAt?$AAd?$AA?3?$AA?3?$AAv?$AAe?$AAc?$AAt?$AAo?$AAr?$AA?$DM?$AAf?$AAl?$AAo@ ; `string'
.global	??_C@_1NA@MKDIEAJP@?$AAC?$AA?3?$AA?2?$AAP?$AAr?$AAo?$AAg?$AAr?$AAa?$AAm?$AA?5?$AAF?$AAi?$AAl?$AAe@ ; `string'
	.bss
.local	,4
.local	,4
.local	$T1,0
	.rdata
	.comdat	any, ??_C@_1NA@MKDIEAJP@?$AAC?$AA?3?$AA?2?$AAP?$AAr?$AAo?$AAg?$AAr?$AAa?$AAm?$AA?5?$AAF?$AAi?$AAl?$AAe@

??_C@_1NA@MKDIEAJP@?$AAC?$AA?3?$AA?2?$AAP?$AAr?$AAo?$AAg?$AAr?$AAa?$AAm?$AA?5?$AAF?$AAi?$AAl?$AAe@: ; `string'
	.ascii	"C\000:\000\\\000P\000r\000o\000g\000r\000a\000m\000 \000"
	.ascii	"F\000i\000l\000e\000s\000 \000(\000x\0008\0006\000)\000\\"
	.ascii	"\000M\000i\000c\000r\000o\000s\000o\000f\000t\000 \000V\000"
	.ascii	"i\000s\000u\000a\000l\000 \000S\000t\000u\000d\000i\000o\000"
	.ascii	"\\\0002\0000\0001\0009\000\\\000E\000n\000t\000e\000r\000"
	.ascii	"p\000r\000i\000s\000e\000\\\000V\000C\000\\\000T\000o\000"
	.ascii	"o\000l\000s\000\\\000M\000S\000V\000C\000\\\0001\0004\000"
	.ascii	".\0002\0007\000.\0002\0009\0001\0001\0000\000\\\000i\000n"
	.ascii	"\000c\000l\000u\000d\000e\000\\\000v\000e\000c\000t\000o\000"
	.ascii	"r\000\000\000"
	.rdata
	.comdat	any, ??_C@_1HK@EJDBECKJ@?$AAs?$AAt?$AAd?$AA?3?$AA?3?$AAv?$AAe?$AAc?$AAt?$AAo?$AAr?$AA?$DM?$AAf?$AAl?$AAo@

??_C@_1HK@EJDBECKJ@?$AAs?$AAt?$AAd?$AA?3?$AA?3?$AAv?$AAe?$AAc?$AAt?$AAo?$AAr?$AA?$DM?$AAf?$AAl?$AAo@: ; `string'
	.ascii	"s\000t\000d\000:\000:\000v\000e\000c\000t\000o\000r\000<"
	.ascii	"\000f\000l\000o\000a\000t\000,\000c\000l\000a\000s\000s\000"
	.ascii	" \000s\000t\000d\000:\000:\000a\000l\000l\000o\000c\000a\000"
	.ascii	"t\000o\000r\000<\000f\000l\000o\000a\000t\000>\000 \000>\000"
	.ascii	":\000:\000o\000p\000e\000r\000a\000t\000o\000r\000 \000[\000"
	.ascii	"]\000\000\000"
	.rdata
	.comdat	any, ??_C@_1EA@LEKOKFNB@?$AA?$CC?$AAv?$AAe?$AAc?$AAt?$AAo?$AAr?$AA?5?$AAs?$AAu?$AAb?$AAs?$AAc?$AAr?$AAi@

??_C@_1EA@LEKOKFNB@?$AA?$CC?$AAv?$AAe?$AAc?$AAt?$AAo?$AAr?$AA?5?$AAs?$AAu?$AAb?$AAs?$AAc?$AAr?$AAi@: ; `string'
	.ascii	"\"\000v\000e\000c\000t\000o\000r\000 \000s\000u\000b\000"
	.ascii	"s\000c\000r\000i\000p\000t\000 \000o\000u\000t\000 \000o\000"
	.ascii	"f\000 \000r\000a\000n\000g\000e\000\"\000\000\000"
	.rdata
	.comdat	any, ??_C@_0BO@PFKOHNJC@vector?5subscript?5out?5of?5range@

??_C@_0BO@PFKOHNJC@vector?5subscript?5out?5of?5range@:	; `string'
	.ascii	"vector subscript out of range\000"
	.rdata
	.comdat	any, ??_C@_0GI@BDJNFBPD@C?3?2Program?5Files?5?$CIx86?$CJ?2Microsof@

??_C@_0GI@BDJNFBPD@C?3?2Program?5Files?5?$CIx86?$CJ?2Microsof@: ; `string'
	.ascii	"C:\\Program Files (x86)\\Microsoft Visual Studio\\2019\\"
	.ascii	"Enterprise\\VC\\Tools\\MSVC\\14.27.29110\\include\\vector"
	.ascii	"\000"
; Function compile flags: /Odtp
; File C:\Program Files (x86)\Microsoft Visual Studio\2019\Enterprise\VC\Tools\MSVC\14.27.29110\include\vector
	.text
	.comdat	any, ??A?$vector@MV?$allocator@M@std@@@std@@$$FQEBAAEBM_K@Z
.global	??A?$vector@MV?$allocator@M@std@@@std@@$$FQEBAAEBM_K@Z ; std::vector<float,std::allocator<float> >::operator[]
??A?$vector@MV?$allocator@M@std@@@std@@$$FQEBAAEBM_K@Z:	; std::vector<float,std::allocator<float> >::operator[]
;	.proc.def	D:J(JJ)

; Function Header:
; max stack depth = 7
; function size = 99 bytes
; local varsig tk = 0x110000D9 
; Exception Information:
; 0 handlers, each consisting of filtered handlers

;	.formal.i8 0,"this$" SIG: Optional C Binding Modifier(token:0x7198E11).Optional C Binding Modifier(token:0x7198E13).ptr.Optional C Binding Modifier(token:0x7198E16).valueType (token:0x7198E18)
;	.formal.u8 1,"_Pos$" SIG: Optional C Binding Modifier(token:0x722FC51).u8
;	.local.i8 0,"_My_data$" SIG: Optional C Binding Modifier(token:0x7256FD9).ptr.Optional C Binding Modifier(token:0x7256FDC).valueType (token:0x7256FDE)
;	.local.i8 1,"$T2" SIG: Optional C Binding Modifier(token:0x894C191).ptr.Optional C Binding Modifier(token:0x894C194).r4

;	.proc.beg

; 1508 :         auto& _My_data = _Mypair._Myval2;

	ldarg.0				; this$
	stloc.0				; _My_data$
$LN4@operator:

; 1509 : #if _CONTAINER_DEBUG_LEVEL > 0
; 1510 :         _STL_VERIFY(

	ldarg.1				; _Pos$
	ldloc.0				; _My_data$
	ldc.i4.s	16		; i64 0x10
	conv.i8		
	add		
	ldind.i8	
	ldloc.0				; _My_data$
	ldc.i.8		8		; i64 0x8
	conv.i8		
	add		
	ldind.i8	
	sub		
	ldc.i.2		2		; i32 0x2
	shr		
	bge.un.s	$LN7@operator
	br.s		$LN2@operator
$LN7@operator:
	ldc.i.1		1		; i32 0x1
	ldc.i.2		2		; i32 0x2
	ldsflda		??_C@_0GI@BDJNFBPD@C?3?2Program?5Files?5?$CIx86?$CJ?2Microsof@
	ldc.i4		1511		; i32 0x5e7
	ldc.i.0		0		; i64 0x0
	conv.i8		
	ldsflda		??_C@_02DKCKIIND@?$CFs@
	ldsflda		??_C@_0BO@PFKOHNJC@vector?5subscript?5out?5of?5range@
	call		?_CrtDbgReport@@$$J0YAHHPEBDH00ZZ
	bne.un.s	$LN11@operator
	break		
$LN11@operator:
	ldsflda		??_C@_1EA@LEKOKFNB@?$AA?$CC?$AAv?$AAe?$AAc?$AAt?$AAo?$AAr?$AA?5?$AAs?$AAu?$AAb?$AAs?$AAc?$AAr?$AAi@
	ldsflda		??_C@_1HK@EJDBECKJ@?$AAs?$AAt?$AAd?$AA?3?$AA?3?$AAv?$AAe?$AAc?$AAt?$AAo?$AAr?$AA?$DM?$AAf?$AAl?$AAo@
	ldsflda		??_C@_1NA@MKDIEAJP@?$AAC?$AA?3?$AA?2?$AAP?$AAr?$AAo?$AAg?$AAr?$AAa?$AAm?$AA?5?$AAF?$AAi?$AAl?$AAe@
	ldc.i4		1511		; u32 0x5e7
	ldc.i.0		0		; u64 0x0
	conv.i8		
	call		?_invalid_parameter@@$$J0YAXPEB_W00I_K@Z
	ldc.i.0		0		; i32 0x0
	brtrue.s	$LN7@operator
$LN2@operator:
	ldc.i.0		0		; i32 0x0
	brtrue.s	$LN4@operator

; 1511 :             _Pos < static_cast<size_type>(_My_data._Mylast - _My_data._Myfirst), "vector subscript out of range");
; 1512 : #endif // _CONTAINER_DEBUG_LEVEL > 0
; 1513 : 
; 1514 :         return _My_data._Myfirst[_Pos];

	ldloc.0				; _My_data$
	ldc.i.8		8		; i64 0x8
	conv.i8		
	add		
	ldind.i8	
	ldarg.1				; _Pos$
	ldc.i.4		4		; u64 0x4
	conv.i8		
	mul		
	add		
	stloc.1				; $T2

; 1515 :     }

	ldloc.1				; $T2
	ret		
 .end ??A?$vector@MV?$allocator@M@std@@@std@@$$FQEBAAEBM_K@Z ; std::vector<float,std::allocator<float> >::operator[]
;	.proc.end.i8
.global	
.global	
	.bss
.local	,4
.local	,4
.local	$T1,0
; Function compile flags: /Odtp
; File C:\Program Files (x86)\Microsoft Visual Studio\2019\Enterprise\VC\Tools\MSVC\14.27.29110\include\vector
	.text
	.comdat	any, ??A?$vector@MV?$allocator@M@std@@@std@@$$FQEAAAEAM_K@Z
.global	??A?$vector@MV?$allocator@M@std@@@std@@$$FQEAAAEAM_K@Z ; std::vector<float,std::allocator<float> >::operator[]
??A?$vector@MV?$allocator@M@std@@@std@@$$FQEAAAEAM_K@Z:	; std::vector<float,std::allocator<float> >::operator[]
;	.proc.def	D:J(JJ)

; Function Header:
; max stack depth = 7
; function size = 99 bytes
; local varsig tk = 0x110000DC 
; Exception Information:
; 0 handlers, each consisting of filtered handlers

;	.formal.i8 0,"this$" SIG: Optional C Binding Modifier(token:0x71E5A99).Optional C Binding Modifier(token:0x71E5A9B).ptr.valueType (token:0x71E5A9E)
;	.formal.u8 1,"_Pos$" SIG: Optional C Binding Modifier(token:0x722FC51).u8
;	.local.i8 0,"_My_data$" SIG: Optional C Binding Modifier(token:0x72DBFC1).ptr.valueType (token:0x72DBFC4)
;	.local.i8 1,"$T2" SIG: Optional C Binding Modifier(token:0x894C9D1).ptr.r4

;	.proc.beg

; 1498 :         auto& _My_data = _Mypair._Myval2;

	ldarg.0				; this$
	stloc.0				; _My_data$
$LN4@operator:

; 1499 : #if _CONTAINER_DEBUG_LEVEL > 0
; 1500 :         _STL_VERIFY(

	ldarg.1				; _Pos$
	ldloc.0				; _My_data$
	ldc.i4.s	16		; i64 0x10
	conv.i8		
	add		
	ldind.i8	
	ldloc.0				; _My_data$
	ldc.i.8		8		; i64 0x8
	conv.i8		
	add		
	ldind.i8	
	sub		
	ldc.i.2		2		; i32 0x2
	shr		
	bge.un.s	$LN7@operator
	br.s		$LN2@operator
$LN7@operator:
	ldc.i.1		1		; i32 0x1
	ldc.i.2		2		; i32 0x2
	ldsflda		??_C@_0GI@BDJNFBPD@C?3?2Program?5Files?5?$CIx86?$CJ?2Microsof@
	ldc.i4		1501		; i32 0x5dd
	ldc.i.0		0		; i64 0x0
	conv.i8		
	ldsflda		??_C@_02DKCKIIND@?$CFs@
	ldsflda		??_C@_0BO@PFKOHNJC@vector?5subscript?5out?5of?5range@
	call		?_CrtDbgReport@@$$J0YAHHPEBDH00ZZ
	bne.un.s	$LN11@operator
	break		
$LN11@operator:
	ldsflda		??_C@_1EA@LEKOKFNB@?$AA?$CC?$AAv?$AAe?$AAc?$AAt?$AAo?$AAr?$AA?5?$AAs?$AAu?$AAb?$AAs?$AAc?$AAr?$AAi@
	ldsflda		??_C@_1HK@EJDBECKJ@?$AAs?$AAt?$AAd?$AA?3?$AA?3?$AAv?$AAe?$AAc?$AAt?$AAo?$AAr?$AA?$DM?$AAf?$AAl?$AAo@
	ldsflda		??_C@_1NA@MKDIEAJP@?$AAC?$AA?3?$AA?2?$AAP?$AAr?$AAo?$AAg?$AAr?$AAa?$AAm?$AA?5?$AAF?$AAi?$AAl?$AAe@
	ldc.i4		1501		; u32 0x5dd
	ldc.i.0		0		; u64 0x0
	conv.i8		
	call		?_invalid_parameter@@$$J0YAXPEB_W00I_K@Z
	ldc.i.0		0		; i32 0x0
	brtrue.s	$LN7@operator
$LN2@operator:
	ldc.i.0		0		; i32 0x0
	brtrue.s	$LN4@operator

; 1501 :             _Pos < static_cast<size_type>(_My_data._Mylast - _My_data._Myfirst), "vector subscript out of range");
; 1502 : #endif // _CONTAINER_DEBUG_LEVEL > 0
; 1503 : 
; 1504 :         return _My_data._Myfirst[_Pos];

	ldloc.0				; _My_data$
	ldc.i.8		8		; i64 0x8
	conv.i8		
	add		
	ldind.i8	
	ldarg.1				; _Pos$
	ldc.i.4		4		; u64 0x4
	conv.i8		
	mul		
	add		
	stloc.1				; $T2

; 1505 :     }

	ldloc.1				; $T2
	ret		
 .end ??A?$vector@MV?$allocator@M@std@@@std@@$$FQEAAAEAM_K@Z ; std::vector<float,std::allocator<float> >::operator[]
;	.proc.end.i8
.global	
	.bss
.local	,4
; Function compile flags: /Odtp
; File C:\Program Files (x86)\Microsoft Visual Studio\2019\Enterprise\VC\Tools\MSVC\14.27.29110\include\xmemory
	.text
	.comdat	any, ??0?$allocator@M@std@@$$FQEAA@XZ
.global	??0?$allocator@M@std@@$$FQEAA@XZ		; std::allocator<float>::allocator<float>
??0?$allocator@M@std@@$$FQEAA@XZ:			; std::allocator<float>::allocator<float>
;	.proc.def	D:J(J)

; Function Header:
; max stack depth = 1
; function size = 2 bytes
; local varsig tk = 0x0 
; Exception Information:
; 0 handlers, each consisting of filtered handlers

;	.formal.i8 0,"this$" SIG: Optional C Binding Modifier(token:0x71FA061).Optional C Binding Modifier(token:0x71FA063).ptr.valueType (token:0x71FA066)

;	.proc.beg

; 795  :     constexpr allocator() noexcept {}

	ldarg.0				; this$
	ret		
 .end ??0?$allocator@M@std@@$$FQEAA@XZ			; std::allocator<float>::allocator<float>
;	.proc.end.i8
.global	
	.bss
.local	,4
.local	$T1,0
; Function compile flags: /Odtp
; File C:\Program Files (x86)\Microsoft Visual Studio\2019\Enterprise\VC\Tools\MSVC\14.27.29110\include\xstring
	.text
	.comdat	any, ?size@?$basic_string@DU?$char_traits@D@std@@V?$allocator@D@2@@std@@$$FQEBA_KXZ
.global	?size@?$basic_string@DU?$char_traits@D@std@@V?$allocator@D@2@@std@@$$FQEBA_KXZ ; std::basic_string<char,std::char_traits<char>,std::allocator<char> >::size
?size@?$basic_string@DU?$char_traits@D@std@@V?$allocator@D@2@@std@@$$FQEBA_KXZ: ; std::basic_string<char,std::char_traits<char>,std::allocator<char> >::size
;	.proc.def	D:J(J)

; Function Header:
; max stack depth = 2
; function size = 9 bytes
; local varsig tk = 0x11000072 
; Exception Information:
; 0 handlers, each consisting of filtered handlers

;	.formal.i8 0,"this$" SIG: Optional C Binding Modifier(token:0x716F931).Optional C Binding Modifier(token:0x716F933).ptr.Optional C Binding Modifier(token:0x716F936).valueType (token:0x716F938)
;	.local.u8 0,"$T2" SIG: u8

;	.proc.beg

; 3686 :         return _Mypair._Myval2._Mysize;

	ldarg.0				; this$
	ldc.i4.s	24		; i64 0x18
	conv.i8		
	add		
	ldind.i8	
	stloc.0				; $T2

; 3687 :     }

	ldloc.0				; $T2
	ret		
 .end ?size@?$basic_string@DU?$char_traits@D@std@@V?$allocator@D@2@@std@@$$FQEBA_KXZ ; std::basic_string<char,std::char_traits<char>,std::allocator<char> >::size
;	.proc.end.u8
.global	
.global	
.global	??_C@_1HC@HBCEAHKD@?$AAs?$AAt?$AAd?$AA?3?$AA?3?$AAv?$AAe?$AAc?$AAt?$AAo?$AAr?$AA?$DM?$AAi?$AAn?$AAt@ ; `string'
	.bss
.local	,4
.local	,4
.local	$T1,0
	.rdata
	.comdat	any, ??_C@_1HC@HBCEAHKD@?$AAs?$AAt?$AAd?$AA?3?$AA?3?$AAv?$AAe?$AAc?$AAt?$AAo?$AAr?$AA?$DM?$AAi?$AAn?$AAt@

??_C@_1HC@HBCEAHKD@?$AAs?$AAt?$AAd?$AA?3?$AA?3?$AAv?$AAe?$AAc?$AAt?$AAo?$AAr?$AA?$DM?$AAi?$AAn?$AAt@: ; `string'
	.ascii	"s\000t\000d\000:\000:\000v\000e\000c\000t\000o\000r\000<"
	.ascii	"\000i\000n\000t\000,\000c\000l\000a\000s\000s\000 \000s\000"
	.ascii	"t\000d\000:\000:\000a\000l\000l\000o\000c\000a\000t\000o\000"
	.ascii	"r\000<\000i\000n\000t\000>\000 \000>\000:\000:\000o\000p\000"
	.ascii	"e\000r\000a\000t\000o\000r\000 \000[\000]\000\000\000"
; Function compile flags: /Odtp
; File C:\Program Files (x86)\Microsoft Visual Studio\2019\Enterprise\VC\Tools\MSVC\14.27.29110\include\vector
	.text
	.comdat	any, ??A?$vector@HV?$allocator@H@std@@@std@@$$FQEBAAEBH_K@Z
.global	??A?$vector@HV?$allocator@H@std@@@std@@$$FQEBAAEBH_K@Z ; std::vector<int,std::allocator<int> >::operator[]
??A?$vector@HV?$allocator@H@std@@@std@@$$FQEBAAEBH_K@Z:	; std::vector<int,std::allocator<int> >::operator[]
;	.proc.def	D:J(JJ)

; Function Header:
; max stack depth = 7
; function size = 99 bytes
; local varsig tk = 0x110000E1 
; Exception Information:
; 0 handlers, each consisting of filtered handlers

;	.formal.i8 0,"this$" SIG: Optional C Binding Modifier(token:0x71A9679).Optional C Binding Modifier(token:0x71A967B).ptr.Optional C Binding Modifier(token:0x71A967E).valueType (token:0x71A9680)
;	.formal.u8 1,"_Pos$" SIG: Optional C Binding Modifier(token:0x722FC51).u8
;	.local.i8 0,"_My_data$" SIG: Optional C Binding Modifier(token:0x71F8271).ptr.Optional C Binding Modifier(token:0x71F8274).valueType (token:0x71F8276)
;	.local.i8 1,"$T2" SIG: Optional C Binding Modifier(token:0x8634819).ptr.Optional C Binding Modifier(token:0x863481C).i4

;	.proc.beg

; 1508 :         auto& _My_data = _Mypair._Myval2;

	ldarg.0				; this$
	stloc.0				; _My_data$
$LN4@operator:

; 1509 : #if _CONTAINER_DEBUG_LEVEL > 0
; 1510 :         _STL_VERIFY(

	ldarg.1				; _Pos$
	ldloc.0				; _My_data$
	ldc.i4.s	16		; i64 0x10
	conv.i8		
	add		
	ldind.i8	
	ldloc.0				; _My_data$
	ldc.i.8		8		; i64 0x8
	conv.i8		
	add		
	ldind.i8	
	sub		
	ldc.i.2		2		; i32 0x2
	shr		
	bge.un.s	$LN7@operator
	br.s		$LN2@operator
$LN7@operator:
	ldc.i.1		1		; i32 0x1
	ldc.i.2		2		; i32 0x2
	ldsflda		??_C@_0GI@BDJNFBPD@C?3?2Program?5Files?5?$CIx86?$CJ?2Microsof@
	ldc.i4		1511		; i32 0x5e7
	ldc.i.0		0		; i64 0x0
	conv.i8		
	ldsflda		??_C@_02DKCKIIND@?$CFs@
	ldsflda		??_C@_0BO@PFKOHNJC@vector?5subscript?5out?5of?5range@
	call		?_CrtDbgReport@@$$J0YAHHPEBDH00ZZ
	bne.un.s	$LN11@operator
	break		
$LN11@operator:
	ldsflda		??_C@_1EA@LEKOKFNB@?$AA?$CC?$AAv?$AAe?$AAc?$AAt?$AAo?$AAr?$AA?5?$AAs?$AAu?$AAb?$AAs?$AAc?$AAr?$AAi@
	ldsflda		??_C@_1HC@HBCEAHKD@?$AAs?$AAt?$AAd?$AA?3?$AA?3?$AAv?$AAe?$AAc?$AAt?$AAo?$AAr?$AA?$DM?$AAi?$AAn?$AAt@
	ldsflda		??_C@_1NA@MKDIEAJP@?$AAC?$AA?3?$AA?2?$AAP?$AAr?$AAo?$AAg?$AAr?$AAa?$AAm?$AA?5?$AAF?$AAi?$AAl?$AAe@
	ldc.i4		1511		; u32 0x5e7
	ldc.i.0		0		; u64 0x0
	conv.i8		
	call		?_invalid_parameter@@$$J0YAXPEB_W00I_K@Z
	ldc.i.0		0		; i32 0x0
	brtrue.s	$LN7@operator
$LN2@operator:
	ldc.i.0		0		; i32 0x0
	brtrue.s	$LN4@operator

; 1511 :             _Pos < static_cast<size_type>(_My_data._Mylast - _My_data._Myfirst), "vector subscript out of range");
; 1512 : #endif // _CONTAINER_DEBUG_LEVEL > 0
; 1513 : 
; 1514 :         return _My_data._Myfirst[_Pos];

	ldloc.0				; _My_data$
	ldc.i.8		8		; i64 0x8
	conv.i8		
	add		
	ldind.i8	
	ldarg.1				; _Pos$
	ldc.i.4		4		; u64 0x4
	conv.i8		
	mul		
	add		
	stloc.1				; $T2

; 1515 :     }

	ldloc.1				; $T2
	ret		
 .end ??A?$vector@HV?$allocator@H@std@@@std@@$$FQEBAAEBH_K@Z ; std::vector<int,std::allocator<int> >::operator[]
;	.proc.end.i8
.global	
.global	
	.bss
.local	,4
.local	,4
.local	$T1,0
; Function compile flags: /Odtp
; File C:\Program Files (x86)\Microsoft Visual Studio\2019\Enterprise\VC\Tools\MSVC\14.27.29110\include\vector
	.text
	.comdat	any, ??A?$vector@HV?$allocator@H@std@@@std@@$$FQEAAAEAH_K@Z
.global	??A?$vector@HV?$allocator@H@std@@@std@@$$FQEAAAEAH_K@Z ; std::vector<int,std::allocator<int> >::operator[]
??A?$vector@HV?$allocator@H@std@@@std@@$$FQEAAAEAH_K@Z:	; std::vector<int,std::allocator<int> >::operator[]
;	.proc.def	D:J(JJ)

; Function Header:
; max stack depth = 7
; function size = 99 bytes
; local varsig tk = 0x110000E4 
; Exception Information:
; 0 handlers, each consisting of filtered handlers

;	.formal.i8 0,"this$" SIG: Optional C Binding Modifier(token:0x7171361).Optional C Binding Modifier(token:0x7171363).ptr.valueType (token:0x7171366)
;	.formal.u8 1,"_Pos$" SIG: Optional C Binding Modifier(token:0x722FC51).u8
;	.local.i8 0,"_My_data$" SIG: Optional C Binding Modifier(token:0x72A03C9).ptr.valueType (token:0x72A03CC)
;	.local.i8 1,"$T2" SIG: Optional C Binding Modifier(token:0x8635059).ptr.i4

;	.proc.beg

; 1498 :         auto& _My_data = _Mypair._Myval2;

	ldarg.0				; this$
	stloc.0				; _My_data$
$LN4@operator:

; 1499 : #if _CONTAINER_DEBUG_LEVEL > 0
; 1500 :         _STL_VERIFY(

	ldarg.1				; _Pos$
	ldloc.0				; _My_data$
	ldc.i4.s	16		; i64 0x10
	conv.i8		
	add		
	ldind.i8	
	ldloc.0				; _My_data$
	ldc.i.8		8		; i64 0x8
	conv.i8		
	add		
	ldind.i8	
	sub		
	ldc.i.2		2		; i32 0x2
	shr		
	bge.un.s	$LN7@operator
	br.s		$LN2@operator
$LN7@operator:
	ldc.i.1		1		; i32 0x1
	ldc.i.2		2		; i32 0x2
	ldsflda		??_C@_0GI@BDJNFBPD@C?3?2Program?5Files?5?$CIx86?$CJ?2Microsof@
	ldc.i4		1501		; i32 0x5dd
	ldc.i.0		0		; i64 0x0
	conv.i8		
	ldsflda		??_C@_02DKCKIIND@?$CFs@
	ldsflda		??_C@_0BO@PFKOHNJC@vector?5subscript?5out?5of?5range@
	call		?_CrtDbgReport@@$$J0YAHHPEBDH00ZZ
	bne.un.s	$LN11@operator
	break		
$LN11@operator:
	ldsflda		??_C@_1EA@LEKOKFNB@?$AA?$CC?$AAv?$AAe?$AAc?$AAt?$AAo?$AAr?$AA?5?$AAs?$AAu?$AAb?$AAs?$AAc?$AAr?$AAi@
	ldsflda		??_C@_1HC@HBCEAHKD@?$AAs?$AAt?$AAd?$AA?3?$AA?3?$AAv?$AAe?$AAc?$AAt?$AAo?$AAr?$AA?$DM?$AAi?$AAn?$AAt@
	ldsflda		??_C@_1NA@MKDIEAJP@?$AAC?$AA?3?$AA?2?$AAP?$AAr?$AAo?$AAg?$AAr?$AAa?$AAm?$AA?5?$AAF?$AAi?$AAl?$AAe@
	ldc.i4		1501		; u32 0x5dd
	ldc.i.0		0		; u64 0x0
	conv.i8		
	call		?_invalid_parameter@@$$J0YAXPEB_W00I_K@Z
	ldc.i.0		0		; i32 0x0
	brtrue.s	$LN7@operator
$LN2@operator:
	ldc.i.0		0		; i32 0x0
	brtrue.s	$LN4@operator

; 1501 :             _Pos < static_cast<size_type>(_My_data._Mylast - _My_data._Myfirst), "vector subscript out of range");
; 1502 : #endif // _CONTAINER_DEBUG_LEVEL > 0
; 1503 : 
; 1504 :         return _My_data._Myfirst[_Pos];

	ldloc.0				; _My_data$
	ldc.i.8		8		; i64 0x8
	conv.i8		
	add		
	ldind.i8	
	ldarg.1				; _Pos$
	ldc.i.4		4		; u64 0x4
	conv.i8		
	mul		
	add		
	stloc.1				; $T2

; 1505 :     }

	ldloc.1				; $T2
	ret		
 .end ??A?$vector@HV?$allocator@H@std@@@std@@$$FQEAAAEAH_K@Z ; std::vector<int,std::allocator<int> >::operator[]
;	.proc.end.i8
	.bss
.local	$T1,0
; Function compile flags: /Odtp
; File C:\Program Files (x86)\Microsoft Visual Studio\2019\Enterprise\VC\Tools\MSVC\14.27.29110\include\vector
	.text
	.comdat	any, ?size@?$vector@HV?$allocator@H@std@@@std@@$$FQEBA_KXZ
.global	?size@?$vector@HV?$allocator@H@std@@@std@@$$FQEBA_KXZ ; std::vector<int,std::allocator<int> >::size
?size@?$vector@HV?$allocator@H@std@@@std@@$$FQEBA_KXZ:	; std::vector<int,std::allocator<int> >::size
;	.proc.def	D:J(J)

; Function Header:
; max stack depth = 3
; function size = 19 bytes
; local varsig tk = 0x110000E5 
; Exception Information:
; 0 handlers, each consisting of filtered handlers

;	.formal.i8 0,"this$" SIG: Optional C Binding Modifier(token:0x71A9679).Optional C Binding Modifier(token:0x71A967B).ptr.Optional C Binding Modifier(token:0x71A967E).valueType (token:0x71A9680)
;	.local.i8 0,"_My_data$" SIG: Optional C Binding Modifier(token:0x71F8271).ptr.Optional C Binding Modifier(token:0x71F8274).valueType (token:0x71F8276)
;	.local.u8 1,"$T2" SIG: u8

;	.proc.beg

; 1483 :         auto& _My_data = _Mypair._Myval2;

	ldarg.0				; this$
	stloc.0				; _My_data$

; 1484 :         return static_cast<size_type>(_My_data._Mylast - _My_data._Myfirst);

	ldloc.0				; _My_data$
	ldc.i4.s	16		; i64 0x10
	conv.i8		
	add		
	ldind.i8	
	ldloc.0				; _My_data$
	ldc.i.8		8		; i64 0x8
	conv.i8		
	add		
	ldind.i8	
	sub		
	ldc.i.2		2		; i32 0x2
	shr		
	stloc.1				; $T2

; 1485 :     }

	ldloc.1				; $T2
	ret		
 .end ?size@?$vector@HV?$allocator@H@std@@@std@@$$FQEBA_KXZ ; std::vector<int,std::allocator<int> >::size
;	.proc.end.u8
.global	
	.bss
.local	,4
; Function compile flags: /Odtp
; File C:\Program Files (x86)\Microsoft Visual Studio\2019\Enterprise\VC\Tools\MSVC\14.27.29110\include\xmemory
	.text
	.comdat	any, ??0?$allocator@H@std@@$$FQEAA@XZ
.global	??0?$allocator@H@std@@$$FQEAA@XZ		; std::allocator<int>::allocator<int>
??0?$allocator@H@std@@$$FQEAA@XZ:			; std::allocator<int>::allocator<int>
;	.proc.def	D:J(J)

; Function Header:
; max stack depth = 1
; function size = 2 bytes
; local varsig tk = 0x0 
; Exception Information:
; 0 handlers, each consisting of filtered handlers

;	.formal.i8 0,"this$" SIG: Optional C Binding Modifier(token:0x71F1161).Optional C Binding Modifier(token:0x71F1163).ptr.valueType (token:0x71F1166)

;	.proc.beg

; 795  :     constexpr allocator() noexcept {}

	ldarg.0				; this$
	ret		
 .end ??0?$allocator@H@std@@$$FQEAA@XZ			; std::allocator<int>::allocator<int>
;	.proc.end.i8
.global	
	.bss
.local	,4
.local	$T1,0
; Function compile flags: /Odtp
; File C:\Program Files (x86)\Microsoft Visual Studio\2019\Enterprise\VC\Tools\MSVC\14.27.29110\include\ostream
	.text
	.comdat	any, ??Bsentry@?$basic_ostream@DU?$char_traits@D@std@@@std@@$$FQEBA_NXZ
.global	??Bsentry@?$basic_ostream@DU?$char_traits@D@std@@@std@@$$FQEBA_NXZ ; std::basic_ostream<char,std::char_traits<char> >::sentry::operator bool
??Bsentry@?$basic_ostream@DU?$char_traits@D@std@@@std@@$$FQEBA_NXZ: ; std::basic_ostream<char,std::char_traits<char> >::sentry::operator bool
;	.proc.def	D:I(J)

; Function Header:
; max stack depth = 2
; function size = 8 bytes
; local varsig tk = 0x110000E8 
; Exception Information:
; 0 handlers, each consisting of filtered handlers

;	.formal.i8 0,"this$" SIG: Optional C Binding Modifier(token:0x7237DB9).Optional C Binding Modifier(token:0x7237DBB).ptr.Optional C Binding Modifier(token:0x7237DBE).valueType (token:0x7237DC0)
;	.local.u1 0,"$T2" SIG: bool

;	.proc.beg

; 126  :             return _Ok;

	ldarg.0				; this$
	ldc.i.8		8		; i64 0x8
	conv.i8		
	add		
	ldind.u1	
	stloc.0				; $T2

; 127  :         }

	ldloc.0				; $T2
	ret		
 .end ??Bsentry@?$basic_ostream@DU?$char_traits@D@std@@@std@@$$FQEBA_NXZ ; std::basic_ostream<char,std::char_traits<char> >::sentry::operator bool
;	.proc.end.u1
.global	
	.bss
.local	,4
.local	$T1,0
; Function compile flags: /Odtp
; File C:\Program Files (x86)\Microsoft Visual Studio\2019\Enterprise\VC\Tools\MSVC\14.27.29110\include\xmemory
	.text
	.comdat	any, ?select_on_container_copy_construction@?$_Default_allocator_traits@V?$allocator@UCameraParams@detail@cv@@@std@@@std@@$$FSA?AV?$allocator@UCameraParams@detail@cv@@@2@AEBV32@@Z
.global	?select_on_container_copy_construction@?$_Default_allocator_traits@V?$allocator@UCameraParams@detail@cv@@@std@@@std@@$$FSA?AV?$allocator@UCameraParams@detail@cv@@@2@AEBV32@@Z ; std::_Default_allocator_traits<std::allocator<cv::detail::CameraParams> >::select_on_container_copy_construction
?select_on_container_copy_construction@?$_Default_allocator_traits@V?$allocator@UCameraParams@detail@cv@@@std@@@std@@$$FSA?AV?$allocator@UCameraParams@detail@cv@@@2@AEBV32@@Z: ; std::_Default_allocator_traits<std::allocator<cv::detail::CameraParams> >::select_on_container_copy_construction
;	.proc.def	D:J(JJ)

; Function Header:
; max stack depth = 1
; function size = 4 bytes
; local varsig tk = 0x110000EA 
; Exception Information:
; 0 handlers, each consisting of filtered handlers

;	.formal.i8 0,"__$ReturnUdt$" SIG: ptr.valueType (token:0x71EB2CA)
;	.local.i8 0,"$T2" SIG: ptr.valueType (token:0x866E472)

;	.proc.beg

; 707  :         return _Al;

	ldarg.0				; __$ReturnUdt$
	stloc.0				; $T2

; 708  :     }

	ldloc.0				; $T2
	ret		
 .end ?select_on_container_copy_construction@?$_Default_allocator_traits@V?$allocator@UCameraParams@detail@cv@@@std@@@std@@$$FSA?AV?$allocator@UCameraParams@detail@cv@@@2@AEBV32@@Z ; std::_Default_allocator_traits<std::allocator<cv::detail::CameraParams> >::select_on_container_copy_construction
;	.proc.end.i8
.global	
	.bss
.local	,4
.local	$T1,0
; Function compile flags: /Odtp
; File C:\Program Files (x86)\Microsoft Visual Studio\2019\Enterprise\VC\Tools\MSVC\14.27.29110\include\functional
	.text
	.comdat	any, ?_Getimpl@?$_Func_class@XAEBVRange@cv@@@std@@$$FAEBAPEAV?$_Func_base@XAEBVRange@cv@@@2@XZ
.global	?_Getimpl@?$_Func_class@XAEBVRange@cv@@@std@@$$FAEBAPEAV?$_Func_base@XAEBVRange@cv@@@2@XZ ; std::_Func_class<void,cv::Range const &>::_Getimpl
?_Getimpl@?$_Func_class@XAEBVRange@cv@@@std@@$$FAEBAPEAV?$_Func_base@XAEBVRange@cv@@@2@XZ: ; std::_Func_class<void,cv::Range const &>::_Getimpl
;	.proc.def	D:J(J)

; Function Header:
; max stack depth = 3
; function size = 11 bytes
; local varsig tk = 0x110000EC 
; Exception Information:
; 0 handlers, each consisting of filtered handlers

;	.formal.i8 0,"this$" SIG: Optional C Binding Modifier(token:0x728C231).Optional C Binding Modifier(token:0x728C233).ptr.Optional C Binding Modifier(token:0x728C236).valueType (token:0x728C238)
;	.local.i8 0,"$T2" SIG: ptr.valueType (token:0x869B1EA)

;	.proc.beg

; 1071 :         return _Mystorage._Ptrs[_Small_object_num_ptrs - 1];

	ldarg.0				; this$
	ldc.i.8		8		; i64 0x8
	conv.i8		
	ldc.i.7		7		; i64 0x7
	conv.i8		
	mul		
	add		
	ldind.i8	
	stloc.0				; $T2

; 1072 :     }

	ldloc.0				; $T2
	ret		
 .end ?_Getimpl@?$_Func_class@XAEBVRange@cv@@@std@@$$FAEBAPEAV?$_Func_base@XAEBVRange@cv@@@2@XZ ; std::_Func_class<void,cv::Range const &>::_Getimpl
;	.proc.end.i8
	.bss
.local	$T1,0
; Function compile flags: /Odtp
; File C:\Program Files (x86)\Microsoft Visual Studio\2019\Enterprise\VC\Tools\MSVC\14.27.29110\include\functional
	.text
	.comdat	any, ?_Empty@?$_Func_class@XAEBVRange@cv@@@std@@$$FIEBA_NXZ
.global	?_Empty@?$_Func_class@XAEBVRange@cv@@@std@@$$FIEBA_NXZ ; std::_Func_class<void,cv::Range const &>::_Empty
?_Empty@?$_Func_class@XAEBVRange@cv@@@std@@$$FIEBA_NXZ:	; std::_Func_class<void,cv::Range const &>::_Empty
;	.proc.def	D:I(J)

; Function Header:
; max stack depth = 1
; function size = 15 bytes
; local varsig tk = 0x110000E8 
; Exception Information:
; 0 handlers, each consisting of filtered handlers

;	.formal.i8 0,"this$" SIG: Optional C Binding Modifier(token:0x728C231).Optional C Binding Modifier(token:0x728C233).ptr.Optional C Binding Modifier(token:0x728C236).valueType (token:0x728C238)
;	.local.u1 0,"$T2" SIG: bool

;	.proc.beg

; 965  :         return !_Getimpl();

	ldarg.0				; this$
	call		?_Getimpl@?$_Func_class@XAEBVRange@cv@@@std@@$$FAEBAPEAV?$_Func_base@XAEBVRange@cv@@@2@XZ
	brtrue.s	$LN3@Empty
	ldc.i.1		1		; i32 0x1
	br.s		$LN4@Empty
$LN3@Empty:
	ldc.i.0		0		; i32 0x0
$LN4@Empty:
	stloc.0				; $T2

; 966  :     }

	ldloc.0				; $T2
	ret		
 .end ?_Empty@?$_Func_class@XAEBVRange@cv@@@std@@$$FIEBA_NXZ ; std::_Func_class<void,cv::Range const &>::_Empty
;	.proc.end.u1
.global	
	.bss
.local	,4
; Function compile flags: /Odtp
; File C:\Program Files (x86)\Microsoft Visual Studio\2019\Enterprise\VC\Tools\MSVC\14.27.29110\include\xstring
	.text
	.comdat	any, ??1_Bxty@?$_String_val@U?$_Simple_types@_W@std@@@std@@$$FQEAA@XZ
.global	??1_Bxty@?$_String_val@U?$_Simple_types@_W@std@@@std@@$$FQEAA@XZ ; std::_String_val<std::_Simple_types<wchar_t> >::_Bxty::~_Bxty
??1_Bxty@?$_String_val@U?$_Simple_types@_W@std@@@std@@$$FQEAA@XZ: ; std::_String_val<std::_Simple_types<wchar_t> >::_Bxty::~_Bxty
;	.proc.def	D:V(J)

; Function Header:
; max stack depth = 0
; function size = 1 bytes
; local varsig tk = 0x0 
; Exception Information:
; 0 handlers, each consisting of filtered handlers


;	.proc.beg

; 2180 :         ~_Bxty() noexcept {} // user-provided, for fancy pointers

	ret		
 .end ??1_Bxty@?$_String_val@U?$_Simple_types@_W@std@@@std@@$$FQEAA@XZ ; std::_String_val<std::_Simple_types<wchar_t> >::_Bxty::~_Bxty
;	.proc.end.void
.global	
	.bss
.local	,4
; Function compile flags: /Odtp
; File C:\Program Files (x86)\Microsoft Visual Studio\2019\Enterprise\VC\Tools\MSVC\14.27.29110\include\xstring
	.text
	.comdat	any, ??1_Bxty@?$_String_val@U?$_Simple_types@D@std@@@std@@$$FQEAA@XZ
.global	??1_Bxty@?$_String_val@U?$_Simple_types@D@std@@@std@@$$FQEAA@XZ ; std::_String_val<std::_Simple_types<char> >::_Bxty::~_Bxty
??1_Bxty@?$_String_val@U?$_Simple_types@D@std@@@std@@$$FQEAA@XZ: ; std::_String_val<std::_Simple_types<char> >::_Bxty::~_Bxty
;	.proc.def	D:V(J)

; Function Header:
; max stack depth = 0
; function size = 1 bytes
; local varsig tk = 0x0 
; Exception Information:
; 0 handlers, each consisting of filtered handlers


;	.proc.beg

; 2180 :         ~_Bxty() noexcept {} // user-provided, for fancy pointers

	ret		
 .end ??1_Bxty@?$_String_val@U?$_Simple_types@D@std@@@std@@$$FQEAA@XZ ; std::_String_val<std::_Simple_types<char> >::_Bxty::~_Bxty
;	.proc.end.void
.global	
	.bss
.local	,4
.local	$T1,0
; Function compile flags: /Odtp
; File C:\Program Files (x86)\Microsoft Visual Studio\2019\Enterprise\VC\Tools\MSVC\14.27.29110\include\xmemory
	.text
	.comdat	any, ?select_on_container_copy_construction@?$_Default_allocator_traits@V?$allocator@D@std@@@std@@$$FSA?AV?$allocator@D@2@AEBV32@@Z
.global	?select_on_container_copy_construction@?$_Default_allocator_traits@V?$allocator@D@std@@@std@@$$FSA?AV?$allocator@D@2@AEBV32@@Z ; std::_Default_allocator_traits<std::allocator<char> >::select_on_container_copy_construction
?select_on_container_copy_construction@?$_Default_allocator_traits@V?$allocator@D@std@@@std@@$$FSA?AV?$allocator@D@2@AEBV32@@Z: ; std::_Default_allocator_traits<std::allocator<char> >::select_on_container_copy_construction
;	.proc.def	D:J(JJ)

; Function Header:
; max stack depth = 1
; function size = 4 bytes
; local varsig tk = 0x110000F0 
; Exception Information:
; 0 handlers, each consisting of filtered handlers

;	.formal.i8 0,"__$ReturnUdt$" SIG: ptr.valueType (token:0x71B474A)
;	.local.i8 0,"$T2" SIG: ptr.valueType (token:0x87060BA)

;	.proc.beg

; 707  :         return _Al;

	ldarg.0				; __$ReturnUdt$
	stloc.0				; $T2

; 708  :     }

	ldloc.0				; $T2
	ret		
 .end ?select_on_container_copy_construction@?$_Default_allocator_traits@V?$allocator@D@std@@@std@@$$FSA?AV?$allocator@D@2@AEBV32@@Z ; std::_Default_allocator_traits<std::allocator<char> >::select_on_container_copy_construction
;	.proc.end.i8
	.bss
.local	$T1,0
; Function compile flags: /Odtp
; File C:\Program Files (x86)\Microsoft Visual Studio\2019\Enterprise\VC\Tools\MSVC\14.27.29110\include\xstring
	.text
	.comdat	any, ?eof@?$_Narrow_char_traits@DH@std@@$$FSAHXZ
.global	?eof@?$_Narrow_char_traits@DH@std@@$$FSAHXZ	; std::_Narrow_char_traits<char,int>::eof
?eof@?$_Narrow_char_traits@DH@std@@$$FSAHXZ:		; std::_Narrow_char_traits<char,int>::eof
;	.proc.def	D:I()

; Function Header:
; max stack depth = 1
; function size = 4 bytes
; local varsig tk = 0x11000089 
; Exception Information:
; 0 handlers, each consisting of filtered handlers

;	.local.i4 0,"$T2" SIG: i4

;	.proc.beg

; 401  :         return static_cast<int_type>(EOF);

	ldc.i.-1	-1		; i32 0xffffffff
	stloc.0				; $T2

; 402  :     }

	ldloc.0				; $T2
	ret		
 .end ?eof@?$_Narrow_char_traits@DH@std@@$$FSAHXZ	; std::_Narrow_char_traits<char,int>::eof
;	.proc.end.i4
.global	
	.bss
.local	,4
.local	$T1,0
; Function compile flags: /Odtp
; File C:\Program Files (x86)\Microsoft Visual Studio\2019\Enterprise\VC\Tools\MSVC\14.27.29110\include\xstring
	.text
	.comdat	any, ?eq_int_type@?$_Narrow_char_traits@DH@std@@$$FSA_NAEBH0@Z
.global	?eq_int_type@?$_Narrow_char_traits@DH@std@@$$FSA_NAEBH0@Z ; std::_Narrow_char_traits<char,int>::eq_int_type
?eq_int_type@?$_Narrow_char_traits@DH@std@@$$FSA_NAEBH0@Z: ; std::_Narrow_char_traits<char,int>::eq_int_type
;	.proc.def	D:I(JJ)

; Function Header:
; max stack depth = 2
; function size = 13 bytes
; local varsig tk = 0x110000E8 
; Exception Information:
; 0 handlers, each consisting of filtered handlers

;	.formal.i8 0,"_Left$" SIG: Optional C Binding Modifier(token:0x7220951).ptr.Optional C Binding Modifier(token:0x7220954).i4
;	.formal.i8 1,"_Right$" SIG: Optional C Binding Modifier(token:0x7220951).ptr.Optional C Binding Modifier(token:0x7220954).i4
;	.local.u1 0,"$T2" SIG: bool

;	.proc.beg

; 393  :         return _Left == _Right;

	ldarg.0				; _Left$
	ldind.i4	
	ldarg.1				; _Right$
	ldind.i4	
	bne.un.s	$LN3@eq_int_typ
	ldc.i.1		1		; i32 0x1
	br.s		$LN4@eq_int_typ
$LN3@eq_int_typ:
	ldc.i.0		0		; i32 0x0
$LN4@eq_int_typ:
	stloc.0				; $T2

; 394  :     }

	ldloc.0				; $T2
	ret		
 .end ?eq_int_type@?$_Narrow_char_traits@DH@std@@$$FSA_NAEBH0@Z ; std::_Narrow_char_traits<char,int>::eq_int_type
;	.proc.end.u1
.global	
	.bss
.local	,4
.local	$T1,0
; Function compile flags: /Odtp
; File C:\Program Files (x86)\Microsoft Visual Studio\2019\Enterprise\VC\Tools\MSVC\14.27.29110\include\xstring
	.text
	.comdat	any, ?copy@?$_Narrow_char_traits@DH@std@@$$FSAPEADQEADQEBD_K@Z
.global	?copy@?$_Narrow_char_traits@DH@std@@$$FSAPEADQEADQEBD_K@Z ; std::_Narrow_char_traits<char,int>::copy
?copy@?$_Narrow_char_traits@DH@std@@$$FSAPEADQEADQEBD_K@Z: ; std::_Narrow_char_traits<char,int>::copy
;	.proc.def	D:J(JJJ)

; Function Header:
; max stack depth = 3
; function size = 11 bytes
; local varsig tk = 0x110000D5 
; Exception Information:
; 0 handlers, each consisting of filtered handlers

;	.formal.i8 0,"_First1$" SIG: Optional C Binding Modifier(token:0x72E17C9).Optional C Binding Modifier(token:0x72E17CB).ptr.Optional C Binding Modifier(token:0x72E17CE).i1
;	.formal.i8 1,"_First2$" SIG: Optional C Binding Modifier(token:0x7205699).Optional C Binding Modifier(token:0x720569B).ptr.Optional C Binding Modifier(token:0x720569E).Optional C Binding Modifier(token:0x72056A0).i1
;	.formal.u8 2,"_Count$" SIG: Optional C Binding Modifier(token:0x722FC51).u8
;	.local.i8 0,"$T2" SIG: ptr.Optional C Binding Modifier(token:0x8708ACA).i1

;	.proc.beg

; 327  :         // copy [_First2, _First2 + _Count) to [_First1, ...)
; 328  :         return static_cast<_Elem*>(_CSTD memcpy(_First1, _First2, _Count));

	ldarg.0				; _First1$
	ldarg.1				; _First2$
	ldarg.2				; _Count$
	call		?memcpy@@$$J0YAPEAXPEAXPEBX_K@Z
	stloc.0				; $T2

; 329  :     }

	ldloc.0				; $T2
	ret		
 .end ?copy@?$_Narrow_char_traits@DH@std@@$$FSAPEADQEADQEBD_K@Z ; std::_Narrow_char_traits<char,int>::copy
;	.proc.end.i8
	.bss
.local	$T1,0
; Function compile flags: /Odtp
; File C:\Program Files (x86)\Microsoft Visual Studio\2019\Enterprise\VC\Tools\MSVC\14.27.29110\include\xstring
	.text
	.comdat	any, ?length@?$_Narrow_char_traits@DH@std@@$$FSA_KQEBD@Z
.global	?length@?$_Narrow_char_traits@DH@std@@$$FSA_KQEBD@Z ; std::_Narrow_char_traits<char,int>::length
?length@?$_Narrow_char_traits@DH@std@@$$FSA_KQEBD@Z:	; std::_Narrow_char_traits<char,int>::length
;	.proc.def	D:J(J)

; Function Header:
; max stack depth = 1
; function size = 9 bytes
; local varsig tk = 0x11000072 
; Exception Information:
; 0 handlers, each consisting of filtered handlers

;	.formal.i8 0,"_First$" SIG: Optional C Binding Modifier(token:0x7205699).Optional C Binding Modifier(token:0x720569B).ptr.Optional C Binding Modifier(token:0x720569E).Optional C Binding Modifier(token:0x72056A0).i1
;	.local.u8 0,"$T2" SIG: u8

;	.proc.beg

; 306  :         // find length of null-terminated string
; 307  : #if _HAS_CXX17
; 308  : #ifdef __cpp_char8_t
; 309  :         if constexpr (is_same_v<_Elem, char8_t>) {
; 310  : #if _HAS_U8_INTRINSICS
; 311  :             return __builtin_u8strlen(_First);
; 312  : #else // ^^^ use u8 intrinsics / no u8 intrinsics vvv
; 313  :             return _Char_traits<_Elem, _Int_type>::length(_First);
; 314  : #endif // _HAS_U8_INTRINSICS
; 315  :         } else
; 316  : #endif // __cpp_char8_t
; 317  :         {
; 318  :             return __builtin_strlen(_First);
; 319  :         }
; 320  : #else // _HAS_CXX17
; 321  :         return _CSTD strlen(reinterpret_cast<const char*>(_First));

	ldarg.0				; _First$
	call		?strlen@@$$J0YA_KPEBD@Z
	stloc.0				; $T2

; 322  : #endif // _HAS_CXX17
; 323  :     }

	ldloc.0				; $T2
	ret		
 .end ?length@?$_Narrow_char_traits@DH@std@@$$FSA_KQEBD@Z ; std::_Narrow_char_traits<char,int>::length
;	.proc.end.u8
.global	
.global	
	.bss
.local	,4
.local	,4
.local	$T1,0
; Function compile flags: /Odtp
; File C:\Program Files (x86)\Microsoft Visual Studio\2019\Enterprise\VC\Tools\MSVC\14.27.29110\include\xstring
	.text
	.comdat	any, ?copy@?$_WChar_traits@_W@std@@$$FSAPEA_WQEA_WQEB_W_K@Z
.global	?copy@?$_WChar_traits@_W@std@@$$FSAPEA_WQEA_WQEB_W_K@Z ; std::_WChar_traits<wchar_t>::copy
?copy@?$_WChar_traits@_W@std@@$$FSAPEA_WQEA_WQEB_W_K@Z:	; std::_WChar_traits<wchar_t>::copy
;	.proc.def	D:J(JJJ)

; Function Header:
; max stack depth = 3
; function size = 11 bytes
; local varsig tk = 0x1100005E 
; Exception Information:
; 0 handlers, each consisting of filtered handlers

;	.formal.i8 0,"_First1$" SIG: Optional C Binding Modifier(token:0x72B1961).Optional C Binding Modifier(token:0x72B1963).ptr.char
;	.formal.i8 1,"_First2$" SIG: Optional C Binding Modifier(token:0x72AF4E1).Optional C Binding Modifier(token:0x72AF4E3).ptr.Optional C Binding Modifier(token:0x72AF4E6).char
;	.formal.u8 2,"_Count$" SIG: Optional C Binding Modifier(token:0x722FC51).u8
;	.local.i8 0,"$T2" SIG: ptr.char

;	.proc.beg

; 174  :         // copy [_First2, _First2 + _Count) to [_First1, ...)
; 175  :         return reinterpret_cast<_Elem*>(

	ldarg.0				; _First1$
	ldarg.1				; _First2$
	ldarg.2				; _Count$
	call		?wmemcpy@@$$J0YAPEA_WPEA_WPEB_W_K@Z
	stloc.0				; $T2

; 176  :             _CSTD wmemcpy(reinterpret_cast<wchar_t*>(_First1), reinterpret_cast<const wchar_t*>(_First2), _Count));
; 177  :     }

	ldloc.0				; $T2
	ret		
 .end ?copy@?$_WChar_traits@_W@std@@$$FSAPEA_WQEA_WQEB_W_K@Z ; std::_WChar_traits<wchar_t>::copy
;	.proc.end.i8
.global	??_C@_0BJ@DHFDPMIM@invalid?5vector?5subscript@	; `string'
	.rdata
	.comdat	any, ??_C@_0BJ@DHFDPMIM@invalid?5vector?5subscript@

??_C@_0BJ@DHFDPMIM@invalid?5vector?5subscript@:		; `string'
	.ascii	"invalid vector subscript\000"
; Function compile flags: /Odtp
; File C:\Program Files (x86)\Microsoft Visual Studio\2019\Enterprise\VC\Tools\MSVC\14.27.29110\include\vector
	.text
	.comdat	any, ?_Xrange@?$vector@HV?$allocator@H@std@@@std@@$$FCAXXZ
.global	?_Xrange@?$vector@HV?$allocator@H@std@@@std@@$$FCAXXZ ; std::vector<int,std::allocator<int> >::_Xrange
?_Xrange@?$vector@HV?$allocator@H@std@@@std@@$$FCAXXZ:	; std::vector<int,std::allocator<int> >::_Xrange
;	.proc.def	D:V()

; Function Header:
; max stack depth = 1
; function size = 11 bytes
; local varsig tk = 0x0 
; Exception Information:
; 0 handlers, each consisting of filtered handlers


;	.proc.beg

; 1708 :         _Xout_of_range("invalid vector subscript");

	ldsflda		??_C@_0BJ@DHFDPMIM@invalid?5vector?5subscript@
	call		?_Xout_of_range@std@@$$FYAXPEBD@Z

; 1709 :     }

	ret		
 .end ?_Xrange@?$vector@HV?$allocator@H@std@@@std@@$$FCAXXZ ; std::vector<int,std::allocator<int> >::_Xrange
;	.proc.end.void
.global	
	.bss
.local	,4
.local	$T1,0
; Function compile flags: /Odtp
; File C:\Program Files (x86)\Microsoft Visual Studio\2019\Enterprise\VC\Tools\MSVC\14.27.29110\include\xmemory
	.text
	.comdat	any, ?select_on_container_copy_construction@?$_Default_allocator_traits@V?$allocator@H@std@@@std@@$$FSA?AV?$allocator@H@2@AEBV32@@Z
.global	?select_on_container_copy_construction@?$_Default_allocator_traits@V?$allocator@H@std@@@std@@$$FSA?AV?$allocator@H@2@AEBV32@@Z ; std::_Default_allocator_traits<std::allocator<int> >::select_on_container_copy_construction
?select_on_container_copy_construction@?$_Default_allocator_traits@V?$allocator@H@std@@@std@@$$FSA?AV?$allocator@H@2@AEBV32@@Z: ; std::_Default_allocator_traits<std::allocator<int> >::select_on_container_copy_construction
;	.proc.def	D:J(JJ)

; Function Header:
; max stack depth = 1
; function size = 4 bytes
; local varsig tk = 0x110000F6 
; Exception Information:
; 0 handlers, each consisting of filtered handlers

;	.formal.i8 0,"__$ReturnUdt$" SIG: ptr.valueType (token:0x72341EA)
;	.local.i8 0,"$T2" SIG: ptr.valueType (token:0x871A7F2)

;	.proc.beg

; 707  :         return _Al;

	ldarg.0				; __$ReturnUdt$
	stloc.0				; $T2

; 708  :     }

	ldloc.0				; $T2
	ret		
 .end ?select_on_container_copy_construction@?$_Default_allocator_traits@V?$allocator@H@std@@@std@@$$FSA?AV?$allocator@H@2@AEBV32@@Z ; std::_Default_allocator_traits<std::allocator<int> >::select_on_container_copy_construction
;	.proc.end.i8
.global	
.global	
	.bss
.local	,4
.local	,4
.local	$SigTok$$$A8?$basic_streambuf@DU?$char_traits@D@std@@@std@@EAAXXZ,4
.local	$T1,0
; Function compile flags: /Odtp
; File C:\Program Files (x86)\Microsoft Visual Studio\2019\Enterprise\VC\Tools\MSVC\14.27.29110\include\ostream
	.text
	.comdat	any, ??1_Sentry_base@?$basic_ostream@DU?$char_traits@D@std@@@std@@$$FQEAA@XZ
