; Listing generated by Microsoft (R) Optimizing Compiler Version 19.27.29111.0 

; Generated by VC++ for Common Language Runtime
.file "C:\Users\César Mosqueira\source\repos\CLRCV\CLRCV\DisplayHistogram.cpp"
	.rdata

$SG39123:
	.ascii	"invalid argument\000"
	.space	3

$SG39124:
	.ascii	"%s\000"
	.space	9

$SG39125:
	.ascii	"C:\\Program Files (x86)\\Microsoft Visual Studio\\2019\\"
	.ascii	"Enterprise\\VC\\Tools\\MSVC\\14.27.29110\\include\\xmemor"
	.ascii	"y\000"
	.space	7

$SG39126:
	.ascii	"C\000:\000\\\000P\000r\000o\000g\000r\000a\000m\000 \000"
	.ascii	"F\000i\000l\000e\000s\000 \000(\000x\0008\0006\000)\000\\"
	.ascii	"\000M\000i\000c\000r\000o\000s\000o\000f\000t\000 \000V\000"
	.ascii	"i\000s\000u\000a\000l\000 \000S\000t\000u\000d\000i\000o\000"
	.ascii	"\\\0002\0000\0001\0009\000\\\000E\000n\000t\000e\000r\000"
	.ascii	"p\000r\000i\000s\000e\000\\\000V\000C\000\\\000T\000o\000"
	.ascii	"o\000l\000s\000\\\000M\000S\000V\000C\000\\\0001\0004\000"
	.ascii	".\0002\0007\000.\0002\0009\0001\0001\0000\000\\\000i\000n"
	.ascii	"\000c\000l\000u\000d\000e\000\\\000x\000m\000e\000m\000o\000"
	.ascii	"r\000y\000\000\000"
	.space	14

$SG39127:
	.ascii	"s\000t\000d\000:\000:\000_\000A\000l\000l\000o\000c\000a"
	.ascii	"\000t\000e\000_\000m\000a\000n\000u\000a\000l\000l\000y\000"
	.ascii	"_\000v\000e\000c\000t\000o\000r\000_\000a\000l\000i\000g\000"
	.ascii	"n\000e\000d\000\000\000"
	.space	2

$SG39128:
	.ascii	"\"\000i\000n\000v\000a\000l\000i\000d\000 \000a\000r\000"
	.ascii	"g\000u\000m\000e\000n\000t\000\"\000\000\000"
.global	
.global	
.global	
	.bss
.local	,4
.local	,4
.local	,4
.local	$T1,0
; Function compile flags: /Odtp
; File C:\Users\César Mosqueira\source\repos\CLRCV\CLRCV\predefined C++ types (compiler internal)
	.text
	.comdat	any, ??2@$$FYAPEAX_KPEAXU__clr_placement_new_t@?A0xca13f8fb@@@Z
.global	??2@$$FYAPEAX_KPEAXU__clr_placement_new_t@?A0xca13f8fb@@@Z ; operator new
??2@$$FYAPEAX_KPEAXU__clr_placement_new_t@?A0xca13f8fb@@@Z: ; operator new
;	.proc.def	D:J(JJM<4  >)

; Function Header:
; max stack depth = 1
; function size = 4 bytes
; local varsig tk = 0x11000004 
; Exception Information:
; 0 handlers, each consisting of filtered handlers

;	.formal.i8 1,"_Where$" SIG: ptr.void
;	.local.i8 0,"$T2" SIG: ptr.void

;	.proc.beg

	ldarg.1				; _Where$
	stloc.0				; $T2

	ldloc.0				; $T2
	ret		
 .end ??2@$$FYAPEAX_KPEAXU__clr_placement_new_t@?A0xca13f8fb@@@Z ; operator new
;	.proc.end.i8
.global	
.global	
	.bss
.local	,4
.local	,4
; Function compile flags: /Odtp
; File C:\Users\César Mosqueira\source\repos\CLRCV\CLRCV\predefined C++\CLI attribute types (compiler internal)
	.text
	.comdat	any, ??0CppInlineNamespaceAttribute@?A0xca13f8fb@vc.cppcli.attributes@@$$FQE$AAM@PE$AAVString@System@@@Z
.global	??0CppInlineNamespaceAttribute@?A0xca13f8fb@vc.cppcli.attributes@@$$FQE$AAM@PE$AAVString@System@@@Z ; ??0CppInlineNamespaceAttribute@?A0xca13f8fb@vc.cppcli.attributes@@$$FQE$AAM@PE$AAVString@System@@@Z
??0CppInlineNamespaceAttribute@?A0xca13f8fb@vc.cppcli.attributes@@$$FQE$AAM@PE$AAVString@System@@@Z: ; ??0CppInlineNamespaceAttribute@?A0xca13f8fb@vc.cppcli.attributes@@$$FQE$AAM@PE$AAVString@System@@@Z
;	.proc.def	D:V(P)

; Function Header:
; max stack depth = 1
; function size = 7 bytes
; local varsig tk = 0x0 
; Exception Information:
; 0 handlers, each consisting of filtered handlers

;	.formal.mptr 0,"this$" SIG: Optional C Binding Modifier(token:0x86DA931).class (token:0x86DA933)

;	.proc.beg

	ldarg.0				; this$
	call		??0Attribute@System@@$$FIE$AAM@XZ
	ret		
 .end ??0CppInlineNamespaceAttribute@?A0xca13f8fb@vc.cppcli.attributes@@$$FQE$AAM@PE$AAVString@System@@@Z ; ??0CppInlineNamespaceAttribute@?A0xca13f8fb@vc.cppcli.attributes@@$$FQE$AAM@PE$AAVString@System@@@Z
;	.proc.end.void
	.bss
.local	$T1,0
; Function compile flags: /Odtp
; File C:\Program Files (x86)\Microsoft Visual Studio\2019\Enterprise\VC\Tools\MSVC\14.27.29110\include\vcruntime_new.h
	.text
	.comdat	any, ??2@$$FYAPEAX_KPEAX@Z
.global	??2@$$FYAPEAX_KPEAX@Z				; operator new
??2@$$FYAPEAX_KPEAX@Z:					; operator new
;	.proc.def	D:J(JJ)

; Function Header:
; max stack depth = 1
; function size = 4 bytes
; local varsig tk = 0x11000004 
; Exception Information:
; 0 handlers, each consisting of filtered handlers

;	.formal.i8 1,"_Where$" SIG: ptr.void
;	.local.i8 0,"$T2" SIG: ptr.void

;	.proc.beg

; 168  :         (void)_Size;
; 169  :         return _Where;

	ldarg.1				; _Where$
	stloc.0				; $T2

; 170  :     }

	ldloc.0				; $T2
	ret		
 .end ??2@$$FYAPEAX_KPEAX@Z				; operator new
;	.proc.end.i8
	.bss
.local	$T1,0
; Function compile flags: /Odtp
; File C:\Program Files (x86)\Microsoft Visual Studio\2019\Enterprise\VC\Tools\MSVC\14.27.29110\include\limits
	.text
	.comdat	any, ?max@?$numeric_limits@_J@std@@$$FSA_JXZ
.global	?max@?$numeric_limits@_J@std@@$$FSA_JXZ		; std::numeric_limits<__int64>::max
?max@?$numeric_limits@_J@std@@$$FSA_JXZ:		; std::numeric_limits<__int64>::max
;	.proc.def	D:J()

; Function Header:
; max stack depth = 1
; function size = 12 bytes
; local varsig tk = 0x11000007 
; Exception Information:
; 0 handlers, each consisting of filtered handlers

;	.local.i8 0,"$T2" SIG: i8

;	.proc.beg

; 646  :         return LLONG_MAX;

	ldc.i8		9223372036854775807 ; i64 0x7fffffffffffffff
	stloc.0				; $T2

; 647  :     }

	ldloc.0				; $T2
	ret		
 .end ?max@?$numeric_limits@_J@std@@$$FSA_JXZ		; std::numeric_limits<__int64>::max
;	.proc.end.i8
.global	
.global	
.global	
.global	??_R0?AVexception@std@@@8			; std::exception `RTTI Type Descriptor'
.global	??_R1A@?0A@EA@exception@std@@8			; std::exception::`RTTI Base Class Descriptor at (0,-1,0,64)'
.global	??_R2exception@std@@8				; std::exception::`RTTI Base Class Array'
.global	??_R3exception@std@@8				; std::exception::`RTTI Class Hierarchy Descriptor'
.global	??_R4exception@std@@6B@				; std::exception::`RTTI Complete Object Locator'
.global	??_7exception@std@@6B@				; std::exception::`vftable'
	.bss
.local	,4
.local	,4
.local	,4
	.data
	.comdat	largest, ??_7exception@std@@6B@

??_7exception@std@@6B@:					; std::exception::`vftable'
	DQ	??_R4exception@std@@6B@
	DQ	??_Eexception@std@@UEAAPEAXI@Z
	DQ	?what@exception@std@@UEBAPEBDXZ
	.rdataseg	.rdata$r
	.comdat	any, ??_R4exception@std@@6B@

??_R4exception@std@@6B@:				; std::exception::`RTTI Complete Object Locator'
	.word	0x1
	.word	0x0
	.word	0x0 DD imagerel ??_R0?AVexception@std@@@8 DD imagerel ??_R3exception@std@@8 DD imagerel ??_R4exception@std@@6B@
	.rdataseg	.rdata$r
	.comdat	any, ??_R3exception@std@@8

??_R3exception@std@@8:					; std::exception::`RTTI Class Hierarchy Descriptor'
	.word	0x0
	.word	0x0
	.word	0x1 DD imagerel ??_R2exception@std@@8
	.rdataseg	.rdata$r
	.comdat	any, ??_R2exception@std@@8

??_R2exception@std@@8:					; std::exception::`RTTI Base Class Array' DD imagerel ??_R1A@?0A@EA@exception@std@@8
	.space	3
	.rdataseg	.rdata$r
	.comdat	any, ??_R1A@?0A@EA@exception@std@@8

??_R1A@?0A@EA@exception@std@@8:				; std::exception::`RTTI Base Class Descriptor at (0,-1,0,64)' DD imagerel ??_R0?AVexception@std@@@8
	.word	0x0
	.word	0x0
	.word	0xffffffff
	.word	0x0
	.word	0x40 DD imagerel ??_R3exception@std@@8
	.dataseg	.data$r
	.comdat	any, ??_R0?AVexception@std@@@8

??_R0?AVexception@std@@@8:				; std::exception `RTTI Type Descriptor'
	DQ	??_7type_info@@6B@
	.double	0x0000000000000000
	.ascii	".?AVexception@std@@\000"
; Function compile flags: /Odtp
; File C:\Program Files (x86)\Microsoft Visual Studio\2019\Enterprise\VC\Tools\MSVC\14.27.29110\include\vcruntime_exception.h
	.text
	.comdat	any, ??0exception@std@@$$FQEAA@QEBDH@Z
.global	??0exception@std@@$$FQEAA@QEBDH@Z		; std::exception::exception
??0exception@std@@$$FQEAA@QEBDH@Z:			; std::exception::exception
;	.proc.def	D:J(JJI)

; Function Header:
; max stack depth = 3
; function size = 25 bytes
; local varsig tk = 0x0 
; Exception Information:
; 0 handlers, each consisting of filtered handlers

;	.formal.i8 0,"this$" SIG: Optional C Binding Modifier(token:0x86D9C91).Optional C Binding Modifier(token:0x86D9C93).ptr.valueType (token:0x86D9C96)
;	.formal.i8 1,"_Message$" SIG: Optional C Binding Modifier(token:0x895D889).Optional C Binding Modifier(token:0x895D88B).ptr.Optional C Binding Modifier(token:0x895D88E).Optional C Binding Modifier(token:0x895D890).i1

;	.proc.beg

; 66   :     {

	ldarg.0				; this$
	ldsflda		??_7exception@std@@6B@
	stind.i8	

; 65   :         : _Data()

	ldarg.0				; this$
	ldc.i.8		8		; i64 0x8
	conv.i8		
	add		
	ldc.i.0		0		; i32 0x0
	ldc.i4.s	16		; u64 0x10
	conv.i8		
	initblk		

; 67   :         _Data._What = _Message;

	ldarg.0				; this$
	ldc.i.8		8		; i64 0x8
	conv.i8		
	add		
	ldarg.1				; _Message$
	stind.i8	

; 68   :     }

	ldarg.0				; this$
	ret		
 .end ??0exception@std@@$$FQEAA@QEBDH@Z			; std::exception::exception
;	.proc.end.i8
.global	
	.bss
.local	,4
; Function compile flags: /Odtp
; File C:\Program Files (x86)\Microsoft Visual Studio\2019\Enterprise\VC\Tools\MSVC\14.27.29110\include\vcruntime_exception.h
	.text
	.comdat	any, ??0exception@std@@$$FQEAA@AEBV01@@Z
.global	??0exception@std@@$$FQEAA@AEBV01@@Z		; std::exception::exception
??0exception@std@@$$FQEAA@AEBV01@@Z:			; std::exception::exception
;	.proc.def	D:J(JJ)

; Function Header:
; max stack depth = 3
; function size = 32 bytes
; local varsig tk = 0x0 
; Exception Information:
; 0 handlers, each consisting of filtered handlers

;	.formal.i8 0,"this$" SIG: Optional C Binding Modifier(token:0x86D9C91).Optional C Binding Modifier(token:0x86D9C93).ptr.valueType (token:0x86D9C96)
;	.formal.i8 1,"_Other$" SIG: Optional C Binding Modifier(token:0x8701AD9).ptr.Optional C Binding Modifier(token:0x8701ADC).valueType (token:0x8701ADE)

;	.proc.beg

; 72   :     {

	ldarg.0				; this$
	ldsflda		??_7exception@std@@6B@
	stind.i8	

; 71   :         : _Data()

	ldarg.0				; this$
	ldc.i.8		8		; i64 0x8
	conv.i8		
	add		
	ldc.i.0		0		; i32 0x0
	ldc.i4.s	16		; u64 0x10
	conv.i8		
	initblk		

; 73   :         __std_exception_copy(&_Other._Data, &_Data);

	ldarg.1				; _Other$
	ldc.i.8		8		; i64 0x8
	conv.i8		
	add		
	ldarg.0				; this$
	ldc.i.8		8		; i64 0x8
	conv.i8		
	add		
	call		?__std_exception_copy@@$$J0YAXPEBU__std_exception_data@@PEAU1@@Z

; 74   :     }

	ldarg.0				; this$
	ret		
 .end ??0exception@std@@$$FQEAA@AEBV01@@Z		; std::exception::exception
;	.proc.end.i8
PUBLIC	__t2m@??0exception@std@@QEAA@AEBV01@@Z
PUBLIC	__m2mep@??0exception@std@@$$FQEAA@AEBV01@@Z
PUBLIC	__mep@??0exception@std@@$$FQEAA@AEBV01@@Z
;	COMDAT __mep@??0exception@std@@$$FQEAA@AEBV01@@Z
data	SEGMENT
__mep@??0exception@std@@$$FQEAA@AEBV01@@Z TOKEN 0A000051
data	ENDS
;	COMDAT __m2mep@??0exception@std@@$$FQEAA@AEBV01@@Z
data	SEGMENT
__m2mep@??0exception@std@@$$FQEAA@AEBV01@@Z DD FLAT:??0exception@std@@$$FQEAA@AEBV01@@Z
data	ENDS
; Function compile flags: /Ods
;	COMDAT nep
_TEXT	SEGMENT
__t2m@??0exception@std@@QEAA@AEBV01@@Z PROC		; COMDAT
	jmp	SHORT $LN1@
	ud2
$LN2@:
	jmp	QWORD PTR __m2mep@??0exception@std@@$$FQEAA@AEBV01@@Z
$LN1@:
	jmp	QWORD PTR __mep@??0exception@std@@$$FQEAA@AEBV01@@Z
__t2m@??0exception@std@@QEAA@AEBV01@@Z ENDP
_TEXT	ENDS
; Function compile flags: /Odtp
; File C:\Program Files (x86)\Microsoft Visual Studio\2019\Enterprise\VC\Tools\MSVC\14.27.29110\include\vcruntime_exception.h
	.text
	.comdat	any, ??1exception@std@@$$FUEAA@XZ
.global	??1exception@std@@$$FUEAA@XZ			; std::exception::~exception
??1exception@std@@$$FUEAA@XZ:				; std::exception::~exception
;	.proc.def	D:V(J)

; Function Header:
; max stack depth = 2
; function size = 17 bytes
; local varsig tk = 0x0 
; Exception Information:
; 0 handlers, each consisting of filtered handlers

;	.formal.i8 0,"this$" SIG: Optional C Binding Modifier(token:0x86D9C91).Optional C Binding Modifier(token:0x86D9C93).ptr.valueType (token:0x86D9C96)

;	.proc.beg

; 89   :     {

	ldarg.0				; this$
	ldsflda		??_7exception@std@@6B@
	stind.i8	

; 90   :         __std_exception_destroy(&_Data);

	ldarg.0				; this$
	ldc.i.8		8		; i64 0x8
	conv.i8		
	add		
	call		?__std_exception_destroy@@$$J0YAXPEAU__std_exception_data@@@Z

; 91   :     }

	ret		
 .end ??1exception@std@@$$FUEAA@XZ			; std::exception::~exception
;	.proc.end.void
.global	
.global	??_R0?AVbad_alloc@std@@@8			; std::bad_alloc `RTTI Type Descriptor'
.global	??_R1A@?0A@EA@bad_alloc@std@@8			; std::bad_alloc::`RTTI Base Class Descriptor at (0,-1,0,64)'
.global	??_R2bad_alloc@std@@8				; std::bad_alloc::`RTTI Base Class Array'
.global	??_R3bad_alloc@std@@8				; std::bad_alloc::`RTTI Class Hierarchy Descriptor'
.global	??_R4bad_alloc@std@@6B@				; std::bad_alloc::`RTTI Complete Object Locator'
.global	??_7bad_alloc@std@@6B@				; std::bad_alloc::`vftable'
	.bss
.local	,4
	.data
	.comdat	largest, ??_7bad_alloc@std@@6B@

??_7bad_alloc@std@@6B@:					; std::bad_alloc::`vftable'
	DQ	??_R4bad_alloc@std@@6B@
	DQ	??_Ebad_alloc@std@@UEAAPEAXI@Z
	DQ	?what@exception@std@@UEBAPEBDXZ
	.rdataseg	.rdata$r
	.comdat	any, ??_R4bad_alloc@std@@6B@

??_R4bad_alloc@std@@6B@:				; std::bad_alloc::`RTTI Complete Object Locator'
	.word	0x1
	.word	0x0
	.word	0x0 DD imagerel ??_R0?AVbad_alloc@std@@@8 DD imagerel ??_R3bad_alloc@std@@8 DD imagerel ??_R4bad_alloc@std@@6B@
	.rdataseg	.rdata$r
	.comdat	any, ??_R3bad_alloc@std@@8

??_R3bad_alloc@std@@8:					; std::bad_alloc::`RTTI Class Hierarchy Descriptor'
	.word	0x0
	.word	0x0
	.word	0x2 DD imagerel ??_R2bad_alloc@std@@8
	.rdataseg	.rdata$r
	.comdat	any, ??_R2bad_alloc@std@@8

??_R2bad_alloc@std@@8:					; std::bad_alloc::`RTTI Base Class Array' DD imagerel ??_R1A@?0A@EA@bad_alloc@std@@8 DD imagerel ??_R1A@?0A@EA@exception@std@@8
	.space	3
	.rdataseg	.rdata$r
	.comdat	any, ??_R1A@?0A@EA@bad_alloc@std@@8

??_R1A@?0A@EA@bad_alloc@std@@8:				; std::bad_alloc::`RTTI Base Class Descriptor at (0,-1,0,64)' DD imagerel ??_R0?AVbad_alloc@std@@@8
	.word	0x1
	.word	0x0
	.word	0xffffffff
	.word	0x0
	.word	0x40 DD imagerel ??_R3bad_alloc@std@@8
	.dataseg	.data$r
	.comdat	any, ??_R0?AVbad_alloc@std@@@8

??_R0?AVbad_alloc@std@@@8:				; std::bad_alloc `RTTI Type Descriptor'
	DQ	??_7type_info@@6B@
	.double	0x0000000000000000
	.ascii	".?AVbad_alloc@std@@\000"
; Function compile flags: /Odtp
; File C:\Program Files (x86)\Microsoft Visual Studio\2019\Enterprise\VC\Tools\MSVC\14.27.29110\include\vcruntime_exception.h
	.text
	.comdat	any, ??0bad_alloc@std@@$$FAEAA@QEBD@Z
.global	??0bad_alloc@std@@$$FAEAA@QEBD@Z		; std::bad_alloc::bad_alloc
??0bad_alloc@std@@$$FAEAA@QEBD@Z:			; std::bad_alloc::bad_alloc
;	.proc.def	D:J(JJ)

; Function Header:
; max stack depth = 3
; function size = 33 bytes
; local varsig tk = 0x0 
; Exception Information:
; 1 handlers, each consisting of filtered handlers

;	.formal.i8 0,"this$" SIG: Optional C Binding Modifier(token:0x895F879).Optional C Binding Modifier(token:0x895F87B).ptr.valueType (token:0x895F87E)
;	.formal.i8 1,"_Message$" SIG: Optional C Binding Modifier(token:0x895D889).Optional C Binding Modifier(token:0x895D88B).ptr.Optional C Binding Modifier(token:0x895D88E).Optional C Binding Modifier(token:0x895D890).i1

;	.proc.beg

; 129  :         : exception(_Message, 1)

	ldarg.0				; this$
	ldarg.1				; _Message$
	ldc.i.1		1		; i32 0x1
	call		??0exception@std@@$$FQEAA@QEBDH@Z
	pop		
$LN4@bad_alloc:

; 130  :     {

	ldarg.0				; this$
	ldsflda		??_7bad_alloc@std@@6B@
	stind.i8	
	leave.s		$LN5@bad_alloc
$LN6@bad_alloc:
	ldftn		??1exception@std@@$$FUEAA@XZ
	ldarg.0				; this$
	call		?___CxxCallUnwindDtor@@$$J0YMXP6MXPEAX@Z0@Z
	endfinally	
$LN5@bad_alloc:

; 131  :     }

	ldarg.0				; this$
	ret		
 .end ??0bad_alloc@std@@$$FAEAA@QEBD@Z			; std::bad_alloc::bad_alloc
;	.proc.end.i8
; Function compile flags: /Odtp
	.text
	.comdat	any, ??1bad_alloc@std@@$$FUEAA@XZ
.global	??1bad_alloc@std@@$$FUEAA@XZ			; std::bad_alloc::~bad_alloc
??1bad_alloc@std@@$$FUEAA@XZ:				; std::bad_alloc::~bad_alloc
;	.proc.def	D:V(J)

; Function Header:
; max stack depth = 1
; function size = 7 bytes
; local varsig tk = 0x0 
; Exception Information:
; 0 handlers, each consisting of filtered handlers

;	.formal.i8 0,"this$" SIG: Optional C Binding Modifier(token:0x895F879).Optional C Binding Modifier(token:0x895F87B).ptr.valueType (token:0x895F87E)

;	.proc.beg
	ldarg.0				; this$
	call		??1exception@std@@$$FUEAA@XZ
	ret		
 .end ??1bad_alloc@std@@$$FUEAA@XZ			; std::bad_alloc::~bad_alloc
;	.proc.end.void
.global	
.global	??_C@_0BF@KINCDENJ@bad?5array?5new?5length@	; `string'
.global	??_R0?AVbad_array_new_length@std@@@8		; std::bad_array_new_length `RTTI Type Descriptor'
.global	??_R1A@?0A@EA@bad_array_new_length@std@@8	; std::bad_array_new_length::`RTTI Base Class Descriptor at (0,-1,0,64)'
.global	??_R2bad_array_new_length@std@@8		; std::bad_array_new_length::`RTTI Base Class Array'
.global	??_R3bad_array_new_length@std@@8		; std::bad_array_new_length::`RTTI Class Hierarchy Descriptor'
.global	??_R4bad_array_new_length@std@@6B@		; std::bad_array_new_length::`RTTI Complete Object Locator'
.global	??_7bad_array_new_length@std@@6B@		; std::bad_array_new_length::`vftable'
	.bss
.local	,4
	.data
	.comdat	largest, ??_7bad_array_new_length@std@@6B@

??_7bad_array_new_length@std@@6B@:			; std::bad_array_new_length::`vftable'
	DQ	??_R4bad_array_new_length@std@@6B@
	DQ	??_Ebad_array_new_length@std@@UEAAPEAXI@Z
	DQ	?what@exception@std@@UEBAPEBDXZ
	.rdataseg	.rdata$r
	.comdat	any, ??_R4bad_array_new_length@std@@6B@

??_R4bad_array_new_length@std@@6B@:			; std::bad_array_new_length::`RTTI Complete Object Locator'
	.word	0x1
	.word	0x0
	.word	0x0 DD imagerel ??_R0?AVbad_array_new_length@std@@@8 DD imagerel ??_R3bad_array_new_length@std@@8 DD imagerel ??_R4bad_array_new_length@std@@6B@
	.rdataseg	.rdata$r
	.comdat	any, ??_R3bad_array_new_length@std@@8

??_R3bad_array_new_length@std@@8:			; std::bad_array_new_length::`RTTI Class Hierarchy Descriptor'
	.word	0x0
	.word	0x0
	.word	0x3 DD imagerel ??_R2bad_array_new_length@std@@8
	.rdataseg	.rdata$r
	.comdat	any, ??_R2bad_array_new_length@std@@8

??_R2bad_array_new_length@std@@8:			; std::bad_array_new_length::`RTTI Base Class Array' DD imagerel ??_R1A@?0A@EA@bad_array_new_length@std@@8 DD imagerel ??_R1A@?0A@EA@bad_alloc@std@@8 DD imagerel ??_R1A@?0A@EA@exception@std@@8
	.space	3
	.rdataseg	.rdata$r
	.comdat	any, ??_R1A@?0A@EA@bad_array_new_length@std@@8

??_R1A@?0A@EA@bad_array_new_length@std@@8:		; std::bad_array_new_length::`RTTI Base Class Descriptor at (0,-1,0,64)' DD imagerel ??_R0?AVbad_array_new_length@std@@@8
	.word	0x2
	.word	0x0
	.word	0xffffffff
	.word	0x0
	.word	0x40 DD imagerel ??_R3bad_array_new_length@std@@8
	.dataseg	.data$r
	.comdat	any, ??_R0?AVbad_array_new_length@std@@@8

??_R0?AVbad_array_new_length@std@@@8:			; std::bad_array_new_length `RTTI Type Descriptor'
	DQ	??_7type_info@@6B@
	.double	0x0000000000000000
	.ascii	".?AVbad_array_new_length@std@@\000"
	.rdata
	.comdat	any, ??_C@_0BF@KINCDENJ@bad?5array?5new?5length@

??_C@_0BF@KINCDENJ@bad?5array?5new?5length@:		; `string'
	.ascii	"bad array new length\000"
; Function compile flags: /Odtp
; File C:\Program Files (x86)\Microsoft Visual Studio\2019\Enterprise\VC\Tools\MSVC\14.27.29110\include\vcruntime_exception.h
	.text
	.comdat	any, ??0bad_array_new_length@std@@$$FQEAA@XZ
.global	??0bad_array_new_length@std@@$$FQEAA@XZ		; std::bad_array_new_length::bad_array_new_length
??0bad_array_new_length@std@@$$FQEAA@XZ:		; std::bad_array_new_length::bad_array_new_length
;	.proc.def	D:J(J)

; Function Header:
; max stack depth = 2
; function size = 36 bytes
; local varsig tk = 0x0 
; Exception Information:
; 1 handlers, each consisting of filtered handlers

;	.formal.i8 0,"this$" SIG: Optional C Binding Modifier(token:0x895F1B1).Optional C Binding Modifier(token:0x895F1B3).ptr.valueType (token:0x895F1B6)

;	.proc.beg

; 140  :         : bad_alloc("bad array new length")

	ldarg.0				; this$
	ldsflda		??_C@_0BF@KINCDENJ@bad?5array?5new?5length@
	call		??0bad_alloc@std@@$$FAEAA@QEBD@Z
	pop		
$LN4@bad_array_:

; 141  :     {

	ldarg.0				; this$
	ldsflda		??_7bad_array_new_length@std@@6B@
	stind.i8	
	leave.s		$LN5@bad_array_
$LN6@bad_array_:
	ldftn		??1bad_alloc@std@@$$FUEAA@XZ
	ldarg.0				; this$
	call		?___CxxCallUnwindDtor@@$$J0YMXP6MXPEAX@Z0@Z
	endfinally	
$LN5@bad_array_:

; 142  :     }

	ldarg.0				; this$
	ret		
 .end ??0bad_array_new_length@std@@$$FQEAA@XZ		; std::bad_array_new_length::bad_array_new_length
;	.proc.end.i8
.global	
	.bss
.local	,4
; Function compile flags: /Odtp
; File C:\Program Files (x86)\Microsoft Visual Studio\2019\Enterprise\VC\Tools\MSVC\14.27.29110\include\exception
	.text
	.comdat	any, ??1exception_ptr@std@@$$FQEAA@XZ
.global	??1exception_ptr@std@@$$FQEAA@XZ		; std::exception_ptr::~exception_ptr
??1exception_ptr@std@@$$FQEAA@XZ:			; std::exception_ptr::~exception_ptr
;	.proc.def	D:V(J)

; Function Header:
; max stack depth = 1
; function size = 7 bytes
; local varsig tk = 0x0 
; Exception Information:
; 0 handlers, each consisting of filtered handlers

;	.formal.i8 0,"this$" SIG: Optional C Binding Modifier(token:0x8953491).Optional C Binding Modifier(token:0x8953493).ptr.valueType (token:0x8953496)

;	.proc.beg

; 225  :         __ExceptionPtrDestroy(this);

	ldarg.0				; this$
	call		?__ExceptionPtrDestroy@@$$FYAXPEAX@Z

; 226  :     }

	ret		
 .end ??1exception_ptr@std@@$$FQEAA@XZ			; std::exception_ptr::~exception_ptr
;	.proc.end.void
.global	
	.bss
.local	,4
; Function compile flags: /Odtp
; File C:\Program Files (x86)\Microsoft Visual Studio\2019\Enterprise\VC\Tools\MSVC\14.27.29110\include\exception
	.text
	.comdat	any, ??0exception_ptr@std@@$$FQEAA@AEBV01@@Z
.global	??0exception_ptr@std@@$$FQEAA@AEBV01@@Z		; std::exception_ptr::exception_ptr
??0exception_ptr@std@@$$FQEAA@AEBV01@@Z:		; std::exception_ptr::exception_ptr
;	.proc.def	D:J(JJ)

; Function Header:
; max stack depth = 2
; function size = 9 bytes
; local varsig tk = 0x0 
; Exception Information:
; 0 handlers, each consisting of filtered handlers

;	.formal.i8 0,"this$" SIG: Optional C Binding Modifier(token:0x8953491).Optional C Binding Modifier(token:0x8953493).ptr.valueType (token:0x8953496)
;	.formal.i8 1,"_Rhs$" SIG: Optional C Binding Modifier(token:0x86DAAE1).ptr.Optional C Binding Modifier(token:0x86DAAE4).valueType (token:0x86DAAE6)

;	.proc.beg

; 229  :         __ExceptionPtrCopy(this, &_Rhs);

	ldarg.0				; this$
	ldarg.1				; _Rhs$
	call		?__ExceptionPtrCopy@@$$FYAXPEAXPEBX@Z

; 230  :     }

	ldarg.0				; this$
	ret		
 .end ??0exception_ptr@std@@$$FQEAA@AEBV01@@Z		; std::exception_ptr::exception_ptr
;	.proc.end.i8
PUBLIC	__t2m@??0exception_ptr@std@@QEAA@AEBV01@@Z
PUBLIC	__m2mep@??0exception_ptr@std@@$$FQEAA@AEBV01@@Z
PUBLIC	__mep@??0exception_ptr@std@@$$FQEAA@AEBV01@@Z
;	COMDAT __mep@??0exception_ptr@std@@$$FQEAA@AEBV01@@Z
data	SEGMENT
__mep@??0exception_ptr@std@@$$FQEAA@AEBV01@@Z TOKEN 0A000060
data	ENDS
;	COMDAT __m2mep@??0exception_ptr@std@@$$FQEAA@AEBV01@@Z
data	SEGMENT
__m2mep@??0exception_ptr@std@@$$FQEAA@AEBV01@@Z DD FLAT:??0exception_ptr@std@@$$FQEAA@AEBV01@@Z
data	ENDS
; Function compile flags: /Ods
;	COMDAT nep
_TEXT	SEGMENT
__t2m@??0exception_ptr@std@@QEAA@AEBV01@@Z PROC		; COMDAT
	jmp	SHORT $LN1@
	ud2
$LN2@:
	jmp	QWORD PTR __m2mep@??0exception_ptr@std@@$$FQEAA@AEBV01@@Z
$LN1@:
	jmp	QWORD PTR __mep@??0exception_ptr@std@@$$FQEAA@AEBV01@@Z
__t2m@??0exception_ptr@std@@QEAA@AEBV01@@Z ENDP
_TEXT	ENDS
.global	_CT??_R0?AVbad_array_new_length@std@@@8??0bad_array_new_length@std@@$$FQEAA@AEBV01@@Z24
.global	_CT??_R0?AVbad_alloc@std@@@8??0bad_alloc@std@@$$FQEAA@AEBV01@@Z24
.global	_CT??_R0?AVexception@std@@@8??0exception@std@@$$FQEAA@AEBV01@@Z24
.global	_CTA3?AVbad_array_new_length@std@@
.global	_TI3?AVbad_array_new_length@std@@
	.bss
.local	$T1,0
	.rdataseg	.xdata$x
	.comdat	any, _TI3?AVbad_array_new_length@std@@

_TI3?AVbad_array_new_length@std@@:
	.word	0x0 DD imagerel ??1bad_array_new_length@std@@UEAA@XZ
	.word	0x0 DD imagerel _CTA3?AVbad_array_new_length@std@@
	.rdataseg	.xdata$x
	.comdat	any, _CTA3?AVbad_array_new_length@std@@

_CTA3?AVbad_array_new_length@std@@:
	.word	0x3 DD imagerel _CT??_R0?AVbad_array_new_length@std@@@8??0bad_array_new_length@std@@$$FQEAA@AEBV01@@Z24 DD imagerel _CT??_R0?AVbad_alloc@std@@@8??0bad_alloc@std@@$$FQEAA@AEBV01@@Z24 DD imagerel _CT??_R0?AVexception@std@@@8??0exception@std@@$$FQEAA@AEBV01@@Z24
	.rdataseg	.xdata$x
	.comdat	any, _CT??_R0?AVexception@std@@@8??0exception@std@@$$FQEAA@AEBV01@@Z24

_CT??_R0?AVexception@std@@@8??0exception@std@@$$FQEAA@AEBV01@@Z24:
	.word	0x0 DD imagerel ??_R0?AVexception@std@@@8
	.word	0x0
	.word	0xffffffff
	.space	4
	.word	0x18 DD imagerel ??0exception@std@@QEAA@AEBV01@@Z
	.rdataseg	.xdata$x
	.comdat	any, _CT??_R0?AVbad_alloc@std@@@8??0bad_alloc@std@@$$FQEAA@AEBV01@@Z24

_CT??_R0?AVbad_alloc@std@@@8??0bad_alloc@std@@$$FQEAA@AEBV01@@Z24:
	.word	0x10 DD imagerel ??_R0?AVbad_alloc@std@@@8
	.word	0x0
	.word	0xffffffff
	.space	4
	.word	0x18 DD imagerel ??0bad_alloc@std@@QEAA@AEBV01@@Z
	.rdataseg	.xdata$x
	.comdat	any, _CT??_R0?AVbad_array_new_length@std@@@8??0bad_array_new_length@std@@$$FQEAA@AEBV01@@Z24

_CT??_R0?AVbad_array_new_length@std@@@8??0bad_array_new_length@std@@$$FQEAA@AEBV01@@Z24:
	.word	0x0 DD imagerel ??_R0?AVbad_array_new_length@std@@@8
	.word	0x0
	.word	0xffffffff
	.space	4
	.word	0x18 DD imagerel ??0bad_array_new_length@std@@QEAA@AEBV01@@Z
; Function compile flags: /Odtp
; File C:\Program Files (x86)\Microsoft Visual Studio\2019\Enterprise\VC\Tools\MSVC\14.27.29110\include\exception
	.text
	.comdat	any, ?_Throw_bad_array_new_length@std@@$$FYAXXZ
.global	?_Throw_bad_array_new_length@std@@$$FYAXXZ	; std::_Throw_bad_array_new_length
?_Throw_bad_array_new_length@std@@$$FYAXXZ:		; std::_Throw_bad_array_new_length
;	.proc.def	D:V()

; Function Header:
; max stack depth = 2
; function size = 21 bytes
; local varsig tk = 0x11000010 
; Exception Information:
; 0 handlers, each consisting of filtered handlers

;	.local.mb24  0,"$T2" SIG: valueType (token:0x89539D1)

;	.proc.beg

; 321  :     _THROW(bad_array_new_length{});

	ldloca.s	0		; $T2
	call		??0bad_array_new_length@std@@$$FQEAA@XZ
	pop		
	ldloca.s	0		; $T2
	ldsflda		_TI3?AVbad_array_new_length@std@@
	call		?_CxxThrowException@@$$J0YAXPEAXPEBU_s__ThrowInfo@@@Z

; 322  : }

	ret		
 .end ?_Throw_bad_array_new_length@std@@$$FYAXXZ	; std::_Throw_bad_array_new_length
;	.proc.end.void
.global	
	.bss
.local	,4
; Function compile flags: /Odtp
	.text
	.comdat	any, ??0bad_alloc@std@@$$FQEAA@AEBV01@@Z
.global	??0bad_alloc@std@@$$FQEAA@AEBV01@@Z		; std::bad_alloc::bad_alloc
??0bad_alloc@std@@$$FQEAA@AEBV01@@Z:			; std::bad_alloc::bad_alloc
;	.proc.def	D:J(JJ)

; Function Header:
; max stack depth = 2
; function size = 32 bytes
; local varsig tk = 0x0 
; Exception Information:
; 1 handlers, each consisting of filtered handlers

;	.formal.i8 0,"this$" SIG: Optional C Binding Modifier(token:0x895F879).Optional C Binding Modifier(token:0x895F87B).ptr.valueType (token:0x895F87E)
;	.formal.i8 1,"__that$" SIG: Optional C Binding Modifier(token:0x86FC6F1).ptr.Optional C Binding Modifier(token:0x86FC6F4).valueType (token:0x86FC6F6)

;	.proc.beg
	ldarg.0				; this$
	ldarg.1				; __that$
	call		??0exception@std@@$$FQEAA@AEBV01@@Z
	pop		
$LN4@bad_alloc:
	ldarg.0				; this$
	ldsflda		??_7bad_alloc@std@@6B@
	stind.i8	
	leave.s		$LN5@bad_alloc
$LN6@bad_alloc:
	ldftn		??1exception@std@@$$FUEAA@XZ
	ldarg.0				; this$
	call		?___CxxCallUnwindDtor@@$$J0YMXP6MXPEAX@Z0@Z
	endfinally	
$LN5@bad_alloc:
	ldarg.0				; this$
	ret		
 .end ??0bad_alloc@std@@$$FQEAA@AEBV01@@Z		; std::bad_alloc::bad_alloc
;	.proc.end.i8
PUBLIC	__t2m@??0bad_alloc@std@@QEAA@AEBV01@@Z
PUBLIC	__m2mep@??0bad_alloc@std@@$$FQEAA@AEBV01@@Z
PUBLIC	__mep@??0bad_alloc@std@@$$FQEAA@AEBV01@@Z
;	COMDAT __mep@??0bad_alloc@std@@$$FQEAA@AEBV01@@Z
data	SEGMENT
__mep@??0bad_alloc@std@@$$FQEAA@AEBV01@@Z TOKEN 0A00006A
data	ENDS
;	COMDAT __m2mep@??0bad_alloc@std@@$$FQEAA@AEBV01@@Z
data	SEGMENT
__m2mep@??0bad_alloc@std@@$$FQEAA@AEBV01@@Z DD FLAT:??0bad_alloc@std@@$$FQEAA@AEBV01@@Z
data	ENDS
; Function compile flags: /Ods
;	COMDAT nep
_TEXT	SEGMENT
__t2m@??0bad_alloc@std@@QEAA@AEBV01@@Z PROC		; COMDAT
	jmp	SHORT $LN1@
	ud2
	jmp	QWORD PTR __m2mep@??0bad_alloc@std@@$$FQEAA@AEBV01@@Z
$LN1@:
	jmp	QWORD PTR __mep@??0bad_alloc@std@@$$FQEAA@AEBV01@@Z
__t2m@??0bad_alloc@std@@QEAA@AEBV01@@Z ENDP
_TEXT	ENDS
.global	
	.bss
.local	,4
; Function compile flags: /Odtp
	.text
	.comdat	any, ??0bad_array_new_length@std@@$$FQEAA@AEBV01@@Z
.global	??0bad_array_new_length@std@@$$FQEAA@AEBV01@@Z	; std::bad_array_new_length::bad_array_new_length
??0bad_array_new_length@std@@$$FQEAA@AEBV01@@Z:		; std::bad_array_new_length::bad_array_new_length
;	.proc.def	D:J(JJ)

; Function Header:
; max stack depth = 2
; function size = 32 bytes
; local varsig tk = 0x0 
; Exception Information:
; 1 handlers, each consisting of filtered handlers

;	.formal.i8 0,"this$" SIG: Optional C Binding Modifier(token:0x895F1B1).Optional C Binding Modifier(token:0x895F1B3).ptr.valueType (token:0x895F1B6)
;	.formal.i8 1,"__that$" SIG: Optional C Binding Modifier(token:0x8954369).ptr.Optional C Binding Modifier(token:0x895436C).valueType (token:0x895436E)

;	.proc.beg
	ldarg.0				; this$
	ldarg.1				; __that$
	call		??0bad_alloc@std@@$$FQEAA@AEBV01@@Z
	pop		
$LN4@bad_array_:
	ldarg.0				; this$
	ldsflda		??_7bad_array_new_length@std@@6B@
	stind.i8	
	leave.s		$LN5@bad_array_
$LN6@bad_array_:
	ldftn		??1bad_alloc@std@@$$FUEAA@XZ
	ldarg.0				; this$
	call		?___CxxCallUnwindDtor@@$$J0YMXP6MXPEAX@Z0@Z
	endfinally	
$LN5@bad_array_:
	ldarg.0				; this$
	ret		
 .end ??0bad_array_new_length@std@@$$FQEAA@AEBV01@@Z	; std::bad_array_new_length::bad_array_new_length
;	.proc.end.i8
PUBLIC	__t2m@??0bad_array_new_length@std@@QEAA@AEBV01@@Z
PUBLIC	__m2mep@??0bad_array_new_length@std@@$$FQEAA@AEBV01@@Z
PUBLIC	__mep@??0bad_array_new_length@std@@$$FQEAA@AEBV01@@Z
;	COMDAT __mep@??0bad_array_new_length@std@@$$FQEAA@AEBV01@@Z
data	SEGMENT
__mep@??0bad_array_new_length@std@@$$FQEAA@AEBV01@@Z TOKEN 0A000069
data	ENDS
;	COMDAT __m2mep@??0bad_array_new_length@std@@$$FQEAA@AEBV01@@Z
data	SEGMENT
__m2mep@??0bad_array_new_length@std@@$$FQEAA@AEBV01@@Z DD FLAT:??0bad_array_new_length@std@@$$FQEAA@AEBV01@@Z
data	ENDS
; Function compile flags: /Ods
;	COMDAT nep
_TEXT	SEGMENT
__t2m@??0bad_array_new_length@std@@QEAA@AEBV01@@Z PROC	; COMDAT
	jmp	SHORT $LN1@
	ud2
	jmp	QWORD PTR __m2mep@??0bad_array_new_length@std@@$$FQEAA@AEBV01@@Z
$LN1@:
	jmp	QWORD PTR __mep@??0bad_array_new_length@std@@$$FQEAA@AEBV01@@Z
__t2m@??0bad_array_new_length@std@@QEAA@AEBV01@@Z ENDP
_TEXT	ENDS
.global	
	.bss
.local	,4
.local	$TypeTok$111B7A4C$,4
.local	$T1,0
; Function compile flags: /Odtp
	.text
	.comdat	any, ?<MarshalCopy>@exception_ptr@std@@$$FSMXPEAV12@0@Z
.global	?<MarshalCopy>@exception_ptr@std@@$$FSMXPEAV12@0@Z ; std::exception_ptr::<MarshalCopy>
?<MarshalCopy>@exception_ptr@std@@$$FSMXPEAV12@0@Z:	; std::exception_ptr::<MarshalCopy>
;	.proc.def	D:V(JJ)

; Function Header:
; max stack depth = 3
; function size = 44 bytes
; local varsig tk = 0x11000014 
; Exception Information:
; 0 handlers, each consisting of filtered handlers

;	.formal.i8 0,"__P0$" SIG: ptr.valueType (token:0x8702CF2)
;	.formal.i8 1,"__P1$" SIG: ptr.valueType (token:0x8702CF2)
;	.local.i8 0,"$T2" SIG: ptr.valueType (token:0x8702CF2)
;	.local.i8 1,"$T3" SIG: ptr.ptr.valueType (token:0x876C113)
;	.local.mb1   2,"$T4" SIG: valueType (token:0x89545B1)

;	.proc.beg
	ldloca.s	2		; $T4
	ldc.i.0		0		; i32 0x0
	ldc.i.1		1		; u64 0x1
	conv.i8		
	unaligned	4		; u32 0x4
	initblk		
	ldc.i4.s	16		; u64 0x10
	conv.i8		
	ldarg.0				; __P0$
	ldloca.s	2		; $T4
	ldobj		$TypeTok$111B7A4C$
	call		??2@$$FYAPEAX_KPEAXU__clr_placement_new_t@?A0xca13f8fb@@@Z
	stloc.0				; $T2
	ldloc.0				; $T2
	brfalse.s	$LN3@
	ldloc.0				; $T2
	ldarg.1				; __P1$
	call		??0exception_ptr@std@@$$FQEAA@AEBV01@@Z
	stloc.1				; $T3
	br.s		$LN1@
$LN3@:
	ldc.i.0		0		; i64 0x0
	conv.i8		
	stloc.1				; $T3
$LN1@:
	ret		
 .end ?<MarshalCopy>@exception_ptr@std@@$$FSMXPEAV12@0@Z ; std::exception_ptr::<MarshalCopy>
;	.proc.end.void
PUBLIC	__t2m@?<MarshalCopy>@exception_ptr@std@@SMXPEAV12@0@Z
PUBLIC	__m2mep@?<MarshalCopy>@exception_ptr@std@@$$FSMXPEAV12@0@Z
PUBLIC	__mep@?<MarshalCopy>@exception_ptr@std@@$$FSMXPEAV12@0@Z
;	COMDAT __mep@?<MarshalCopy>@exception_ptr@std@@$$FSMXPEAV12@0@Z
data	SEGMENT
__mep@?<MarshalCopy>@exception_ptr@std@@$$FSMXPEAV12@0@Z TOKEN 06000032
data	ENDS
;	COMDAT __m2mep@?<MarshalCopy>@exception_ptr@std@@$$FSMXPEAV12@0@Z
data	SEGMENT
__m2mep@?<MarshalCopy>@exception_ptr@std@@$$FSMXPEAV12@0@Z DD FLAT:?<MarshalCopy>@exception_ptr@std@@$$FSMXPEAV12@0@Z
data	ENDS
; Function compile flags: /Ods
;	COMDAT nep
_TEXT	SEGMENT
__t2m@?<MarshalCopy>@exception_ptr@std@@SMXPEAV12@0@Z PROC ; COMDAT
	jmp	SHORT $LN1@
	ud2
$LN2@:
	jmp	QWORD PTR __m2mep@?<MarshalCopy>@exception_ptr@std@@$$FSMXPEAV12@0@Z
$LN1@:
	jmp	QWORD PTR __mep@?<MarshalCopy>@exception_ptr@std@@$$FSMXPEAV12@0@Z
__t2m@?<MarshalCopy>@exception_ptr@std@@SMXPEAV12@0@Z ENDP
_TEXT	ENDS
; Function compile flags: /Odtp
	.text
	.comdat	any, ?<MarshalDestroy>@exception_ptr@std@@$$FSMXPEAV12@@Z
.global	?<MarshalDestroy>@exception_ptr@std@@$$FSMXPEAV12@@Z ; std::exception_ptr::<MarshalDestroy>
?<MarshalDestroy>@exception_ptr@std@@$$FSMXPEAV12@@Z:	; std::exception_ptr::<MarshalDestroy>
;	.proc.def	D:V(J)

; Function Header:
; max stack depth = 1
; function size = 7 bytes
; local varsig tk = 0x0 
; Exception Information:
; 0 handlers, each consisting of filtered handlers

;	.formal.i8 0,"__P0$" SIG: ptr.valueType (token:0x8702CF2)

;	.proc.beg
	ldarg.0				; __P0$
	call		??1exception_ptr@std@@$$FQEAA@XZ
	ret		
 .end ?<MarshalDestroy>@exception_ptr@std@@$$FSMXPEAV12@@Z ; std::exception_ptr::<MarshalDestroy>
;	.proc.end.void
PUBLIC	__t2m@?<MarshalDestroy>@exception_ptr@std@@SMXPEAV12@@Z
PUBLIC	__m2mep@?<MarshalDestroy>@exception_ptr@std@@$$FSMXPEAV12@@Z
PUBLIC	__mep@?<MarshalDestroy>@exception_ptr@std@@$$FSMXPEAV12@@Z
;	COMDAT __mep@?<MarshalDestroy>@exception_ptr@std@@$$FSMXPEAV12@@Z
data	SEGMENT
__mep@?<MarshalDestroy>@exception_ptr@std@@$$FSMXPEAV12@@Z TOKEN 06000033
data	ENDS
;	COMDAT __m2mep@?<MarshalDestroy>@exception_ptr@std@@$$FSMXPEAV12@@Z
data	SEGMENT
__m2mep@?<MarshalDestroy>@exception_ptr@std@@$$FSMXPEAV12@@Z DD FLAT:?<MarshalDestroy>@exception_ptr@std@@$$FSMXPEAV12@@Z
data	ENDS
; Function compile flags: /Ods
;	COMDAT nep
_TEXT	SEGMENT
__t2m@?<MarshalDestroy>@exception_ptr@std@@SMXPEAV12@@Z PROC ; COMDAT
	jmp	SHORT $LN1@
	ud2
$LN2@:
	jmp	QWORD PTR __m2mep@?<MarshalDestroy>@exception_ptr@std@@$$FSMXPEAV12@@Z
$LN1@:
	jmp	QWORD PTR __mep@?<MarshalDestroy>@exception_ptr@std@@$$FSMXPEAV12@@Z
__t2m@?<MarshalDestroy>@exception_ptr@std@@SMXPEAV12@@Z ENDP
_TEXT	ENDS
.global	
	.bss
.local	,4
.local	$T1,0
; Function compile flags: /Odtp
; File C:\Program Files (x86)\Microsoft Visual Studio\2019\Enterprise\VC\Tools\MSVC\14.27.29110\include\xmemory
	.text
	.comdat	any, ?_Allocate@_Default_allocate_traits@std@@$$FSAPEAX_K@Z
.global	?_Allocate@_Default_allocate_traits@std@@$$FSAPEAX_K@Z ; std::_Default_allocate_traits::_Allocate
?_Allocate@_Default_allocate_traits@std@@$$FSAPEAX_K@Z:	; std::_Default_allocate_traits::_Allocate
;	.proc.def	D:J(J)

; Function Header:
; max stack depth = 1
; function size = 9 bytes
; local varsig tk = 0x11000004 
; Exception Information:
; 0 handlers, each consisting of filtered handlers

;	.formal.u8 0,"_Bytes$" SIG: Optional C Binding Modifier(token:0x8960891).u8
;	.local.i8 0,"$T2" SIG: ptr.void

;	.proc.beg

; 77   :         return ::operator new(_Bytes);

	ldarg.0				; _Bytes$
	call		??2@$$FYAPEAX_K@Z
	stloc.0				; $T2

; 78   :     }

	ldloc.0				; $T2
	ret		
 .end ?_Allocate@_Default_allocate_traits@std@@$$FSAPEAX_K@Z ; std::_Default_allocate_traits::_Allocate
;	.proc.end.i8
.global	
.global	
.global	
.global	??_C@_0GJ@EHJGLGPD@C?3?2Program?5Files?5?$CIx86?$CJ?2Microsof@ ; `string'
.global	??_C@_02DKCKIIND@?$CFs@				; `string'
.global	??_C@_0BB@FCMFBGOM@invalid?5argument@		; `string'
.global	??_C@_1CG@JNLFBNGN@?$AA?$CC?$AAi?$AAn?$AAv?$AAa?$AAl?$AAi?$AAd?$AA?5?$AAa?$AAr?$AAg?$AAu?$AAm?$AAe@ ; `string'
.global	??_C@_1EK@NIFDJFDG@?$AAs?$AAt?$AAd?$AA?3?$AA?3?$AA_?$AAA?$AAd?$AAj?$AAu?$AAs?$AAt?$AA_?$AAm?$AAa@ ; `string'
.global	??_C@_1NC@LBGPBFDE@?$AAC?$AA?3?$AA?2?$AAP?$AAr?$AAo?$AAg?$AAr?$AAa?$AAm?$AA?5?$AAF?$AAi?$AAl?$AAe@ ; `string'
	.bss
.local	,4
.local	,4
.local	,4
.local	$VarArgTok$2$$$A6AHHPEBDH000@Z,4
.local	$T1,0
	.rdata
	.comdat	any, ??_C@_1NC@LBGPBFDE@?$AAC?$AA?3?$AA?2?$AAP?$AAr?$AAo?$AAg?$AAr?$AAa?$AAm?$AA?5?$AAF?$AAi?$AAl?$AAe@

??_C@_1NC@LBGPBFDE@?$AAC?$AA?3?$AA?2?$AAP?$AAr?$AAo?$AAg?$AAr?$AAa?$AAm?$AA?5?$AAF?$AAi?$AAl?$AAe@: ; `string'
	.ascii	"C\000:\000\\\000P\000r\000o\000g\000r\000a\000m\000 \000"
	.ascii	"F\000i\000l\000e\000s\000 \000(\000x\0008\0006\000)\000\\"
	.ascii	"\000M\000i\000c\000r\000o\000s\000o\000f\000t\000 \000V\000"
	.ascii	"i\000s\000u\000a\000l\000 \000S\000t\000u\000d\000i\000o\000"
	.ascii	"\\\0002\0000\0001\0009\000\\\000E\000n\000t\000e\000r\000"
	.ascii	"p\000r\000i\000s\000e\000\\\000V\000C\000\\\000T\000o\000"
	.ascii	"o\000l\000s\000\\\000M\000S\000V\000C\000\\\0001\0004\000"
	.ascii	".\0002\0007\000.\0002\0009\0001\0001\0000\000\\\000i\000n"
	.ascii	"\000c\000l\000u\000d\000e\000\\\000x\000m\000e\000m\000o\000"
	.ascii	"r\000y\000\000\000"
	.rdata
	.comdat	any, ??_C@_1EK@NIFDJFDG@?$AAs?$AAt?$AAd?$AA?3?$AA?3?$AA_?$AAA?$AAd?$AAj?$AAu?$AAs?$AAt?$AA_?$AAm?$AAa@

??_C@_1EK@NIFDJFDG@?$AAs?$AAt?$AAd?$AA?3?$AA?3?$AA_?$AAA?$AAd?$AAj?$AAu?$AAs?$AAt?$AA_?$AAm?$AAa@: ; `string'
	.ascii	"s\000t\000d\000:\000:\000_\000A\000d\000j\000u\000s\000t"
	.ascii	"\000_\000m\000a\000n\000u\000a\000l\000l\000y\000_\000v\000"
	.ascii	"e\000c\000t\000o\000r\000_\000a\000l\000i\000g\000n\000e\000"
	.ascii	"d\000\000\000"
	.rdata
	.comdat	any, ??_C@_1CG@JNLFBNGN@?$AA?$CC?$AAi?$AAn?$AAv?$AAa?$AAl?$AAi?$AAd?$AA?5?$AAa?$AAr?$AAg?$AAu?$AAm?$AAe@

??_C@_1CG@JNLFBNGN@?$AA?$CC?$AAi?$AAn?$AAv?$AAa?$AAl?$AAi?$AAd?$AA?5?$AAa?$AAr?$AAg?$AAu?$AAm?$AAe@: ; `string'
	.ascii	"\"\000i\000n\000v\000a\000l\000i\000d\000 \000a\000r\000"
	.ascii	"g\000u\000m\000e\000n\000t\000\"\000\000\000"
	.rdata
	.comdat	any, ??_C@_0BB@FCMFBGOM@invalid?5argument@

??_C@_0BB@FCMFBGOM@invalid?5argument@:			; `string'
	.ascii	"invalid argument\000"
	.rdata
	.comdat	any, ??_C@_02DKCKIIND@?$CFs@

??_C@_02DKCKIIND@?$CFs@:				; `string'
	.ascii	"%s\000"
	.rdata
	.comdat	any, ??_C@_0GJ@EHJGLGPD@C?3?2Program?5Files?5?$CIx86?$CJ?2Microsof@

??_C@_0GJ@EHJGLGPD@C?3?2Program?5Files?5?$CIx86?$CJ?2Microsof@: ; `string'
	.ascii	"C:\\Program Files (x86)\\Microsoft Visual Studio\\2019\\"
	.ascii	"Enterprise\\VC\\Tools\\MSVC\\14.27.29110\\include\\xmemor"
	.ascii	"y\000"
; Function compile flags: /Odtp
; File C:\Program Files (x86)\Microsoft Visual Studio\2019\Enterprise\VC\Tools\MSVC\14.27.29110\include\xmemory
	.text
	.comdat	any, ?_Adjust_manually_vector_aligned@std@@$$FYAXAEAPEAXAEA_K@Z
.global	?_Adjust_manually_vector_aligned@std@@$$FYAXAEAPEAXAEA_K@Z ; std::_Adjust_manually_vector_aligned
?_Adjust_manually_vector_aligned@std@@$$FYAXAEAPEAXAEA_K@Z: ; std::_Adjust_manually_vector_aligned
;	.proc.def	D:V(JJ)

; Function Header:
; max stack depth = 7
; function size = 212 bytes
; local varsig tk = 0x11000019 
; Exception Information:
; 0 handlers, each consisting of filtered handlers

;	.formal.i8 0,"_Ptr$" SIG: Optional C Binding Modifier(token:0x86D8E79).ptr.ptr.void
;	.formal.i8 1,"_Bytes$" SIG: Optional C Binding Modifier(token:0x8952B19).ptr.u8
;	.local.u8 0,"_Back_shift$" SIG: Optional C Binding Modifier(token:0x8960891).u8
;	.local.u8 1,"_Ptr_container$" SIG: Optional C Binding Modifier(token:0x8960891).u8
;	.local.i8 2,"_Ptr_user$" SIG: Optional C Binding Modifier(token:0x895DF61).Optional C Binding Modifier(token:0x895DF63).ptr.Optional C Binding Modifier(token:0x895DF66).u8
;	.local.u8 3,"_Min_back_shift$" SIG: Optional C Binding Modifier(token:0x8960891).u8

;	.proc.beg

; 133  :     // adjust parameters from _Allocate_manually_vector_aligned to pass to operator delete
; 134  :     _Bytes += _Non_user_size;

	ldarg.1				; _Bytes$
	dup		
	ldind.i8	
	ldc.i4.s	47		; u64 0x2f
	conv.i8		
	add		
	stind.i8	

; 135  : 
; 136  :     const uintptr_t* const _Ptr_user = reinterpret_cast<uintptr_t*>(_Ptr);

	ldarg.0				; _Ptr$
	ldind.i8	
	stloc.2				; _Ptr_user$

; 137  :     const uintptr_t _Ptr_container   = _Ptr_user[-1];

	ldloc.2				; _Ptr_user$
	ldc.i.8		8		; i64 0x8
	conv.i8		
	ldc.i8		-1		; i64 0xffffffffffffffff
	mul		
	add		
	ldind.i8	
	stloc.1				; _Ptr_container$
$LN4@Adjust_man:

; 138  : 
; 139  :     // If the following asserts, it likely means that we are performing
; 140  :     // an aligned delete on memory coming from an unaligned allocation.
; 141  :     _STL_ASSERT(_Ptr_user[-2] == _Big_allocation_sentinel, "invalid argument");

	ldloc.2				; _Ptr_user$
	ldc.i.8		8		; i64 0x8
	conv.i8		
	ldc.i8		-2		; i64 0xfffffffffffffffe
	mul		
	add		
	ldind.i8	
	ldc.i8		18085043209519168250 ; u64 0xfafafafafafafafa
	bne.un.s	$LN7@Adjust_man
	br.s		$LN2@Adjust_man
$LN7@Adjust_man:
	ldc.i.1		1		; i32 0x1
	ldc.i.2		2		; i32 0x2
	ldsflda		??_C@_0GJ@EHJGLGPD@C?3?2Program?5Files?5?$CIx86?$CJ?2Microsof@
	ldc.i4		141		; i32 0x8d
	ldc.i.0		0		; i64 0x0
	conv.i8		
	ldsflda		??_C@_02DKCKIIND@?$CFs@
	ldsflda		??_C@_0BB@FCMFBGOM@invalid?5argument@
	call		?_CrtDbgReport@@$$J0YAHHPEBDH00ZZ
	bne.un.s	$LN19@Adjust_man
	break		
$LN19@Adjust_man:
	ldsflda		??_C@_1CG@JNLFBNGN@?$AA?$CC?$AAi?$AAn?$AAv?$AAa?$AAl?$AAi?$AAd?$AA?5?$AAa?$AAr?$AAg?$AAu?$AAm?$AAe@
	ldsflda		??_C@_1EK@NIFDJFDG@?$AAs?$AAt?$AAd?$AA?3?$AA?3?$AA_?$AAA?$AAd?$AAj?$AAu?$AAs?$AAt?$AA_?$AAm?$AAa@
	ldsflda		??_C@_1NC@LBGPBFDE@?$AAC?$AA?3?$AA?2?$AAP?$AAr?$AAo?$AAg?$AAr?$AAa?$AAm?$AA?5?$AAF?$AAi?$AAl?$AAe@
	ldc.i4		141		; u32 0x8d
	ldc.i.0		0		; u64 0x0
	conv.i8		
	call		?_invalid_parameter@@$$J0YAXPEB_W00I_K@Z
	ldc.i.0		0		; i32 0x0
	brtrue.s	$LN7@Adjust_man
$LN2@Adjust_man:
	ldc.i.0		0		; i32 0x0
	brtrue.s	$LN4@Adjust_man

; 142  : 
; 143  :     // Extra paranoia on aligned allocation/deallocation; ensure _Ptr_container is
; 144  :     // in range [_Min_back_shift, _Non_user_size]
; 145  : #ifdef _DEBUG
; 146  :     constexpr uintptr_t _Min_back_shift = 2 * sizeof(void*);

	ldc.i4.s	16		; u64 0x10
	conv.i8		
	stloc.3				; _Min_back_shift$

; 147  : #else // ^^^ _DEBUG ^^^ // vvv !_DEBUG vvv
; 148  :     constexpr uintptr_t _Min_back_shift = sizeof(void*);
; 149  : #endif // _DEBUG
; 150  :     const uintptr_t _Back_shift = reinterpret_cast<uintptr_t>(_Ptr) - _Ptr_container;

	ldarg.0				; _Ptr$
	ldind.i8	
	ldloc.1				; _Ptr_container$
	sub		
	stloc.0				; _Back_shift$
$LN10@Adjust_man:

; 151  :     _STL_VERIFY(_Back_shift >= _Min_back_shift && _Back_shift <= _Non_user_size, "invalid argument");

	ldloc.0				; _Back_shift$
	ldc.i4.s	16		; u64 0x10
	conv.i8		
	blt.un.s	$LN13@Adjust_man
	ldloc.0				; _Back_shift$
	ldc.i4.s	47		; u64 0x2f
	conv.i8		
	bgt.un.s	$LN13@Adjust_man
	br.s		$LN8@Adjust_man
$LN13@Adjust_man:
	ldc.i.1		1		; i32 0x1
	ldc.i.2		2		; i32 0x2
	ldsflda		??_C@_0GJ@EHJGLGPD@C?3?2Program?5Files?5?$CIx86?$CJ?2Microsof@
	ldc.i4		151		; i32 0x97
	ldc.i.0		0		; i64 0x0
	conv.i8		
	ldsflda		??_C@_02DKCKIIND@?$CFs@
	ldsflda		??_C@_0BB@FCMFBGOM@invalid?5argument@
	call		?_CrtDbgReport@@$$J0YAHHPEBDH00ZZ
	bne.un.s	$LN20@Adjust_man
	break		
$LN20@Adjust_man:
	ldsflda		??_C@_1CG@JNLFBNGN@?$AA?$CC?$AAi?$AAn?$AAv?$AAa?$AAl?$AAi?$AAd?$AA?5?$AAa?$AAr?$AAg?$AAu?$AAm?$AAe@
	ldsflda		??_C@_1EK@NIFDJFDG@?$AAs?$AAt?$AAd?$AA?3?$AA?3?$AA_?$AAA?$AAd?$AAj?$AAu?$AAs?$AAt?$AA_?$AAm?$AAa@
	ldsflda		??_C@_1NC@LBGPBFDE@?$AAC?$AA?3?$AA?2?$AAP?$AAr?$AAo?$AAg?$AAr?$AAa?$AAm?$AA?5?$AAF?$AAi?$AAl?$AAe@
	ldc.i4		151		; u32 0x97
	ldc.i.0		0		; u64 0x0
	conv.i8		
	call		?_invalid_parameter@@$$J0YAXPEB_W00I_K@Z
	ldc.i.0		0		; i32 0x0
	brtrue.s	$LN13@Adjust_man
$LN8@Adjust_man:
	ldc.i.0		0		; i32 0x0
	brtrue.s	$LN10@Adjust_man

; 152  :     _Ptr = reinterpret_cast<void*>(_Ptr_container);

	ldarg.0				; _Ptr$
	ldloc.1				; _Ptr_container$
	stind.i8	

; 153  : }

	ret		
 .end ?_Adjust_manually_vector_aligned@std@@$$FYAXAEAPEAXAEA_K@Z ; std::_Adjust_manually_vector_aligned
;	.proc.end.void
	.bss
.local	$T1,0
; Function compile flags: /Odtp
; File C:\Program Files (x86)\Microsoft Visual Studio\2019\Enterprise\VC\Tools\MSVC\14.27.29110\include\xmemory
	.text
	.comdat	any, ??$_Convert_size@_K@std@@$$FYA_K_K@Z
.global	??$_Convert_size@_K@std@@$$FYA_K_K@Z		; std::_Convert_size<unsigned __int64>
??$_Convert_size@_K@std@@$$FYA_K_K@Z:			; std::_Convert_size<unsigned __int64>
;	.proc.def	D:J(J)

; Function Header:
; max stack depth = 1
; function size = 4 bytes
; local varsig tk = 0x1100001A 
; Exception Information:
; 0 handlers, each consisting of filtered handlers

;	.formal.u8 0,"_Len$" SIG: Optional C Binding Modifier(token:0x8960891).u8
;	.local.u8 0,"$T2" SIG: u8

;	.proc.beg

; 991  :     // convert size_t to size_t, unchanged
; 992  :     return _Len;

	ldarg.0				; _Len$
	stloc.0				; $T2

; 993  : }

	ldloc.0				; $T2
	ret		
 .end ??$_Convert_size@_K@std@@$$FYA_K_K@Z		; std::_Convert_size<unsigned __int64>
;	.proc.end.u8
.global	
.global	
	.bss
.local	,4
.local	,4
; Function compile flags: /Odtp
; File C:\Program Files (x86)\Microsoft Visual Studio\2019\Enterprise\VC\Tools\MSVC\14.27.29110\include\xmemory
	.text
	.comdat	any, ??0_Container_proxy@std@@$$FQEAA@PEAU_Container_base12@1@@Z
.global	??0_Container_proxy@std@@$$FQEAA@PEAU_Container_base12@1@@Z ; std::_Container_proxy::_Container_proxy
??0_Container_proxy@std@@$$FQEAA@PEAU_Container_base12@1@@Z: ; std::_Container_proxy::_Container_proxy
;	.proc.def	D:J(JJ)

; Function Header:
; max stack depth = 2
; function size = 12 bytes
; local varsig tk = 0x0 
; Exception Information:
; 0 handlers, each consisting of filtered handlers

;	.formal.i8 0,"this$" SIG: Optional C Binding Modifier(token:0x895E139).Optional C Binding Modifier(token:0x895E13B).ptr.valueType (token:0x895E13E)
;	.formal.i8 1,"_Mycont_$" SIG: ptr.valueType (token:0x895726A)

;	.proc.beg

; 1084 :     _Container_proxy(_Container_base12* _Mycont_) noexcept : _Mycont(_Mycont_), _Myfirstiter(nullptr) {}

	ldarg.0				; this$
	ldarg.1				; _Mycont_$
	stind.i8	
	ldarg.0				; this$
	ldc.i.8		8		; i64 0x8
	conv.i8		
	add		
	ldc.i.0		0		; i64 0x0
	conv.i8		
	stind.i8	
	ldarg.0				; this$
	ret		
 .end ??0_Container_proxy@std@@$$FQEAA@PEAU_Container_base12@1@@Z ; std::_Container_proxy::_Container_proxy
;	.proc.end.i8
.global	
	.bss
.local	,4
; Function compile flags: /Odtp
; File C:\Program Files (x86)\Microsoft Visual Studio\2019\Enterprise\VC\Tools\MSVC\14.27.29110\include\xmemory
	.text
	.comdat	any, ??0_Container_base12@std@@$$FQEAA@XZ
.global	??0_Container_base12@std@@$$FQEAA@XZ		; std::_Container_base12::_Container_base12
??0_Container_base12@std@@$$FQEAA@XZ:			; std::_Container_base12::_Container_base12
;	.proc.def	D:J(J)

; Function Header:
; max stack depth = 2
; function size = 6 bytes
; local varsig tk = 0x0 
; Exception Information:
; 0 handlers, each consisting of filtered handlers

;	.formal.i8 0,"this$" SIG: Optional C Binding Modifier(token:0x86D8D61).Optional C Binding Modifier(token:0x86D8D63).ptr.valueType (token:0x86D8D66)

;	.proc.beg

; 1092 :     _Container_base12() noexcept : _Myproxy(nullptr) {}

	ldarg.0				; this$
	ldc.i.0		0		; i64 0x0
	conv.i8		
	stind.i8	
	ldarg.0				; this$
	ret		
 .end ??0_Container_base12@std@@$$FQEAA@XZ		; std::_Container_base12::_Container_base12
;	.proc.end.i8
.global	
	.bss
.local	,4
; Function compile flags: /Odtp
; File C:\Program Files (x86)\Microsoft Visual Studio\2019\Enterprise\VC\Tools\MSVC\14.27.29110\include\xmemory
	.text
	.comdat	any, ??0_Iterator_base12@std@@$$FQEAA@XZ
.global	??0_Iterator_base12@std@@$$FQEAA@XZ		; std::_Iterator_base12::_Iterator_base12
??0_Iterator_base12@std@@$$FQEAA@XZ:			; std::_Iterator_base12::_Iterator_base12
;	.proc.def	D:J(J)

; Function Header:
; max stack depth = 2
; function size = 13 bytes
; local varsig tk = 0x0 
; Exception Information:
; 0 handlers, each consisting of filtered handlers

;	.formal.i8 0,"this$" SIG: Optional C Binding Modifier(token:0x895FAF1).Optional C Binding Modifier(token:0x895FAF3).ptr.valueType (token:0x895FAF6)

;	.proc.beg

; 1121 :     _Iterator_base12() noexcept : _Myproxy(nullptr), _Mynextiter(nullptr) {} // construct orphaned iterator

	ldarg.0				; this$
	ldc.i.0		0		; i64 0x0
	conv.i8		
	stind.i8	
	ldarg.0				; this$
	ldc.i.8		8		; i64 0x8
	conv.i8		
	add		
	ldc.i.0		0		; i64 0x0
	conv.i8		
	stind.i8	
	ldarg.0				; this$
	ret		
 .end ??0_Iterator_base12@std@@$$FQEAA@XZ		; std::_Iterator_base12::_Iterator_base12
;	.proc.end.i8
.global	
	.bss
.local	,4
.local	$T1,0
; Function compile flags: /Odtp
; File C:\Program Files (x86)\Microsoft Visual Studio\2019\Enterprise\VC\Tools\MSVC\14.27.29110\include\xmemory
	.text
	.comdat	any, ?_Getcont@_Iterator_base12@std@@$$FQEBAPEBU_Container_base12@2@XZ
.global	?_Getcont@_Iterator_base12@std@@$$FQEBAPEBU_Container_base12@2@XZ ; std::_Iterator_base12::_Getcont
?_Getcont@_Iterator_base12@std@@$$FQEBAPEBU_Container_base12@2@XZ: ; std::_Iterator_base12::_Getcont
;	.proc.def	D:J(J)

; Function Header:
; max stack depth = 2
; function size = 14 bytes
; local varsig tk = 0x11000020 
; Exception Information:
; 0 handlers, each consisting of filtered handlers

;	.formal.i8 0,"this$" SIG: Optional C Binding Modifier(token:0x86F5B19).Optional C Binding Modifier(token:0x86F5B1B).ptr.Optional C Binding Modifier(token:0x86F5B1E).valueType (token:0x86F5B20)
;	.local.i8 0,"$T2" SIG: ptr.Optional C Binding Modifier(token:0x88F13F2).valueType (token:0x88F13F4)

;	.proc.beg

; 1180 :         return _Myproxy ? _Myproxy->_Mycont : nullptr;

	ldarg.0				; this$
	ldind.i8	
	brfalse.s	$LN3@Getcont
	ldarg.0				; this$
	ldind.i8	
	ldind.i8	
	br.s		$LN4@Getcont
$LN3@Getcont:
	ldc.i.0		0		; i64 0x0
	conv.i8		
$LN4@Getcont:
	stloc.0				; $T2

; 1181 :     }

	ldloc.0				; $T2
	ret		
 .end ?_Getcont@_Iterator_base12@std@@$$FQEBAPEBU_Container_base12@2@XZ ; std::_Iterator_base12::_Getcont
;	.proc.end.i8
.global	
.global	??_C@_0BJ@LFDBABJJ@ITERATOR?5LIST?5CORRUPTED?$CB@ ; `string'
.global	??_C@_1DG@PLBPCAEM@?$AA?$CC?$AAI?$AAT?$AAE?$AAR?$AAA?$AAT?$AAO?$AAR?$AA?5?$AAL?$AAI?$AAS?$AAT?$AA?5@ ; `string'
.global	??_C@_1EE@KLDMFDFL@?$AAs?$AAt?$AAd?$AA?3?$AA?3?$AA_?$AAI?$AAt?$AAe?$AAr?$AAa?$AAt?$AAo?$AAr?$AA_@ ; `string'
	.bss
.local	,4
.local	$T1,0
	.rdata
	.comdat	any, ??_C@_1EE@KLDMFDFL@?$AAs?$AAt?$AAd?$AA?3?$AA?3?$AA_?$AAI?$AAt?$AAe?$AAr?$AAa?$AAt?$AAo?$AAr?$AA_@

??_C@_1EE@KLDMFDFL@?$AAs?$AAt?$AAd?$AA?3?$AA?3?$AA_?$AAI?$AAt?$AAe?$AAr?$AAa?$AAt?$AAo?$AAr?$AA_@: ; `string'
	.ascii	"s\000t\000d\000:\000:\000_\000I\000t\000e\000r\000a\000t"
	.ascii	"\000o\000r\000_\000b\000a\000s\000e\0001\0002\000:\000:\000"
	.ascii	"_\000O\000r\000p\000h\000a\000n\000_\000m\000e\000\000\000"
	.rdata
	.comdat	any, ??_C@_1DG@PLBPCAEM@?$AA?$CC?$AAI?$AAT?$AAE?$AAR?$AAA?$AAT?$AAO?$AAR?$AA?5?$AAL?$AAI?$AAS?$AAT?$AA?5@

??_C@_1DG@PLBPCAEM@?$AA?$CC?$AAI?$AAT?$AAE?$AAR?$AAA?$AAT?$AAO?$AAR?$AA?5?$AAL?$AAI?$AAS?$AAT?$AA?5@: ; `string'
	.ascii	"\"\000I\000T\000E\000R\000A\000T\000O\000R\000 \000L\000"
	.ascii	"I\000S\000T\000 \000C\000O\000R\000R\000U\000P\000T\000E\000"
	.ascii	"D\000!\000\"\000\000\000"
	.rdata
	.comdat	any, ??_C@_0BJ@LFDBABJJ@ITERATOR?5LIST?5CORRUPTED?$CB@

??_C@_0BJ@LFDBABJJ@ITERATOR?5LIST?5CORRUPTED?$CB@:	; `string'
	.ascii	"ITERATOR LIST CORRUPTED!\000"
; Function compile flags: /Odtp
; File C:\Program Files (x86)\Microsoft Visual Studio\2019\Enterprise\VC\Tools\MSVC\14.27.29110\include\xmemory
	.text
	.comdat	any, ?_Orphan_me@_Iterator_base12@std@@$$FQEAAXXZ
.global	?_Orphan_me@_Iterator_base12@std@@$$FQEAAXXZ	; std::_Iterator_base12::_Orphan_me
?_Orphan_me@_Iterator_base12@std@@$$FQEAAXXZ:		; std::_Iterator_base12::_Orphan_me
;	.proc.def	D:V(J)

; Function Header:
; max stack depth = 7
; function size = 110 bytes
; local varsig tk = 0x11000022 
; Exception Information:
; 0 handlers, each consisting of filtered handlers

;	.formal.i8 0,"this$" SIG: Optional C Binding Modifier(token:0x895FAF1).Optional C Binding Modifier(token:0x895FAF3).ptr.valueType (token:0x895FAF6)
;	.local.i8 0,"_Pnext$2" SIG: ptr.ptr.valueType (token:0x8956EEB)

;	.proc.beg

; 1185 :         if (_Myproxy) { // adopted, remove self from list

	ldarg.0				; this$
	ldind.i8	
	brfalse.s	$LN1@Orphan_me

; 1186 :             _Iterator_base12** _Pnext = &_Myproxy->_Myfirstiter;

	ldarg.0				; this$
	ldind.i8	
	ldc.i.8		8		; i64 0x8
	conv.i8		
	add		
	stloc.0				; _Pnext$2
$LN2@Orphan_me:

; 1187 :             while (*_Pnext && *_Pnext != this) {

	ldloc.0				; _Pnext$2
	ldind.i8	
	brfalse.s	$LN6@Orphan_me
	ldloc.0				; _Pnext$2
	ldind.i8	
	ldarg.0				; this$
	beq.s		$LN6@Orphan_me

; 1188 :                 _Pnext = &(*_Pnext)->_Mynextiter;

	ldloc.0				; _Pnext$2
	ldind.i8	
	ldc.i.8		8		; i64 0x8
	conv.i8		
	add		
	stloc.0				; _Pnext$2

; 1189 :             }

	br.s		$LN2@Orphan_me
$LN6@Orphan_me:

; 1190 : 
; 1191 :             _STL_VERIFY(*_Pnext, "ITERATOR LIST CORRUPTED!");

	ldloc.0				; _Pnext$2
	ldind.i8	
	brfalse.s	$LN9@Orphan_me
	br.s		$LN4@Orphan_me
$LN9@Orphan_me:
	ldc.i.1		1		; i32 0x1
	ldc.i.2		2		; i32 0x2
	ldsflda		??_C@_0GJ@EHJGLGPD@C?3?2Program?5Files?5?$CIx86?$CJ?2Microsof@
	ldc.i4		1191		; i32 0x4a7
	ldc.i.0		0		; i64 0x0
	conv.i8		
	ldsflda		??_C@_02DKCKIIND@?$CFs@
	ldsflda		??_C@_0BJ@LFDBABJJ@ITERATOR?5LIST?5CORRUPTED?$CB@
	call		?_CrtDbgReport@@$$J0YAHHPEBDH00ZZ
	bne.un.s	$LN14@Orphan_me
	break		
$LN14@Orphan_me:
	ldsflda		??_C@_1DG@PLBPCAEM@?$AA?$CC?$AAI?$AAT?$AAE?$AAR?$AAA?$AAT?$AAO?$AAR?$AA?5?$AAL?$AAI?$AAS?$AAT?$AA?5@
	ldsflda		??_C@_1EE@KLDMFDFL@?$AAs?$AAt?$AAd?$AA?3?$AA?3?$AA_?$AAI?$AAt?$AAe?$AAr?$AAa?$AAt?$AAo?$AAr?$AA_@
	ldsflda		??_C@_1NC@LBGPBFDE@?$AAC?$AA?3?$AA?2?$AAP?$AAr?$AAo?$AAg?$AAr?$AAa?$AAm?$AA?5?$AAF?$AAi?$AAl?$AAe@
	ldc.i4		1191		; u32 0x4a7
	ldc.i.0		0		; u64 0x0
	conv.i8		
	call		?_invalid_parameter@@$$J0YAXPEB_W00I_K@Z
	ldc.i.0		0		; i32 0x0
	brtrue.s	$LN9@Orphan_me
$LN4@Orphan_me:
	ldc.i.0		0		; i32 0x0
	brtrue.s	$LN6@Orphan_me

; 1192 :             *_Pnext  = _Mynextiter;

	ldloc.0				; _Pnext$2
	ldarg.0				; this$
	ldc.i.8		8		; i64 0x8
	conv.i8		
	add		
	ldind.i8	
	stind.i8	

; 1193 :             _Myproxy = nullptr;

	ldarg.0				; this$
	ldc.i.0		0		; i64 0x0
	conv.i8		
	stind.i8	
$LN1@Orphan_me:

; 1194 :         }
; 1195 :     }

	ret		
 .end ?_Orphan_me@_Iterator_base12@std@@$$FQEAAXXZ	; std::_Iterator_base12::_Orphan_me
;	.proc.end.void
.global	
	.bss
.local	,4
.local	$T1,0
; Function compile flags: /Odtp
; File C:\Program Files (x86)\Microsoft Visual Studio\2019\Enterprise\VC\Tools\MSVC\14.27.29110\include\xmemory
	.text
	.comdat	any, ?_Orphan_all@_Container_base12@std@@$$FQEAAXXZ
.global	?_Orphan_all@_Container_base12@std@@$$FQEAAXXZ	; std::_Container_base12::_Orphan_all
?_Orphan_all@_Container_base12@std@@$$FQEAAXXZ:		; std::_Container_base12::_Orphan_all
;	.proc.def	D:V(J)

; Function Header:
; max stack depth = 3
; function size = 72 bytes
; local varsig tk = 0x11000024 
; Exception Information:
; 1 handlers, each consisting of filtered handlers

;	.formal.i8 0,"this$" SIG: Optional C Binding Modifier(token:0x86D8D61).Optional C Binding Modifier(token:0x86D8D63).ptr.valueType (token:0x86D8D66)
;	.local.i8 0,"_Pnext$2" SIG: ptr.ptr.valueType (token:0x8956EEB)
;	.local.mb4   1,"_Lock$3" SIG: valueType (token:0x89526D9)

;	.proc.beg

; 1206 : #if _ITERATOR_DEBUG_LEVEL == 2
; 1207 :     if (_Myproxy) { // proxy allocated, drain it

	ldarg.0				; this$
	ldind.i8	
	brfalse.s	$LN1@Orphan_all

; 1208 :         _Lockit _Lock(_LOCK_DEBUG);

	ldloca.s	1		; _Lock$3
	ldc.i.3		3		; i32 0x3
	call		??0_Lockit@std@@$$FQEAA@H@Z
	pop		
$LN8@Orphan_all:

; 1209 : 
; 1210 :         for (auto _Pnext = &_Myproxy->_Myfirstiter; *_Pnext; *_Pnext = (*_Pnext)->_Mynextiter) {

	ldarg.0				; this$
	ldind.i8	
	ldc.i.8		8		; i64 0x8
	conv.i8		
	add		
	stloc.0				; _Pnext$2
	br.s		$LN4@Orphan_all
$LN2@Orphan_all:
	ldloc.0				; _Pnext$2
	dup		
	ldind.i8	
	ldc.i.8		8		; i64 0x8
	conv.i8		
	add		
	ldind.i8	
	stind.i8	
$LN4@Orphan_all:
	ldloc.0				; _Pnext$2
	ldind.i8	
	brfalse.s	$LN3@Orphan_all

; 1211 :             (*_Pnext)->_Myproxy = nullptr;

	ldloc.0				; _Pnext$2
	ldind.i8	
	ldc.i.0		0		; i64 0x0
	conv.i8		
	stind.i8	

; 1212 :         }

	br.s		$LN2@Orphan_all
$LN3@Orphan_all:

; 1213 : 
; 1214 :         _Myproxy->_Myfirstiter = nullptr;

	ldarg.0				; this$
	ldind.i8	
	ldc.i.8		8		; i64 0x8
	conv.i8		
	add		
	ldc.i.0		0		; i64 0x0
	conv.i8		
	stind.i8	
	leave.s		$LN9@Orphan_all
$LN10@Orphan_all:
	ldftn		??1_Lockit@std@@$$FQEAA@XZ
	ldloca.s	1		; _Lock$3
	call		?___CxxCallUnwindDtor@@$$J0YMXP6MXPEAX@Z0@Z
	endfinally	
$LN9@Orphan_all:

; 1215 :     }

	ldloca.s	1		; _Lock$3
	call		??1_Lockit@std@@$$FQEAA@XZ
$LN1@Orphan_all:

; 1216 : #endif // _ITERATOR_DEBUG_LEVEL == 2
; 1217 : }

	ret		
 .end ?_Orphan_all@_Container_base12@std@@$$FQEAAXXZ	; std::_Container_base12::_Orphan_all
;	.proc.end.void
.global	
	.bss
.local	,4
; Function compile flags: /Odtp
; File C:\Program Files (x86)\Microsoft Visual Studio\2019\Enterprise\VC\Tools\MSVC\14.27.29110\include\xmemory
	.text
	.comdat	any, ?_Release@_Basic_container_proxy_ptr12@std@@$$FQEAAXXZ
.global	?_Release@_Basic_container_proxy_ptr12@std@@$$FQEAAXXZ ; std::_Basic_container_proxy_ptr12::_Release
?_Release@_Basic_container_proxy_ptr12@std@@$$FQEAAXXZ:	; std::_Basic_container_proxy_ptr12::_Release
;	.proc.def	D:V(J)

; Function Header:
; max stack depth = 2
; function size = 5 bytes
; local varsig tk = 0x0 
; Exception Information:
; 0 handlers, each consisting of filtered handlers

;	.formal.i8 0,"this$" SIG: Optional C Binding Modifier(token:0x895D6E9).Optional C Binding Modifier(token:0x895D6EB).ptr.valueType (token:0x895D6EE)

;	.proc.beg

; 1267 :         _Ptr = nullptr;

	ldarg.0				; this$
	ldc.i.0		0		; i64 0x0
	conv.i8		
	stind.i8	

; 1268 :     }

	ret		
 .end ?_Release@_Basic_container_proxy_ptr12@std@@$$FQEAAXXZ ; std::_Basic_container_proxy_ptr12::_Release
;	.proc.end.void
.global	
.global	
	.bss
.local	,4
.local	,4
.local	$T1,0
; Function compile flags: /Odtp
; File C:\Program Files (x86)\Microsoft Visual Studio\2019\Enterprise\VC\Tools\MSVC\14.27.29110\include\vector
	.text
	.comdat	any, ?size@?$vector@HV?$allocator@H@std@@@std@@$$FQEBA_KXZ
.global	?size@?$vector@HV?$allocator@H@std@@@std@@$$FQEBA_KXZ ; std::vector<int,std::allocator<int> >::size
?size@?$vector@HV?$allocator@H@std@@@std@@$$FQEBA_KXZ:	; std::vector<int,std::allocator<int> >::size
;	.proc.def	D:J(J)

; Function Header:
; max stack depth = 3
; function size = 19 bytes
; local varsig tk = 0x11000028 
; Exception Information:
; 0 handlers, each consisting of filtered handlers

;	.formal.i8 0,"this$" SIG: Optional C Binding Modifier(token:0x8958101).Optional C Binding Modifier(token:0x8958103).ptr.Optional C Binding Modifier(token:0x8958106).valueType (token:0x8958108)
;	.local.i8 0,"_My_data$" SIG: Optional C Binding Modifier(token:0x895A979).ptr.Optional C Binding Modifier(token:0x895A97C).valueType (token:0x895A97E)
;	.local.u8 1,"$T2" SIG: u8

;	.proc.beg

; 1483 :         auto& _My_data = _Mypair._Myval2;

	ldarg.0				; this$
	stloc.0				; _My_data$

; 1484 :         return static_cast<size_type>(_My_data._Mylast - _My_data._Myfirst);

	ldloc.0				; _My_data$
	ldc.i4.s	16		; i64 0x10
	conv.i8		
	add		
	ldind.i8	
	ldloc.0				; _My_data$
	ldc.i.8		8		; i64 0x8
	conv.i8		
	add		
	ldind.i8	
	sub		
	ldc.i.2		2		; i32 0x2
	shr		
	stloc.1				; $T2

; 1485 :     }

	ldloc.1				; $T2
	ret		
 .end ?size@?$vector@HV?$allocator@H@std@@@std@@$$FQEBA_KXZ ; std::vector<int,std::allocator<int> >::size
;	.proc.end.u8
.global	
	.bss
.local	,4
; Function compile flags: /Odtp
; File C:\Program Files (x86)\Microsoft Visual Studio\2019\Enterprise\VC\Tools\MSVC\14.27.29110\include\xmemory
	.text
	.comdat	any, ??0?$allocator@H@std@@$$FQEAA@XZ
.global	??0?$allocator@H@std@@$$FQEAA@XZ		; std::allocator<int>::allocator<int>
??0?$allocator@H@std@@$$FQEAA@XZ:			; std::allocator<int>::allocator<int>
;	.proc.def	D:J(J)

; Function Header:
; max stack depth = 1
; function size = 2 bytes
; local varsig tk = 0x0 
; Exception Information:
; 0 handlers, each consisting of filtered handlers

;	.formal.i8 0,"this$" SIG: Optional C Binding Modifier(token:0x895A461).Optional C Binding Modifier(token:0x895A463).ptr.valueType (token:0x895A466)

;	.proc.beg

; 795  :     constexpr allocator() noexcept {}

	ldarg.0				; this$
	ret		
 .end ??0?$allocator@H@std@@$$FQEAA@XZ			; std::allocator<int>::allocator<int>
;	.proc.end.i8
.global	??_C@_0BJ@DHFDPMIM@invalid?5vector?5subscript@	; `string'
	.rdata
	.comdat	any, ??_C@_0BJ@DHFDPMIM@invalid?5vector?5subscript@

??_C@_0BJ@DHFDPMIM@invalid?5vector?5subscript@:		; `string'
	.ascii	"invalid vector subscript\000"
; Function compile flags: /Odtp
; File C:\Program Files (x86)\Microsoft Visual Studio\2019\Enterprise\VC\Tools\MSVC\14.27.29110\include\vector
	.text
	.comdat	any, ?_Xrange@?$vector@HV?$allocator@H@std@@@std@@$$FCAXXZ
.global	?_Xrange@?$vector@HV?$allocator@H@std@@@std@@$$FCAXXZ ; std::vector<int,std::allocator<int> >::_Xrange
?_Xrange@?$vector@HV?$allocator@H@std@@@std@@$$FCAXXZ:	; std::vector<int,std::allocator<int> >::_Xrange
;	.proc.def	D:V()

; Function Header:
; max stack depth = 1
; function size = 11 bytes
; local varsig tk = 0x0 
; Exception Information:
; 0 handlers, each consisting of filtered handlers


;	.proc.beg

; 1708 :         _Xout_of_range("invalid vector subscript");

	ldsflda		??_C@_0BJ@DHFDPMIM@invalid?5vector?5subscript@
	call		?_Xout_of_range@std@@$$FYAXPEBD@Z

; 1709 :     }

	ret		
 .end ?_Xrange@?$vector@HV?$allocator@H@std@@@std@@$$FCAXXZ ; std::vector<int,std::allocator<int> >::_Xrange
;	.proc.end.void
.global	
	.bss
.local	,4
.local	$T1,0
; Function compile flags: /Odtp
; File C:\Program Files (x86)\Microsoft Visual Studio\2019\Enterprise\VC\Tools\MSVC\14.27.29110\include\xmemory
	.text
	.comdat	any, ?_Get_first@?$_Compressed_pair@V?$allocator@H@std@@V?$_Vector_val@U?$_Simple_types@H@std@@@2@$00@std@@$$FQEAAAEAV?$allocator@H@2@XZ
.global	?_Get_first@?$_Compressed_pair@V?$allocator@H@std@@V?$_Vector_val@U?$_Simple_types@H@std@@@2@$00@std@@$$FQEAAAEAV?$allocator@H@2@XZ ; std::_Compressed_pair<std::allocator<int>,std::_Vector_val<std::_Simple_types<int> >,1>::_Get_first
?_Get_first@?$_Compressed_pair@V?$allocator@H@std@@V?$_Vector_val@U?$_Simple_types@H@std@@@2@$00@std@@$$FQEAAAEAV?$allocator@H@2@XZ: ; std::_Compressed_pair<std::allocator<int>,std::_Vector_val<std::_Simple_types<int> >,1>::_Get_first
;	.proc.def	D:J(J)

; Function Header:
; max stack depth = 1
; function size = 4 bytes
; local varsig tk = 0x1100002B 
; Exception Information:
; 0 handlers, each consisting of filtered handlers

;	.formal.i8 0,"this$" SIG: Optional C Binding Modifier(token:0x8952DF1).Optional C Binding Modifier(token:0x8952DF3).ptr.valueType (token:0x8952DF6)
;	.local.i8 0,"$T2" SIG: Optional C Binding Modifier(token:0x88C7CB1).ptr.valueType (token:0x88C7CB4)

;	.proc.beg

; 1344 :         return *this;

	ldarg.0				; this$
	stloc.0				; $T2

; 1345 :     }

	ldloc.0				; $T2
	ret		
 .end ?_Get_first@?$_Compressed_pair@V?$allocator@H@std@@V?$_Vector_val@U?$_Simple_types@H@std@@@2@$00@std@@$$FQEAAAEAV?$allocator@H@2@XZ ; std::_Compressed_pair<std::allocator<int>,std::_Vector_val<std::_Simple_types<int> >,1>::_Get_first
;	.proc.end.i8
.global	
	.bss
.local	,4
.local	$T1,0
; Function compile flags: /Odtp
; File C:\Program Files (x86)\Microsoft Visual Studio\2019\Enterprise\VC\Tools\MSVC\14.27.29110\include\xstddef
	.text
	.comdat	any, ??$addressof@V?$_Vector_val@U?$_Simple_types@H@std@@@std@@@std@@$$FYAPEAV?$_Vector_val@U?$_Simple_types@H@std@@@0@AEAV10@@Z
.global	??$addressof@V?$_Vector_val@U?$_Simple_types@H@std@@@std@@@std@@$$FYAPEAV?$_Vector_val@U?$_Simple_types@H@std@@@0@AEAV10@@Z ; std::addressof<std::_Vector_val<std::_Simple_types<int> > >
??$addressof@V?$_Vector_val@U?$_Simple_types@H@std@@@std@@@std@@$$FYAPEAV?$_Vector_val@U?$_Simple_types@H@std@@@0@AEAV10@@Z: ; std::addressof<std::_Vector_val<std::_Simple_types<int> > >
;	.proc.def	D:J(J)

; Function Header:
; max stack depth = 1
; function size = 4 bytes
; local varsig tk = 0x1100002D 
; Exception Information:
; 0 handlers, each consisting of filtered handlers

;	.formal.i8 0,"_Val$" SIG: Optional C Binding Modifier(token:0x86FBBB9).ptr.valueType (token:0x86FBBBC)
;	.local.i8 0,"$T2" SIG: ptr.valueType (token:0x88E6D32)

;	.proc.beg

; 275  :     return __builtin_addressof(_Val);

	ldarg.0				; _Val$
	stloc.0				; $T2

; 276  : }

	ldloc.0				; $T2
	ret		
 .end ??$addressof@V?$_Vector_val@U?$_Simple_types@H@std@@@std@@@std@@$$FYAPEAV?$_Vector_val@U?$_Simple_types@H@std@@@0@AEAV10@@Z ; std::addressof<std::_Vector_val<std::_Simple_types<int> > >
;	.proc.end.i8
.global	
.global	
	.bss
.local	,4
.local	,4
; Function compile flags: /Odtp
; File C:\Program Files (x86)\Microsoft Visual Studio\2019\Enterprise\VC\Tools\MSVC\14.27.29110\include\xmemory
	.text
	.comdat	any, ??$?0H@?$allocator@U_Container_proxy@std@@@std@@$$FQEAA@AEBV?$allocator@H@1@@Z
.global	??$?0H@?$allocator@U_Container_proxy@std@@@std@@$$FQEAA@AEBV?$allocator@H@1@@Z ; std::allocator<std::_Container_proxy>::allocator<std::_Container_proxy><int>
??$?0H@?$allocator@U_Container_proxy@std@@@std@@$$FQEAA@AEBV?$allocator@H@1@@Z: ; std::allocator<std::_Container_proxy>::allocator<std::_Container_proxy><int>
;	.proc.def	D:J(JJ)

; Function Header:
; max stack depth = 1
; function size = 2 bytes
; local varsig tk = 0x0 
; Exception Information:
; 0 handlers, each consisting of filtered handlers

;	.formal.i8 0,"this$" SIG: Optional C Binding Modifier(token:0x8960A69).Optional C Binding Modifier(token:0x8960A6B).ptr.valueType (token:0x8960A6E)

;	.proc.beg

; 799  :     constexpr allocator(const allocator<_Other>&) noexcept {}

	ldarg.0				; this$
	ret		
 .end ??$?0H@?$allocator@U_Container_proxy@std@@@std@@$$FQEAA@AEBV?$allocator@H@1@@Z ; std::allocator<std::_Container_proxy>::allocator<std::_Container_proxy><int>
;	.proc.end.i8
.global	
.global	
.global	
	.bss
.local	,4
.local	,4
.local	,4
.local	$T1,0
; Function compile flags: /Odtp
; File C:\Program Files (x86)\Microsoft Visual Studio\2019\Enterprise\VC\Tools\MSVC\14.27.29110\include\utility
	.text
	.comdat	any, ??$exchange@PEAU_Container_proxy@std@@$$T@std@@$$FYAPEAU_Container_proxy@0@AEAPEAU10@$$QEA$$T@Z
.global	??$exchange@PEAU_Container_proxy@std@@$$T@std@@$$FYAPEAU_Container_proxy@0@AEAPEAU10@$$QEA$$T@Z ; std::exchange<std::_Container_proxy *,std::nullptr_t>
??$exchange@PEAU_Container_proxy@std@@$$T@std@@$$FYAPEAU_Container_proxy@0@AEAPEAU10@$$QEA$$T@Z: ; std::exchange<std::_Container_proxy *,std::nullptr_t>
;	.proc.def	D:J(JJ)

; Function Header:
; max stack depth = 2
; function size = 11 bytes
; local varsig tk = 0x11000033 
; Exception Information:
; 0 handlers, each consisting of filtered handlers

;	.formal.i8 0,"_Val$" SIG: Optional C Binding Modifier(token:0x8957929).ptr.ptr.valueType (token:0x895792D)
;	.formal.i8 1,"_New_val$" SIG: Optional C Binding Modifier(token:0x895E3F1).Optional C Binding Modifier(token:0x895E3F3).ptr.ptr.void
;	.local.i8 0,"$T2" SIG: ptr.valueType (token:0x88E7EE2)
;	.local.i8 1,"_Old_val$" SIG: ptr.valueType (token:0x896053A)

;	.proc.beg

; 598  :     // assign _New_val to _Val, return previous _Val
; 599  :     _Ty _Old_val = static_cast<_Ty&&>(_Val);

	ldarg.0				; _Val$
	ldind.i8	
	stloc.1				; _Old_val$

; 600  :     _Val         = static_cast<_Other&&>(_New_val);

	ldarg.0				; _Val$
	ldarg.1				; _New_val$
	ldind.i8	
	stind.i8	

; 601  :     return _Old_val;

	ldloc.1				; _Old_val$
	stloc.0				; $T2

; 602  : }

	ldloc.0				; $T2
	ret		
 .end ??$exchange@PEAU_Container_proxy@std@@$$T@std@@$$FYAPEAU_Container_proxy@0@AEAPEAU10@$$QEA$$T@Z ; std::exchange<std::_Container_proxy *,std::nullptr_t>
;	.proc.end.i8
.global	
.global	
.global	
	.bss
.local	,4
.local	,4
.local	,4
; Function compile flags: /Odtp
; File C:\Program Files (x86)\Microsoft Visual Studio\2019\Enterprise\VC\Tools\MSVC\14.27.29110\include\xmemory
	.text
	.comdat	any, ??$_Destroy_range@V?$allocator@H@std@@@std@@$$FYAXPEAHQEAHAEAV?$allocator@H@0@@Z
.global	??$_Destroy_range@V?$allocator@H@std@@@std@@$$FYAXPEAHQEAHAEAV?$allocator@H@0@@Z ; std::_Destroy_range<std::allocator<int> >
??$_Destroy_range@V?$allocator@H@std@@@std@@$$FYAXPEAHQEAHAEAV?$allocator@H@0@@Z: ; std::_Destroy_range<std::allocator<int> >
;	.proc.def	D:V(JJJ)

; Function Header:
; max stack depth = 0
; function size = 1 bytes
; local varsig tk = 0x0 
; Exception Information:
; 0 handlers, each consisting of filtered handlers


;	.proc.beg

; 956  :     // note that this is an optimization for debug mode codegen; in release mode the BE removes all of this
; 957  :     using _Ty = typename _Alloc::value_type;
; 958  :     if _CONSTEXPR_IF (!conjunction_v<is_trivially_destructible<_Ty>, _Uses_default_destroy<_Alloc, _Ty*>>) {
; 959  :         for (; _First != _Last; ++_First) {
; 960  :             allocator_traits<_Alloc>::destroy(_Al, _Unfancy(_First));
; 961  :         }
; 962  :     }
; 963  : }

	ret		
 .end ??$_Destroy_range@V?$allocator@H@std@@@std@@$$FYAXPEAHQEAHAEAV?$allocator@H@0@@Z ; std::_Destroy_range<std::allocator<int> >
;	.proc.end.void
; Function compile flags: /Odtp
; File C:\Program Files (x86)\Microsoft Visual Studio\2019\Enterprise\VC\Tools\MSVC\14.27.29110\include\xmemory
	.text
	.comdat	any, ??$_Deallocate@$0BA@$0A@@std@@$$FYAXPEAX_K@Z
.global	??$_Deallocate@$0BA@$0A@@std@@$$FYAXPEAX_K@Z	; std::_Deallocate<16,0>
??$_Deallocate@$0BA@$0A@@std@@$$FYAXPEAX_K@Z:		; std::_Deallocate<16,0>
;	.proc.def	D:V(JJ)

; Function Header:
; max stack depth = 2
; function size = 26 bytes
; local varsig tk = 0x0 
; Exception Information:
; 0 handlers, each consisting of filtered handlers

;	.formal.i8 0,"_Ptr$" SIG: ptr.void
;	.formal.u8 1,"_Bytes$" SIG: u8

;	.proc.beg

; 214  :     // deallocate storage allocated by _Allocate when !_HAS_ALIGNED_NEW || _Align <= __STDCPP_DEFAULT_NEW_ALIGNMENT__
; 215  : #if defined(_M_IX86) || defined(_M_X64)
; 216  :     if (_Bytes >= _Big_allocation_threshold) { // boost the alignment of big allocations to help autovectorization

	ldarg.1				; _Bytes$
	ldc.i4		4096		; u64 0x1000
	conv.i8		
	blt.un.s	$LN2@Deallocate

; 217  :         _Adjust_manually_vector_aligned(_Ptr, _Bytes);

	ldarga.s	0		; _Ptr$
	ldarga.s	1		; _Bytes$
	call		?_Adjust_manually_vector_aligned@std@@$$FYAXAEAPEAXAEA_K@Z
$LN2@Deallocate:

; 218  :     }
; 219  : #endif // defined(_M_IX86) || defined(_M_X64)
; 220  : 
; 221  :     ::operator delete(_Ptr, _Bytes);

	ldarg.0				; _Ptr$
	ldarg.1				; _Bytes$
	call		??3@$$FYAXPEAX_K@Z

; 222  : }

	ret		
 .end ??$_Deallocate@$0BA@$0A@@std@@$$FYAXPEAX_K@Z	; std::_Deallocate<16,0>
;	.proc.end.void
	.bss
.local	$T1,0
; Function compile flags: /Odtp
; File C:\Program Files (x86)\Microsoft Visual Studio\2019\Enterprise\VC\Tools\MSVC\14.27.29110\include\xstddef
	.text
	.comdat	any, ??$_Unfancy@U_Container_proxy@std@@@std@@$$FYAPEAU_Container_proxy@0@PEAU10@@Z
.global	??$_Unfancy@U_Container_proxy@std@@@std@@$$FYAPEAU_Container_proxy@0@PEAU10@@Z ; std::_Unfancy<std::_Container_proxy>
??$_Unfancy@U_Container_proxy@std@@@std@@$$FYAPEAU_Container_proxy@0@PEAU10@@Z: ; std::_Unfancy<std::_Container_proxy>
;	.proc.def	D:J(J)

; Function Header:
; max stack depth = 1
; function size = 4 bytes
; local varsig tk = 0x11000037 
; Exception Information:
; 0 handlers, each consisting of filtered handlers

;	.formal.i8 0,"_Ptr$" SIG: ptr.valueType (token:0x896053A)
;	.local.i8 0,"$T2" SIG: ptr.valueType (token:0x88C0FFA)

;	.proc.beg

; 289  :     return _Ptr;

	ldarg.0				; _Ptr$
	stloc.0				; $T2

; 290  : }

	ldloc.0				; $T2
	ret		
 .end ??$_Unfancy@U_Container_proxy@std@@@std@@$$FYAPEAU_Container_proxy@0@PEAU10@@Z ; std::_Unfancy<std::_Container_proxy>
;	.proc.end.i8
.global	
	.bss
.local	,4
.local	$T1,0
; Function compile flags: /Odtp
; File C:\Program Files (x86)\Microsoft Visual Studio\2019\Enterprise\VC\Tools\MSVC\14.27.29110\include\xstddef
	.text
	.comdat	any, ??$addressof@U_Container_base12@std@@@std@@$$FYAPEAU_Container_base12@0@AEAU10@@Z
.global	??$addressof@U_Container_base12@std@@@std@@$$FYAPEAU_Container_base12@0@AEAU10@@Z ; std::addressof<std::_Container_base12>
??$addressof@U_Container_base12@std@@@std@@$$FYAPEAU_Container_base12@0@AEAU10@@Z: ; std::addressof<std::_Container_base12>
;	.proc.def	D:J(J)

; Function Header:
; max stack depth = 1
; function size = 4 bytes
; local varsig tk = 0x11000039 
; Exception Information:
; 0 handlers, each consisting of filtered handlers

;	.formal.i8 0,"_Val$" SIG: Optional C Binding Modifier(token:0x8959529).ptr.valueType (token:0x895952C)
;	.local.i8 0,"$T2" SIG: ptr.valueType (token:0x88C18AA)

;	.proc.beg

; 275  :     return __builtin_addressof(_Val);

	ldarg.0				; _Val$
	stloc.0				; $T2

; 276  : }

	ldloc.0				; $T2
	ret		
 .end ??$addressof@U_Container_base12@std@@@std@@$$FYAPEAU_Container_base12@0@AEAU10@@Z ; std::addressof<std::_Container_base12>
;	.proc.end.i8
	.bss
.local	$T1,0
; Function compile flags: /Odtp
; File C:\Program Files (x86)\Microsoft Visual Studio\2019\Enterprise\VC\Tools\MSVC\14.27.29110\include\xstddef
	.text
	.comdat	any, ??$_Unfancy@H@std@@$$FYAPEAHPEAH@Z
.global	??$_Unfancy@H@std@@$$FYAPEAHPEAH@Z		; std::_Unfancy<int>
??$_Unfancy@H@std@@$$FYAPEAHPEAH@Z:			; std::_Unfancy<int>
;	.proc.def	D:J(J)

; Function Header:
; max stack depth = 1
; function size = 4 bytes
; local varsig tk = 0x1100003A 
; Exception Information:
; 0 handlers, each consisting of filtered handlers

;	.formal.i8 0,"_Ptr$" SIG: ptr.i4
;	.local.i8 0,"$T2" SIG: ptr.i4

;	.proc.beg

; 289  :     return _Ptr;

	ldarg.0				; _Ptr$
	stloc.0				; $T2

; 290  : }

	ldloc.0				; $T2
	ret		
 .end ??$_Unfancy@H@std@@$$FYAPEAHPEAH@Z		; std::_Unfancy<int>
;	.proc.end.i8
.global	
	.bss
.local	,4
.local	$T1,0
; Function compile flags: /Odtp
; File C:\Program Files (x86)\Microsoft Visual Studio\2019\Enterprise\VC\Tools\MSVC\14.27.29110\include\xmemory
	.text
	.comdat	any, ??$_Get_size_of_n@$0BA@@std@@$$FYA_K_K@Z
.global	??$_Get_size_of_n@$0BA@@std@@$$FYA_K_K@Z	; std::_Get_size_of_n<16>
??$_Get_size_of_n@$0BA@@std@@$$FYA_K_K@Z:		; std::_Get_size_of_n<16>
;	.proc.def	D:J(J)

; Function Header:
; max stack depth = 2
; function size = 37 bytes
; local varsig tk = 0x1100003C 
; Exception Information:
; 0 handlers, each consisting of filtered handlers

;	.formal.u8 0,"_Count$" SIG: Optional C Binding Modifier(token:0x8960891).u8
;	.local.u8 0,"$T2" SIG: u8
;	.local.u8 1,"_Max_possible$3" SIG: Optional C Binding Modifier(token:0x8960891).u8
;	.local.u1 2,"_Overflow_is_possible$" SIG: Optional C Binding Modifier(token:0x8958861).bool

;	.proc.beg

; 56   :     constexpr bool _Overflow_is_possible = _Ty_size > 1;

	ldc.i.1		1		; u8 0x1
	stloc.2				; _Overflow_is_possible$

; 57   : 
; 58   :     if _CONSTEXPR_IF (_Overflow_is_possible) {
; 59   :         constexpr size_t _Max_possible = static_cast<size_t>(-1) / _Ty_size;

	ldc.i8		1152921504606846975 ; u64 0xfffffffffffffff
	stloc.1				; _Max_possible$3

; 60   :         if (_Count > _Max_possible) {

	ldarg.0				; _Count$
	ldc.i8		1152921504606846975 ; u64 0xfffffffffffffff
	ble.un.s	$LN2@Get_size_o

; 61   :             _Throw_bad_array_new_length(); // multiply overflow

	call		?_Throw_bad_array_new_length@std@@$$FYAXXZ
$LN2@Get_size_o:

; 62   :         }
; 63   :     }
; 64   : 
; 65   :     return _Count * _Ty_size;

	ldarg.0				; _Count$
	ldc.i4.s	16		; u64 0x10
	conv.i8		
	mul		
	stloc.0				; $T2

; 66   : }

	ldloc.0				; $T2
	ret		
 .end ??$_Get_size_of_n@$0BA@@std@@$$FYA_K_K@Z		; std::_Get_size_of_n<16>
;	.proc.end.u8
.global	
	.bss
.local	,4
; Function compile flags: /Odtp
; File C:\Program Files (x86)\Microsoft Visual Studio\2019\Enterprise\VC\Tools\MSVC\14.27.29110\include\xmemory
	.text
	.comdat	any, ?deallocate@?$_Default_allocator_traits@V?$allocator@U_Container_proxy@std@@@std@@@std@@$$FSAXAEAV?$allocator@U_Container_proxy@std@@@2@QEAU_Container_proxy@2@_K@Z
.global	?deallocate@?$_Default_allocator_traits@V?$allocator@U_Container_proxy@std@@@std@@@std@@$$FSAXAEAV?$allocator@U_Container_proxy@std@@@2@QEAU_Container_proxy@2@_K@Z ; std::_Default_allocator_traits<std::allocator<std::_Container_proxy> >::deallocate
?deallocate@?$_Default_allocator_traits@V?$allocator@U_Container_proxy@std@@@std@@@std@@$$FSAXAEAV?$allocator@U_Container_proxy@std@@@2@QEAU_Container_proxy@2@_K@Z: ; std::_Default_allocator_traits<std::allocator<std::_Container_proxy> >::deallocate
;	.proc.def	D:V(JJJ)

; Function Header:
; max stack depth = 3
; function size = 12 bytes
; local varsig tk = 0x0 
; Exception Information:
; 0 handlers, each consisting of filtered handlers

;	.formal.i8 1,"_Ptr$" SIG: Optional C Binding Modifier(token:0x895E139).Optional C Binding Modifier(token:0x895E13B).ptr.valueType (token:0x895E13E)
;	.formal.u8 2,"_Count$" SIG: Optional C Binding Modifier(token:0x8960891).u8

;	.proc.beg

; 688  :         // no overflow check on the following multiply; we assume _Allocate did that check
; 689  :         _Deallocate<_New_alignof<value_type>>(_Ptr, sizeof(value_type) * _Count);

	ldarg.1				; _Ptr$
	ldarg.2				; _Count$
	ldc.i4.s	16		; u64 0x10
	conv.i8		
	mul		
	call		??$_Deallocate@$0BA@$0A@@std@@$$FYAXPEAX_K@Z

; 690  :     }

	ret		
 .end ?deallocate@?$_Default_allocator_traits@V?$allocator@U_Container_proxy@std@@@std@@@std@@$$FSAXAEAV?$allocator@U_Container_proxy@std@@@2@QEAU_Container_proxy@2@_K@Z ; std::_Default_allocator_traits<std::allocator<std::_Container_proxy> >::deallocate
;	.proc.end.void
.global	
.global	??_C@_0GI@BDJNFBPD@C?3?2Program?5Files?5?$CIx86?$CJ?2Microsof@ ; `string'
.global	??_C@_0DI@PBEELKIF@vector?5iterators?5in?5range?5are?5f@ ; `string'
.global	??_C@_1HE@KBMFDAFB@?$AA?$CC?$AAv?$AAe?$AAc?$AAt?$AAo?$AAr?$AA?5?$AAi?$AAt?$AAe?$AAr?$AAa?$AAt?$AAo@ ; `string'
.global	??_C@_1CG@LJCPDKEJ@?$AAs?$AAt?$AAd?$AA?3?$AA?3?$AA_?$AAV?$AAe?$AAr?$AAi?$AAf?$AAy?$AA_?$AAr?$AAa@ ; `string'
.global	??_C@_1NA@MKDIEAJP@?$AAC?$AA?3?$AA?2?$AAP?$AAr?$AAo?$AAg?$AAr?$AAa?$AAm?$AA?5?$AAF?$AAi?$AAl?$AAe@ ; `string'
.global	??_C@_0CB@LIAHLBAO@vector?5iterator?5range?5transpose@ ; `string'
.global	??_C@_1EG@ODKBEHFN@?$AA?$CC?$AAv?$AAe?$AAc?$AAt?$AAo?$AAr?$AA?5?$AAi?$AAt?$AAe?$AAr?$AAa?$AAt?$AAo@ ; `string'
	.bss
.local	,4
	.rdata
	.comdat	any, ??_C@_1EG@ODKBEHFN@?$AA?$CC?$AAv?$AAe?$AAc?$AAt?$AAo?$AAr?$AA?5?$AAi?$AAt?$AAe?$AAr?$AAa?$AAt?$AAo@

??_C@_1EG@ODKBEHFN@?$AA?$CC?$AAv?$AAe?$AAc?$AAt?$AAo?$AAr?$AA?5?$AAi?$AAt?$AAe?$AAr?$AAa?$AAt?$AAo@: ; `string'
	.ascii	"\"\000v\000e\000c\000t\000o\000r\000 \000i\000t\000e\000"
	.ascii	"r\000a\000t\000o\000r\000 \000r\000a\000n\000g\000e\000 \000"
	.ascii	"t\000r\000a\000n\000s\000p\000o\000s\000e\000d\000\"\000\000"
	.ascii	"\000"
	.rdata
	.comdat	any, ??_C@_0CB@LIAHLBAO@vector?5iterator?5range?5transpose@

??_C@_0CB@LIAHLBAO@vector?5iterator?5range?5transpose@:	; `string'
	.ascii	"vector iterator range transposed\000"
	.rdata
	.comdat	any, ??_C@_1NA@MKDIEAJP@?$AAC?$AA?3?$AA?2?$AAP?$AAr?$AAo?$AAg?$AAr?$AAa?$AAm?$AA?5?$AAF?$AAi?$AAl?$AAe@

??_C@_1NA@MKDIEAJP@?$AAC?$AA?3?$AA?2?$AAP?$AAr?$AAo?$AAg?$AAr?$AAa?$AAm?$AA?5?$AAF?$AAi?$AAl?$AAe@: ; `string'
	.ascii	"C\000:\000\\\000P\000r\000o\000g\000r\000a\000m\000 \000"
	.ascii	"F\000i\000l\000e\000s\000 \000(\000x\0008\0006\000)\000\\"
	.ascii	"\000M\000i\000c\000r\000o\000s\000o\000f\000t\000 \000V\000"
	.ascii	"i\000s\000u\000a\000l\000 \000S\000t\000u\000d\000i\000o\000"
	.ascii	"\\\0002\0000\0001\0009\000\\\000E\000n\000t\000e\000r\000"
	.ascii	"p\000r\000i\000s\000e\000\\\000V\000C\000\\\000T\000o\000"
	.ascii	"o\000l\000s\000\\\000M\000S\000V\000C\000\\\0001\0004\000"
	.ascii	".\0002\0007\000.\0002\0009\0001\0001\0000\000\\\000i\000n"
	.ascii	"\000c\000l\000u\000d\000e\000\\\000v\000e\000c\000t\000o\000"
	.ascii	"r\000\000\000"
	.rdata
	.comdat	any, ??_C@_1CG@LJCPDKEJ@?$AAs?$AAt?$AAd?$AA?3?$AA?3?$AA_?$AAV?$AAe?$AAr?$AAi?$AAf?$AAy?$AA_?$AAr?$AAa@

??_C@_1CG@LJCPDKEJ@?$AAs?$AAt?$AAd?$AA?3?$AA?3?$AA_?$AAV?$AAe?$AAr?$AAi?$AAf?$AAy?$AA_?$AAr?$AAa@: ; `string'
	.ascii	"s\000t\000d\000:\000:\000_\000V\000e\000r\000i\000f\000y"
	.ascii	"\000_\000r\000a\000n\000g\000e\000\000\000"
	.rdata
	.comdat	any, ??_C@_1HE@KBMFDAFB@?$AA?$CC?$AAv?$AAe?$AAc?$AAt?$AAo?$AAr?$AA?5?$AAi?$AAt?$AAe?$AAr?$AAa?$AAt?$AAo@

??_C@_1HE@KBMFDAFB@?$AA?$CC?$AAv?$AAe?$AAc?$AAt?$AAo?$AAr?$AA?5?$AAi?$AAt?$AAe?$AAr?$AAa?$AAt?$AAo@: ; `string'
	.ascii	"\"\000v\000e\000c\000t\000o\000r\000 \000i\000t\000e\000"
	.ascii	"r\000a\000t\000o\000r\000s\000 \000i\000n\000 \000r\000a\000"
	.ascii	"n\000g\000e\000 \000a\000r\000e\000 \000f\000r\000o\000m\000"
	.ascii	" \000d\000i\000f\000f\000e\000r\000e\000n\000t\000 \000c\000"
	.ascii	"o\000n\000t\000a\000i\000n\000e\000r\000s\000\"\000\000\000"
	.rdata
	.comdat	any, ??_C@_0DI@PBEELKIF@vector?5iterators?5in?5range?5are?5f@

??_C@_0DI@PBEELKIF@vector?5iterators?5in?5range?5are?5f@: ; `string'
	.ascii	"vector iterators in range are from different containers\000"
	.rdata
	.comdat	any, ??_C@_0GI@BDJNFBPD@C?3?2Program?5Files?5?$CIx86?$CJ?2Microsof@

??_C@_0GI@BDJNFBPD@C?3?2Program?5Files?5?$CIx86?$CJ?2Microsof@: ; `string'
	.ascii	"C:\\Program Files (x86)\\Microsoft Visual Studio\\2019\\"
	.ascii	"Enterprise\\VC\\Tools\\MSVC\\14.27.29110\\include\\vector"
	.ascii	"\000"
; Function compile flags: /Odtp
; File C:\Program Files (x86)\Microsoft Visual Studio\2019\Enterprise\VC\Tools\MSVC\14.27.29110\include\vector
	.text
	.comdat	any, ?_Verify_range@std@@$$FYAXAEBV?$_Vector_const_iterator@V?$_Vector_val@U?$_Simple_types@H@std@@@std@@@1@0@Z
.global	?_Verify_range@std@@$$FYAXAEBV?$_Vector_const_iterator@V?$_Vector_val@U?$_Simple_types@H@std@@@std@@@1@0@Z ; std::_Verify_range
?_Verify_range@std@@$$FYAXAEBV?$_Vector_const_iterator@V?$_Vector_val@U?$_Simple_types@H@std@@@std@@@1@0@Z: ; std::_Verify_range
;	.proc.def	D:V(JJ)

; Function Header:
; max stack depth = 7
; function size = 163 bytes
; local varsig tk = 0x0 
; Exception Information:
; 0 handlers, each consisting of filtered handlers

;	.formal.i8 0,"_First$" SIG: Optional C Binding Modifier(token:0x895E939).ptr.Optional C Binding Modifier(token:0x895E93C).valueType (token:0x895E93E)
;	.formal.i8 1,"_Last$" SIG: Optional C Binding Modifier(token:0x895E939).ptr.Optional C Binding Modifier(token:0x895E93C).valueType (token:0x895E93E)

;	.proc.beg

; 182  :     friend void _Verify_range(const _Vector_const_iterator& _First, const _Vector_const_iterator& _Last) {

$LN4@Verify_ran:

; 183  :         _STL_VERIFY(_First._Getcont() == _Last._Getcont(), "vector iterators in range are from different containers");

	ldarg.0				; _First$
	call		?_Getcont@_Iterator_base12@std@@$$FQEBAPEBU_Container_base12@2@XZ
	ldarg.1				; _Last$
	call		?_Getcont@_Iterator_base12@std@@$$FQEBAPEBU_Container_base12@2@XZ
	bne.un.s	$LN7@Verify_ran
	br.s		$LN2@Verify_ran
$LN7@Verify_ran:
	ldc.i.1		1		; i32 0x1
	ldc.i.2		2		; i32 0x2
	ldsflda		??_C@_0GI@BDJNFBPD@C?3?2Program?5Files?5?$CIx86?$CJ?2Microsof@
	ldc.i4		183		; i32 0xb7
	ldc.i.0		0		; i64 0x0
	conv.i8		
	ldsflda		??_C@_02DKCKIIND@?$CFs@
	ldsflda		??_C@_0DI@PBEELKIF@vector?5iterators?5in?5range?5are?5f@
	call		?_CrtDbgReport@@$$J0YAHHPEBDH00ZZ
	bne.un.s	$LN19@Verify_ran
	break		
$LN19@Verify_ran:
	ldsflda		??_C@_1HE@KBMFDAFB@?$AA?$CC?$AAv?$AAe?$AAc?$AAt?$AAo?$AAr?$AA?5?$AAi?$AAt?$AAe?$AAr?$AAa?$AAt?$AAo@
	ldsflda		??_C@_1CG@LJCPDKEJ@?$AAs?$AAt?$AAd?$AA?3?$AA?3?$AA_?$AAV?$AAe?$AAr?$AAi?$AAf?$AAy?$AA_?$AAr?$AAa@
	ldsflda		??_C@_1NA@MKDIEAJP@?$AAC?$AA?3?$AA?2?$AAP?$AAr?$AAo?$AAg?$AAr?$AAa?$AAm?$AA?5?$AAF?$AAi?$AAl?$AAe@
	ldc.i4		183		; u32 0xb7
	ldc.i.0		0		; u64 0x0
	conv.i8		
	call		?_invalid_parameter@@$$J0YAXPEB_W00I_K@Z
	ldc.i.0		0		; i32 0x0
	brtrue.s	$LN7@Verify_ran
$LN2@Verify_ran:
	ldc.i.0		0		; i32 0x0
	brtrue.s	$LN4@Verify_ran
$LN10@Verify_ran:

; 184  :         _STL_VERIFY(_First._Ptr <= _Last._Ptr, "vector iterator range transposed");

	ldarg.0				; _First$
	ldc.i4.s	16		; i64 0x10
	conv.i8		
	add		
	ldind.i8	
	ldarg.1				; _Last$
	ldc.i4.s	16		; i64 0x10
	conv.i8		
	add		
	ldind.i8	
	bgt.un.s	$LN13@Verify_ran
	br.s		$LN8@Verify_ran
$LN13@Verify_ran:
	ldc.i.1		1		; i32 0x1
	ldc.i.2		2		; i32 0x2
	ldsflda		??_C@_0GI@BDJNFBPD@C?3?2Program?5Files?5?$CIx86?$CJ?2Microsof@
	ldc.i4		184		; i32 0xb8
	ldc.i.0		0		; i64 0x0
	conv.i8		
	ldsflda		??_C@_02DKCKIIND@?$CFs@
	ldsflda		??_C@_0CB@LIAHLBAO@vector?5iterator?5range?5transpose@
	call		?_CrtDbgReport@@$$J0YAHHPEBDH00ZZ
	bne.un.s	$LN20@Verify_ran
	break		
$LN20@Verify_ran:
	ldsflda		??_C@_1EG@ODKBEHFN@?$AA?$CC?$AAv?$AAe?$AAc?$AAt?$AAo?$AAr?$AA?5?$AAi?$AAt?$AAe?$AAr?$AAa?$AAt?$AAo@
	ldsflda		??_C@_1CG@LJCPDKEJ@?$AAs?$AAt?$AAd?$AA?3?$AA?3?$AA_?$AAV?$AAe?$AAr?$AAi?$AAf?$AAy?$AA_?$AAr?$AAa@
	ldsflda		??_C@_1NA@MKDIEAJP@?$AAC?$AA?3?$AA?2?$AAP?$AAr?$AAo?$AAg?$AAr?$AAa?$AAm?$AA?5?$AAF?$AAi?$AAl?$AAe@
	ldc.i4		184		; u32 0xb8
	ldc.i.0		0		; u64 0x0
	conv.i8		
	call		?_invalid_parameter@@$$J0YAXPEB_W00I_K@Z
	ldc.i.0		0		; i32 0x0
	brtrue.s	$LN13@Verify_ran
$LN8@Verify_ran:
	ldc.i.0		0		; i32 0x0
	brtrue.s	$LN10@Verify_ran

; 185  :     }

	ret		
 .end ?_Verify_range@std@@$$FYAXAEBV?$_Vector_const_iterator@V?$_Vector_val@U?$_Simple_types@H@std@@@std@@@1@0@Z ; std::_Verify_range
;	.proc.end.void
.global	
	.bss
.local	,4
; Function compile flags: /Odtp
; File C:\Program Files (x86)\Microsoft Visual Studio\2019\Enterprise\VC\Tools\MSVC\14.27.29110\include\vector
	.text
	.comdat	any, ??0?$_Vector_val@U?$_Simple_types@H@std@@@std@@$$FQEAA@XZ
.global	??0?$_Vector_val@U?$_Simple_types@H@std@@@std@@$$FQEAA@XZ ; std::_Vector_val<std::_Simple_types<int> >::_Vector_val<std::_Simple_types<int> >
??0?$_Vector_val@U?$_Simple_types@H@std@@@std@@$$FQEAA@XZ: ; std::_Vector_val<std::_Simple_types<int> >::_Vector_val<std::_Simple_types<int> >
;	.proc.def	D:J(J)

; Function Header:
; max stack depth = 2
; function size = 32 bytes
; local varsig tk = 0x0 
; Exception Information:
; 0 handlers, each consisting of filtered handlers

;	.formal.i8 0,"this$" SIG: Optional C Binding Modifier(token:0x86D9D61).Optional C Binding Modifier(token:0x86D9D63).ptr.valueType (token:0x86D9D66)

;	.proc.beg

; 375  :     _Vector_val() noexcept : _Myfirst(), _Mylast(), _Myend() {}

	ldarg.0				; this$
	call		??0_Container_base12@std@@$$FQEAA@XZ
	pop		
	ldarg.0				; this$
	ldc.i.8		8		; i64 0x8
	conv.i8		
	add		
	ldc.i.0		0		; i64 0x0
	conv.i8		
	stind.i8	
	ldarg.0				; this$
	ldc.i4.s	16		; i64 0x10
	conv.i8		
	add		
	ldc.i.0		0		; i64 0x0
	conv.i8		
	stind.i8	
	ldarg.0				; this$
	ldc.i4.s	24		; i64 0x18
	conv.i8		
	add		
	ldc.i.0		0		; i64 0x0
	conv.i8		
	stind.i8	
	ldarg.0				; this$
	ret		
 .end ??0?$_Vector_val@U?$_Simple_types@H@std@@@std@@$$FQEAA@XZ ; std::_Vector_val<std::_Simple_types<int> >::_Vector_val<std::_Simple_types<int> >
;	.proc.end.i8
.global	??_C@_0BA@FOIKENOD@vector?5too?5long@		; `string'
	.rdata
	.comdat	any, ??_C@_0BA@FOIKENOD@vector?5too?5long@

??_C@_0BA@FOIKENOD@vector?5too?5long@:			; `string'
	.ascii	"vector too long\000"
; Function compile flags: /Odtp
; File C:\Program Files (x86)\Microsoft Visual Studio\2019\Enterprise\VC\Tools\MSVC\14.27.29110\include\vector
	.text
	.comdat	any, ?_Xlength@?$vector@HV?$allocator@H@std@@@std@@$$FCAXXZ
.global	?_Xlength@?$vector@HV?$allocator@H@std@@@std@@$$FCAXXZ ; std::vector<int,std::allocator<int> >::_Xlength
?_Xlength@?$vector@HV?$allocator@H@std@@@std@@$$FCAXXZ:	; std::vector<int,std::allocator<int> >::_Xlength
;	.proc.def	D:V()

; Function Header:
; max stack depth = 1
; function size = 11 bytes
; local varsig tk = 0x0 
; Exception Information:
; 0 handlers, each consisting of filtered handlers


;	.proc.beg

; 1704 :         _Xlength_error("vector too long");

	ldsflda		??_C@_0BA@FOIKENOD@vector?5too?5long@
	call		?_Xlength_error@std@@$$FYAXPEBD@Z

; 1705 :     }

	ret		
 .end ?_Xlength@?$vector@HV?$allocator@H@std@@@std@@$$FCAXXZ ; std::vector<int,std::allocator<int> >::_Xlength
;	.proc.end.void
	.bss
.local	$T1,0
; Function compile flags: /Odtp
; File C:\Program Files (x86)\Microsoft Visual Studio\2019\Enterprise\VC\Tools\MSVC\14.27.29110\include\xmemory
	.text
	.comdat	any, ?max_size@?$_Default_allocator_traits@V?$allocator@H@std@@@std@@$$FSA_KAEBV?$allocator@H@2@@Z
.global	?max_size@?$_Default_allocator_traits@V?$allocator@H@std@@@std@@$$FSA_KAEBV?$allocator@H@2@@Z ; std::_Default_allocator_traits<std::allocator<int> >::max_size
?max_size@?$_Default_allocator_traits@V?$allocator@H@std@@@std@@$$FSA_KAEBV?$allocator@H@2@@Z: ; std::_Default_allocator_traits<std::allocator<int> >::max_size
;	.proc.def	D:J(J)

; Function Header:
; max stack depth = 1
; function size = 12 bytes
; local varsig tk = 0x1100001A 
; Exception Information:
; 0 handlers, each consisting of filtered handlers

;	.local.u8 0,"$T2" SIG: u8

;	.proc.beg

; 703  :         return static_cast<size_t>(-1) / sizeof(value_type);

	ldc.i8		4611686018427387903 ; u64 0x3fffffffffffffff
	stloc.0				; $T2

; 704  :     }

	ldloc.0				; $T2
	ret		
 .end ?max_size@?$_Default_allocator_traits@V?$allocator@H@std@@@std@@$$FSA_KAEBV?$allocator@H@2@@Z ; std::_Default_allocator_traits<std::allocator<int> >::max_size
;	.proc.end.u8
.global	
	.bss
.local	,4
.local	$T1,0
; Function compile flags: /Odtp
; File C:\Program Files (x86)\Microsoft Visual Studio\2019\Enterprise\VC\Tools\MSVC\14.27.29110\include\xmemory
	.text
	.comdat	any, ?_Get_first@?$_Compressed_pair@V?$allocator@H@std@@V?$_Vector_val@U?$_Simple_types@H@std@@@2@$00@std@@$$FQEBAAEBV?$allocator@H@2@XZ
.global	?_Get_first@?$_Compressed_pair@V?$allocator@H@std@@V?$_Vector_val@U?$_Simple_types@H@std@@@2@$00@std@@$$FQEBAAEBV?$allocator@H@2@XZ ; std::_Compressed_pair<std::allocator<int>,std::_Vector_val<std::_Simple_types<int> >,1>::_Get_first
?_Get_first@?$_Compressed_pair@V?$allocator@H@std@@V?$_Vector_val@U?$_Simple_types@H@std@@@2@$00@std@@$$FQEBAAEBV?$allocator@H@2@XZ: ; std::_Compressed_pair<std::allocator<int>,std::_Vector_val<std::_Simple_types<int> >,1>::_Get_first
;	.proc.def	D:J(J)

; Function Header:
; max stack depth = 1
; function size = 4 bytes
; local varsig tk = 0x11000041 
; Exception Information:
; 0 handlers, each consisting of filtered handlers

;	.formal.i8 0,"this$" SIG: Optional C Binding Modifier(token:0x8953F19).Optional C Binding Modifier(token:0x8953F1B).ptr.Optional C Binding Modifier(token:0x8953F1E).valueType (token:0x8953F20)
;	.local.i8 0,"$T2" SIG: Optional C Binding Modifier(token:0x8710159).ptr.Optional C Binding Modifier(token:0x871015C).valueType (token:0x871015E)

;	.proc.beg

; 1348 :         return *this;

	ldarg.0				; this$
	stloc.0				; $T2

; 1349 :     }

	ldloc.0				; $T2
	ret		
 .end ?_Get_first@?$_Compressed_pair@V?$allocator@H@std@@V?$_Vector_val@U?$_Simple_types@H@std@@@2@$00@std@@$$FQEBAAEBV?$allocator@H@2@XZ ; std::_Compressed_pair<std::allocator<int>,std::_Vector_val<std::_Simple_types<int> >,1>::_Get_first
;	.proc.end.i8
	.bss
.local	$T1,0
; Function compile flags: /Odtp
; File C:\Program Files (x86)\Microsoft Visual Studio\2019\Enterprise\VC\Tools\MSVC\14.27.29110\include\type_traits
	.text
	.comdat	any, ??$forward@AEBV?$allocator@H@std@@@std@@$$FYAAEBV?$allocator@H@0@AEBV10@@Z
.global	??$forward@AEBV?$allocator@H@std@@@std@@$$FYAAEBV?$allocator@H@0@AEBV10@@Z ; std::forward<std::allocator<int> const &>
??$forward@AEBV?$allocator@H@std@@@std@@$$FYAAEBV?$allocator@H@0@AEBV10@@Z: ; std::forward<std::allocator<int> const &>
;	.proc.def	D:J(J)

; Function Header:
; max stack depth = 1
; function size = 4 bytes
; local varsig tk = 0x11000041 
; Exception Information:
; 0 handlers, each consisting of filtered handlers

;	.formal.i8 0,"_Arg$" SIG: Optional C Binding Modifier(token:0x89602B1).ptr.Optional C Binding Modifier(token:0x89602B4).valueType (token:0x89602B6)
;	.local.i8 0,"$T2" SIG: Optional C Binding Modifier(token:0x8712C41).ptr.Optional C Binding Modifier(token:0x8712C44).valueType (token:0x8712C46)

;	.proc.beg

; 1455 :     return static_cast<_Ty&&>(_Arg);

	ldarg.0				; _Arg$
	stloc.0				; $T2

; 1456 : }

	ldloc.0				; $T2
	ret		
 .end ??$forward@AEBV?$allocator@H@std@@@std@@$$FYAAEBV?$allocator@H@0@AEBV10@@Z ; std::forward<std::allocator<int> const &>
;	.proc.end.i8
	.bss
.local	$T1,0
; Function compile flags: /Odtp
; File C:\Program Files (x86)\Microsoft Visual Studio\2019\Enterprise\VC\Tools\MSVC\14.27.29110\include\xutility
	.text
	.comdat	any, ??$distance@PEAH@std@@$$FYA_JPEAH0@Z
.global	??$distance@PEAH@std@@$$FYA_JPEAH0@Z		; std::distance<int *>
??$distance@PEAH@std@@$$FYA_JPEAH0@Z:			; std::distance<int *>
;	.proc.def	D:J(JJ)

; Function Header:
; max stack depth = 2
; function size = 8 bytes
; local varsig tk = 0x11000007 
; Exception Information:
; 0 handlers, each consisting of filtered handlers

;	.formal.i8 0,"_First$" SIG: ptr.i4
;	.formal.i8 1,"_Last$" SIG: ptr.i4
;	.local.i8 0,"$T2" SIG: i8

;	.proc.beg

; 1723 :     if constexpr (_Is_random_iter_v<_InIt>) {
; 1724 :         return _Last - _First; // assume the iterator will do debug checking

	ldarg.1				; _Last$
	ldarg.0				; _First$
	sub		
	ldc.i.2		2		; i32 0x2
	shr		
	stloc.0				; $T2

; 1725 :     } else {
; 1726 :         _Adl_verify_range(_First, _Last);
; 1727 :         auto _UFirst             = _Get_unwrapped(_First);
; 1728 :         const auto _ULast        = _Get_unwrapped(_Last);
; 1729 :         _Iter_diff_t<_InIt> _Off = 0;
; 1730 :         for (; _UFirst != _ULast; ++_UFirst) {
; 1731 :             ++_Off;
; 1732 :         }
; 1733 : 
; 1734 :         return _Off;
; 1735 :     }
; 1736 : }

	ldloc.0				; $T2
	ret		
 .end ??$distance@PEAH@std@@$$FYA_JPEAH0@Z		; std::distance<int *>
;	.proc.end.i8
.global	
	.bss
.local	,4
.local	$T1,0
; Function compile flags: /Odtp
; File C:\Program Files (x86)\Microsoft Visual Studio\2019\Enterprise\VC\Tools\MSVC\14.27.29110\include\xstddef
	.text
	.comdat	any, ??$addressof@U_Container_proxy@std@@@std@@$$FYAPEAU_Container_proxy@0@AEAU10@@Z
.global	??$addressof@U_Container_proxy@std@@@std@@$$FYAPEAU_Container_proxy@0@AEAU10@@Z ; std::addressof<std::_Container_proxy>
??$addressof@U_Container_proxy@std@@@std@@$$FYAPEAU_Container_proxy@0@AEAU10@@Z: ; std::addressof<std::_Container_proxy>
;	.proc.def	D:J(J)

; Function Header:
; max stack depth = 1
; function size = 4 bytes
; local varsig tk = 0x11000037 
; Exception Information:
; 0 handlers, each consisting of filtered handlers

;	.formal.i8 0,"_Val$" SIG: Optional C Binding Modifier(token:0x86F4E71).ptr.valueType (token:0x86F4E74)
;	.local.i8 0,"$T2" SIG: ptr.valueType (token:0x871450A)

;	.proc.beg

; 275  :     return __builtin_addressof(_Val);

	ldarg.0				; _Val$
	stloc.0				; $T2

; 276  : }

	ldloc.0				; $T2
	ret		
 .end ??$addressof@U_Container_proxy@std@@@std@@$$FYAPEAU_Container_proxy@0@AEAU10@@Z ; std::addressof<std::_Container_proxy>
;	.proc.end.i8
.global	
	.bss
.local	,4
.local	$T1,0
; Function compile flags: /Odtp
; File C:\Program Files (x86)\Microsoft Visual Studio\2019\Enterprise\VC\Tools\MSVC\14.27.29110\include\type_traits
	.text
	.comdat	any, ??$forward@PEAU_Container_base12@std@@@std@@$$FYA$$QEAPEAU_Container_base12@0@AEAPEAU10@@Z
.global	??$forward@PEAU_Container_base12@std@@@std@@$$FYA$$QEAPEAU_Container_base12@0@AEAPEAU10@@Z ; std::forward<std::_Container_base12 *>
??$forward@PEAU_Container_base12@std@@@std@@$$FYA$$QEAPEAU_Container_base12@0@AEAPEAU10@@Z: ; std::forward<std::_Container_base12 *>
;	.proc.def	D:J(J)

; Function Header:
; max stack depth = 1
; function size = 4 bytes
; local varsig tk = 0x11000044 
; Exception Information:
; 0 handlers, each consisting of filtered handlers

;	.formal.i8 0,"_Arg$" SIG: Optional C Binding Modifier(token:0x895D611).ptr.ptr.valueType (token:0x895D615)
;	.local.i8 0,"$T2" SIG: Optional C Binding Modifier(token:0x8714DB9).Optional C Binding Modifier(token:0x8714DBB).ptr.ptr.valueType (token:0x8714DBF)

;	.proc.beg

; 1455 :     return static_cast<_Ty&&>(_Arg);

	ldarg.0				; _Arg$
	stloc.0				; $T2

; 1456 : }

	ldloc.0				; $T2
	ret		
 .end ??$forward@PEAU_Container_base12@std@@@std@@$$FYA$$QEAPEAU_Container_base12@0@AEAPEAU10@@Z ; std::forward<std::_Container_base12 *>
;	.proc.end.i8
.global	
	.bss
.local	,4
.local	$T1,0
; Function compile flags: /Odtp
; File C:\Program Files (x86)\Microsoft Visual Studio\2019\Enterprise\VC\Tools\MSVC\14.27.29110\include\xmemory
	.text
	.comdat	any, ??$_Allocate_manually_vector_aligned@U_Default_allocate_traits@std@@@std@@$$FYAPEAX_K@Z
.global	??$_Allocate_manually_vector_aligned@U_Default_allocate_traits@std@@@std@@$$FYAPEAX_K@Z ; std::_Allocate_manually_vector_aligned<std::_Default_allocate_traits>
??$_Allocate_manually_vector_aligned@U_Default_allocate_traits@std@@@std@@$$FYAPEAX_K@Z: ; std::_Allocate_manually_vector_aligned<std::_Default_allocate_traits>
;	.proc.def	D:J(J)

; Function Header:
; max stack depth = 7
; function size = 146 bytes
; local varsig tk = 0x11000046 
; Exception Information:
; 0 handlers, each consisting of filtered handlers

;	.formal.u8 0,"_Bytes$" SIG: Optional C Binding Modifier(token:0x8960891).u8
;	.local.i8 0,"_Ptr$" SIG: Optional C Binding Modifier(token:0x895F6C1).Optional C Binding Modifier(token:0x895F6C3).ptr.void
;	.local.u8 1,"_Ptr_container$" SIG: Optional C Binding Modifier(token:0x8960891).u8
;	.local.u8 2,"_Block_size$" SIG: Optional C Binding Modifier(token:0x8960891).u8
;	.local.i8 3,"$T2" SIG: ptr.void

;	.proc.beg

; 114  :     // allocate _Bytes manually aligned to at least _Big_allocation_alignment
; 115  :     const size_t _Block_size = _Non_user_size + _Bytes;

	ldarg.0				; _Bytes$
	ldc.i4.s	47		; u64 0x2f
	conv.i8		
	add		
	stloc.2				; _Block_size$

; 116  :     if (_Block_size <= _Bytes) {

	ldloc.2				; _Block_size$
	ldarg.0				; _Bytes$
	bgt.un.s	$LN8@Allocate_m

; 117  :         _Throw_bad_array_new_length(); // add overflow

	call		?_Throw_bad_array_new_length@std@@$$FYAXXZ
$LN8@Allocate_m:

; 118  :     }
; 119  : 
; 120  :     const uintptr_t _Ptr_container = reinterpret_cast<uintptr_t>(_Traits::_Allocate(_Block_size));

	ldloc.2				; _Block_size$
	call		?_Allocate@_Default_allocate_traits@std@@$$FSAPEAX_K@Z
	stloc.1				; _Ptr_container$
$LN4@Allocate_m:

; 121  :     _STL_VERIFY(_Ptr_container != 0, "invalid argument"); // validate even in release since we're doing p[-1]

	ldloc.1				; _Ptr_container$
	brfalse.s	$LN7@Allocate_m
	br.s		$LN2@Allocate_m
$LN7@Allocate_m:
	ldc.i.1		1		; i32 0x1
	ldc.i.2		2		; i32 0x2
	ldsflda		$SG39125
	ldc.i4.s	121		; i32 0x79
	ldc.i.0		0		; i64 0x0
	conv.i8		
	ldsflda		$SG39124
	ldsflda		$SG39123
	call		?_CrtDbgReport@@$$J0YAHHPEBDH00ZZ
	bne.un.s	$LN12@Allocate_m
	break		
$LN12@Allocate_m:
	ldsflda		$SG39128
	ldsflda		$SG39127
	ldsflda		$SG39126
	ldc.i4.s	121		; u32 0x79
	ldc.i.0		0		; u64 0x0
	conv.i8		
	call		?_invalid_parameter@@$$J0YAXPEB_W00I_K@Z
	ldc.i.0		0		; i32 0x0
	brtrue.s	$LN7@Allocate_m
$LN2@Allocate_m:
	ldc.i.0		0		; i32 0x0
	brtrue.s	$LN4@Allocate_m

; 122  :     void* const _Ptr = reinterpret_cast<void*>((_Ptr_container + _Non_user_size) & ~(_Big_allocation_alignment - 1));

	ldloc.1				; _Ptr_container$
	ldc.i4.s	47		; u64 0x2f
	conv.i8		
	add		
	ldc.i8		18446744073709551584 ; u64 0xffffffffffffffe0
	and		
	stloc.0				; _Ptr$

; 123  :     static_cast<uintptr_t*>(_Ptr)[-1] = _Ptr_container;

	ldloc.0				; _Ptr$
	ldc.i.8		8		; i64 0x8
	conv.i8		
	ldc.i8		-1		; i64 0xffffffffffffffff
	mul		
	add		
	ldloc.1				; _Ptr_container$
	stind.i8	

; 124  : 
; 125  : #ifdef _DEBUG
; 126  :     static_cast<uintptr_t*>(_Ptr)[-2] = _Big_allocation_sentinel;

	ldloc.0				; _Ptr$
	ldc.i.8		8		; i64 0x8
	conv.i8		
	ldc.i8		-2		; i64 0xfffffffffffffffe
	mul		
	add		
	ldc.i8		18085043209519168250 ; u64 0xfafafafafafafafa
	stind.i8	

; 127  : #endif // _DEBUG
; 128  :     return _Ptr;

	ldloc.0				; _Ptr$
	stloc.3				; $T2

; 129  : }

	ldloc.3				; $T2
	ret		
 .end ??$_Allocate_manually_vector_aligned@U_Default_allocate_traits@std@@@std@@$$FYAPEAX_K@Z ; std::_Allocate_manually_vector_aligned<std::_Default_allocate_traits>
;	.proc.end.i8
.global	
	.bss
.local	,4
.local	$T1,0
; Function compile flags: /Odtp
; File C:\Program Files (x86)\Microsoft Visual Studio\2019\Enterprise\VC\Tools\MSVC\14.27.29110\include\utility
	.text
	.comdat	any, ??$min@_K@std@@$$FYAAEB_KAEB_K0@Z
.global	??$min@_K@std@@$$FYAAEB_KAEB_K0@Z		; std::min<unsigned __int64>
??$min@_K@std@@$$FYAAEB_KAEB_K0@Z:			; std::min<unsigned __int64>
;	.proc.def	D:J(JJ)

; Function Header:
; max stack depth = 2
; function size = 13 bytes
; local varsig tk = 0x11000048 
; Exception Information:
; 0 handlers, each consisting of filtered handlers

;	.formal.i8 0,"_Left$" SIG: Optional C Binding Modifier(token:0x8700391).ptr.Optional C Binding Modifier(token:0x8700394).u8
;	.formal.i8 1,"_Right$" SIG: Optional C Binding Modifier(token:0x8700391).ptr.Optional C Binding Modifier(token:0x8700394).u8
;	.local.i8 0,"$T2" SIG: Optional C Binding Modifier(token:0x8715F41).ptr.Optional C Binding Modifier(token:0x8715F44).u8

;	.proc.beg

; 68   :     // return smaller of _Left and _Right
; 69   :     return _Right < _Left ? _Right : _Left;

	ldarg.1				; _Right$
	ldind.i8	
	ldarg.0				; _Left$
	ldind.i8	
	bge.un.s	$LN3@min
	ldarg.1				; _Right$
	br.s		$LN4@min
$LN3@min:
	ldarg.0				; _Left$
$LN4@min:
	stloc.0				; $T2

; 70   : }

	ldloc.0				; $T2
	ret		
 .end ??$min@_K@std@@$$FYAAEB_KAEB_K0@Z			; std::min<unsigned __int64>
;	.proc.end.i8
	.bss
.local	$T1,0
; Function compile flags: /Odtp
; File C:\Program Files (x86)\Microsoft Visual Studio\2019\Enterprise\VC\Tools\MSVC\14.27.29110\include\xmemory
	.text
	.comdat	any, ??$_Get_size_of_n@$03@std@@$$FYA_K_K@Z
.global	??$_Get_size_of_n@$03@std@@$$FYA_K_K@Z		; std::_Get_size_of_n<4>
??$_Get_size_of_n@$03@std@@$$FYA_K_K@Z:			; std::_Get_size_of_n<4>
;	.proc.def	D:J(J)

; Function Header:
; max stack depth = 2
; function size = 36 bytes
; local varsig tk = 0x1100003C 
; Exception Information:
; 0 handlers, each consisting of filtered handlers

;	.formal.u8 0,"_Count$" SIG: Optional C Binding Modifier(token:0x8960891).u8
;	.local.u8 0,"$T2" SIG: u8
;	.local.u8 1,"_Max_possible$3" SIG: Optional C Binding Modifier(token:0x8960891).u8
;	.local.u1 2,"_Overflow_is_possible$" SIG: Optional C Binding Modifier(token:0x8958861).bool

;	.proc.beg

; 56   :     constexpr bool _Overflow_is_possible = _Ty_size > 1;

	ldc.i.1		1		; u8 0x1
	stloc.2				; _Overflow_is_possible$

; 57   : 
; 58   :     if _CONSTEXPR_IF (_Overflow_is_possible) {
; 59   :         constexpr size_t _Max_possible = static_cast<size_t>(-1) / _Ty_size;

	ldc.i8		4611686018427387903 ; u64 0x3fffffffffffffff
	stloc.1				; _Max_possible$3

; 60   :         if (_Count > _Max_possible) {

	ldarg.0				; _Count$
	ldc.i8		4611686018427387903 ; u64 0x3fffffffffffffff
	ble.un.s	$LN2@Get_size_o

; 61   :             _Throw_bad_array_new_length(); // multiply overflow

	call		?_Throw_bad_array_new_length@std@@$$FYAXXZ
$LN2@Get_size_o:

; 62   :         }
; 63   :     }
; 64   : 
; 65   :     return _Count * _Ty_size;

	ldarg.0				; _Count$
	ldc.i.4		4		; u64 0x4
	conv.i8		
	mul		
	stloc.0				; $T2

; 66   : }

	ldloc.0				; $T2
	ret		
 .end ??$_Get_size_of_n@$03@std@@$$FYA_K_K@Z		; std::_Get_size_of_n<4>
;	.proc.end.u8
.global	
	.bss
.local	,4
.local	$T1,0
; Function compile flags: /Odtp
; File C:\Program Files (x86)\Microsoft Visual Studio\2019\Enterprise\VC\Tools\MSVC\14.27.29110\include\xutility
	.text
	.comdat	any, ??$_Get_unwrapped@AEBQEAH@std@@$$FYAPEAHAEBQEAH@Z
.global	??$_Get_unwrapped@AEBQEAH@std@@$$FYAPEAHAEBQEAH@Z ; std::_Get_unwrapped<int * const &>
??$_Get_unwrapped@AEBQEAH@std@@$$FYAPEAHAEBQEAH@Z:	; std::_Get_unwrapped<int * const &>
;	.proc.def	D:J(J)

; Function Header:
; max stack depth = 1
; function size = 5 bytes
; local varsig tk = 0x1100003A 
; Exception Information:
; 0 handlers, each consisting of filtered handlers

;	.formal.i8 0,"_It$" SIG: Optional C Binding Modifier(token:0x86D9A99).ptr.Optional C Binding Modifier(token:0x86D9A9C).Optional C Binding Modifier(token:0x86D9A9E).ptr.i4
;	.local.i8 0,"$T2" SIG: ptr.i4

;	.proc.beg

; 1230 :     // unwrap an iterator previously subjected to _Adl_verify_range or otherwise validated
; 1231 :     if constexpr (is_pointer_v<decay_t<_Iter>>) { // special-case pointers and arrays
; 1232 :         return _It + 0;

	ldarg.0				; _It$
	ldind.i8	
	stloc.0				; $T2

; 1233 :     } else if constexpr (_Unwrappable_v<_Iter>) {
; 1234 :         return static_cast<_Iter&&>(_It)._Unwrapped();
; 1235 :     } else {
; 1236 :         return static_cast<_Iter&&>(_It);
; 1237 :     }
; 1238 : }

	ldloc.0				; $T2
	ret		
 .end ??$_Get_unwrapped@AEBQEAH@std@@$$FYAPEAHAEBQEAH@Z	; std::_Get_unwrapped<int * const &>
;	.proc.end.i8
.global	
	.bss
.local	,4
.local	$T1,0
; Function compile flags: /Odtp
; File C:\Program Files (x86)\Microsoft Visual Studio\2019\Enterprise\VC\Tools\MSVC\14.27.29110\include\xutility
	.text
	.comdat	any, ??$_Copy_memmove@PEAHPEAH@std@@$$FYAPEAHPEAH00@Z
.global	??$_Copy_memmove@PEAHPEAH@std@@$$FYAPEAHPEAH00@Z ; std::_Copy_memmove<int *,int *>
??$_Copy_memmove@PEAHPEAH@std@@$$FYAPEAHPEAH00@Z:	; std::_Copy_memmove<int *,int *>
;	.proc.def	D:J(JJJ)

; Function Header:
; max stack depth = 3
; function size = 27 bytes
; local varsig tk = 0x1100004B 
; Exception Information:
; 0 handlers, each consisting of filtered handlers

;	.formal.i8 0,"_First$" SIG: ptr.i4
;	.formal.i8 1,"_Last$" SIG: ptr.i4
;	.formal.i8 2,"_Dest$" SIG: ptr.i4
;	.local.u8 0,"_Count$" SIG: Optional C Binding Modifier(token:0x8960891).u8
;	.local.i8 1,"_Dest_ch$" SIG: Optional C Binding Modifier(token:0x81D0F39).Optional C Binding Modifier(token:0x81D0F3B).ptr.Optional C Binding Modifier(token:0x81D0F3E).i1
;	.local.i8 2,"_First_ch$" SIG: Optional C Binding Modifier(token:0x895D889).Optional C Binding Modifier(token:0x895D88B).ptr.Optional C Binding Modifier(token:0x895D88E).Optional C Binding Modifier(token:0x895D890).i1
;	.local.i8 3,"$T2" SIG: ptr.i4
;	.local.i8 4,"_Last_ch$" SIG: Optional C Binding Modifier(token:0x895D889).Optional C Binding Modifier(token:0x895D88B).ptr.Optional C Binding Modifier(token:0x895D88E).Optional C Binding Modifier(token:0x895D890).i1

;	.proc.beg

; 4114 :     const char* const _First_ch = const_cast<const char*>(reinterpret_cast<const volatile char*>(_First));

	ldarg.0				; _First$
	stloc.2				; _First_ch$

; 4115 :     const char* const _Last_ch  = const_cast<const char*>(reinterpret_cast<const volatile char*>(_Last));

	ldarg.1				; _Last$
	stloc.s		4		; _Last_ch$

; 4116 :     char* const _Dest_ch        = const_cast<char*>(reinterpret_cast<volatile char*>(_Dest));

	ldarg.2				; _Dest$
	stloc.1				; _Dest_ch$

; 4117 :     const auto _Count           = static_cast<size_t>(_Last_ch - _First_ch);

	ldloc.s		4		; _Last_ch$
	ldloc.2				; _First_ch$
	sub		
	stloc.0				; _Count$

; 4118 :     _CSTD memmove(_Dest_ch, _First_ch, _Count);

	ldloc.1				; _Dest_ch$
	ldloc.2				; _First_ch$
	ldloc.0				; _Count$
	call		?memmove@@$$J0YAPEAXPEAXPEBX_K@Z
	pop		

; 4119 :     return reinterpret_cast<_OutIt>(_Dest_ch + _Count);

	ldloc.1				; _Dest_ch$
	ldloc.0				; _Count$
	add		
	stloc.3				; $T2

; 4120 : }

	ldloc.3				; $T2
	ret		
 .end ??$_Copy_memmove@PEAHPEAH@std@@$$FYAPEAHPEAH00@Z	; std::_Copy_memmove<int *,int *>
;	.proc.end.i8
	.bss
.local	$T1,0
; Function compile flags: /Odtp
; File C:\Program Files (x86)\Microsoft Visual Studio\2019\Enterprise\VC\Tools\MSVC\14.27.29110\include\xmemory
	.text
	.comdat	any, ??1_Iterator_base12@std@@$$FQEAA@XZ
.global	??1_Iterator_base12@std@@$$FQEAA@XZ		; std::_Iterator_base12::~_Iterator_base12
??1_Iterator_base12@std@@$$FQEAA@XZ:			; std::_Iterator_base12::~_Iterator_base12
;	.proc.def	D:V(J)

; Function Header:
; max stack depth = 2
; function size = 39 bytes
; local varsig tk = 0x1100004C 
; Exception Information:
; 1 handlers, each consisting of filtered handlers

;	.formal.i8 0,"this$" SIG: Optional C Binding Modifier(token:0x895FAF1).Optional C Binding Modifier(token:0x895FAF3).ptr.valueType (token:0x895FAF6)
;	.local.mb4   0,"_Lock$" SIG: valueType (token:0x89526D9)

;	.proc.beg

; 1145 : #if _ITERATOR_DEBUG_LEVEL == 2
; 1146 :         _Lockit _Lock(_LOCK_DEBUG);

	ldloca.s	0		; _Lock$
	ldc.i.3		3		; i32 0x3
	call		??0_Lockit@std@@$$FQEAA@H@Z
	pop		
$LN4@Iterator_b:

; 1147 :         _Orphan_me();

	ldarg.0				; this$
	call		?_Orphan_me@_Iterator_base12@std@@$$FQEAAXXZ
	leave.s		$LN5@Iterator_b
$LN6@Iterator_b:
	ldftn		??1_Lockit@std@@$$FQEAA@XZ
	ldloca.s	0		; _Lock$
	call		?___CxxCallUnwindDtor@@$$J0YMXP6MXPEAX@Z0@Z
	endfinally	
$LN5@Iterator_b:

; 1148 : #endif // _ITERATOR_DEBUG_LEVEL == 2
; 1149 :     }

	ldloca.s	0		; _Lock$
	call		??1_Lockit@std@@$$FQEAA@XZ
	ret		
 .end ??1_Iterator_base12@std@@$$FQEAA@XZ		; std::_Iterator_base12::~_Iterator_base12
;	.proc.end.void
.global	
	.bss
.local	,4
.local	$T1,0
; Function compile flags: /Odtp
; File C:\Program Files (x86)\Microsoft Visual Studio\2019\Enterprise\VC\Tools\MSVC\14.27.29110\include\xmemory
	.text
	.comdat	any, ?_Adopt@_Iterator_base12@std@@$$FQEAAXPEBU_Container_base12@2@@Z
.global	?_Adopt@_Iterator_base12@std@@$$FQEAAXPEBU_Container_base12@2@@Z ; std::_Iterator_base12::_Adopt
?_Adopt@_Iterator_base12@std@@$$FQEAAXPEBU_Container_base12@2@@Z: ; std::_Iterator_base12::_Adopt
;	.proc.def	D:V(JJ)

; Function Header:
; max stack depth = 3
; function size = 109 bytes
; local varsig tk = 0x1100004E 
; Exception Information:
; 2 handlers, each consisting of filtered handlers

;	.formal.i8 0,"this$" SIG: Optional C Binding Modifier(token:0x895FAF1).Optional C Binding Modifier(token:0x895FAF3).ptr.valueType (token:0x895FAF6)
;	.formal.i8 1,"_Parent$" SIG: ptr.Optional C Binding Modifier(token:0x87011DA).valueType (token:0x87011DC)
;	.local.i8 0,"_Parent_proxy$2" SIG: ptr.valueType (token:0x896053A)
;	.local.mb4   1,"_Lock$3" SIG: valueType (token:0x89526D9)
;	.local.mb4   2,"_Lock$4" SIG: valueType (token:0x89526D9)

;	.proc.beg

; 1152 :         if (_Parent) {

	ldarg.1				; _Parent$
	brfalse.s	$LN2@Adopt

; 1153 :             // have a parent, do adoption
; 1154 :             _Container_proxy* _Parent_proxy = _Parent->_Myproxy;

	ldarg.1				; _Parent$
	ldind.i8	
	stloc.0				; _Parent_proxy$2

; 1155 : 
; 1156 : #if _ITERATOR_DEBUG_LEVEL == 2
; 1157 :             if (_Myproxy != _Parent_proxy) { // change parentage

	ldarg.0				; this$
	ldind.i8	
	ldloc.0				; _Parent_proxy$2
	beq.s		$LN4@Adopt

; 1158 :                 _Lockit _Lock(_LOCK_DEBUG);

	ldloca.s	2		; _Lock$4
	ldc.i.3		3		; i32 0x3
	call		??0_Lockit@std@@$$FQEAA@H@Z
	pop		
$LN8@Adopt:

; 1159 :                 _Orphan_me();

	ldarg.0				; this$
	call		?_Orphan_me@_Iterator_base12@std@@$$FQEAAXXZ

; 1160 :                 _Mynextiter                 = _Parent_proxy->_Myfirstiter;

	ldarg.0				; this$
	ldc.i.8		8		; i64 0x8
	conv.i8		
	add		
	ldloc.0				; _Parent_proxy$2
	ldc.i.8		8		; i64 0x8
	conv.i8		
	add		
	ldind.i8	
	stind.i8	

; 1161 :                 _Parent_proxy->_Myfirstiter = this;

	ldloc.0				; _Parent_proxy$2
	ldc.i.8		8		; i64 0x8
	conv.i8		
	add		
	ldarg.0				; this$
	stind.i8	

; 1162 :                 _Myproxy                    = _Parent_proxy;

	ldarg.0				; this$
	ldloc.0				; _Parent_proxy$2
	stind.i8	
	leave.s		$LN9@Adopt
$LN10@Adopt:
	ldftn		??1_Lockit@std@@$$FQEAA@XZ
	ldloca.s	2		; _Lock$4
	call		?___CxxCallUnwindDtor@@$$J0YMXP6MXPEAX@Z0@Z
	endfinally	
$LN9@Adopt:

; 1163 :             }

	ldloca.s	2		; _Lock$4
	call		??1_Lockit@std@@$$FQEAA@XZ
$LN4@Adopt:

; 1164 : 
; 1165 : #else // _ITERATOR_DEBUG_LEVEL == 2
; 1166 :             _Myproxy = _Parent_proxy;
; 1167 : #endif // _ITERATOR_DEBUG_LEVEL == 2
; 1168 :         } else {

	br.s		$LN1@Adopt
$LN2@Adopt:

; 1169 :             // no future parent, just disown current parent
; 1170 : #if _ITERATOR_DEBUG_LEVEL == 2
; 1171 :             _Lockit _Lock(_LOCK_DEBUG);

	ldloca.s	1		; _Lock$3
	ldc.i.3		3		; i32 0x3
	call		??0_Lockit@std@@$$FQEAA@H@Z
	pop		
$LN11@Adopt:

; 1172 :             _Orphan_me();

	ldarg.0				; this$
	call		?_Orphan_me@_Iterator_base12@std@@$$FQEAAXXZ
	leave.s		$LN12@Adopt
$LN13@Adopt:
	ldftn		??1_Lockit@std@@$$FQEAA@XZ
	ldloca.s	1		; _Lock$3
	call		?___CxxCallUnwindDtor@@$$J0YMXP6MXPEAX@Z0@Z
	endfinally	
$LN12@Adopt:

; 1173 : #else // _ITERATOR_DEBUG_LEVEL == 2
; 1174 :             _Myproxy = nullptr;
; 1175 : #endif // _ITERATOR_DEBUG_LEVEL == 2
; 1176 :         }

	ldloca.s	1		; _Lock$3
	call		??1_Lockit@std@@$$FQEAA@XZ
$LN1@Adopt:

; 1177 :     }

	ret		
 .end ?_Adopt@_Iterator_base12@std@@$$FQEAAXPEBU_Container_base12@2@@Z ; std::_Iterator_base12::_Adopt
;	.proc.end.void
.global	
	.bss
.local	,4
; Function compile flags: /Odtp
	.text
	.comdat	any, ??1?$_Vector_const_iterator@V?$_Vector_val@U?$_Simple_types@H@std@@@std@@@std@@$$FQEAA@XZ
.global	??1?$_Vector_const_iterator@V?$_Vector_val@U?$_Simple_types@H@std@@@std@@@std@@$$FQEAA@XZ ; std::_Vector_const_iterator<std::_Vector_val<std::_Simple_types<int> > >::~_Vector_const_iterator<std::_Vector_val<std::_Simple_types<int> > >
??1?$_Vector_const_iterator@V?$_Vector_val@U?$_Simple_types@H@std@@@std@@@std@@$$FQEAA@XZ: ; std::_Vector_const_iterator<std::_Vector_val<std::_Simple_types<int> > >::~_Vector_const_iterator<std::_Vector_val<std::_Simple_types<int> > >
;	.proc.def	D:V(J)

; Function Header:
; max stack depth = 1
; function size = 7 bytes
; local varsig tk = 0x0 
; Exception Information:
; 0 handlers, each consisting of filtered handlers

;	.formal.i8 0,"this$" SIG: Optional C Binding Modifier(token:0x86FF5A9).Optional C Binding Modifier(token:0x86FF5AB).ptr.valueType (token:0x86FF5AE)

;	.proc.beg
	ldarg.0				; this$
	call		??1_Iterator_base12@std@@$$FQEAA@XZ
	ret		
 .end ??1?$_Vector_const_iterator@V?$_Vector_val@U?$_Simple_types@H@std@@@std@@@std@@$$FQEAA@XZ ; std::_Vector_const_iterator<std::_Vector_val<std::_Simple_types<int> > >::~_Vector_const_iterator<std::_Vector_val<std::_Simple_types<int> > >
;	.proc.end.void
.global	
	.bss
.local	,4
.local	$T1,0
; Function compile flags: /Odtp
; File C:\Program Files (x86)\Microsoft Visual Studio\2019\Enterprise\VC\Tools\MSVC\14.27.29110\include\vector
	.text
	.comdat	any, ?at@?$vector@HV?$allocator@H@std@@@std@@$$FQEAAAEAH_K@Z
.global	?at@?$vector@HV?$allocator@H@std@@@std@@$$FQEAAAEAH_K@Z ; std::vector<int,std::allocator<int> >::at
?at@?$vector@HV?$allocator@H@std@@@std@@$$FQEAAAEAH_K@Z: ; std::vector<int,std::allocator<int> >::at
;	.proc.def	D:J(JJ)

; Function Header:
; max stack depth = 3
; function size = 37 bytes
; local varsig tk = 0x11000051 
; Exception Information:
; 0 handlers, each consisting of filtered handlers

;	.formal.i8 0,"this$" SIG: Optional C Binding Modifier(token:0x8952BD1).Optional C Binding Modifier(token:0x8952BD3).ptr.valueType (token:0x8952BD6)
;	.formal.u8 1,"_Pos$" SIG: Optional C Binding Modifier(token:0x8960891).u8
;	.local.i8 0,"_My_data$" SIG: Optional C Binding Modifier(token:0x86FBBB9).ptr.valueType (token:0x86FBBBC)
;	.local.i8 1,"$T2" SIG: Optional C Binding Modifier(token:0x88D1E41).ptr.i4

;	.proc.beg

; 1518 :         auto& _My_data = _Mypair._Myval2;

	ldarg.0				; this$
	stloc.0				; _My_data$

; 1519 :         if (static_cast<size_type>(_My_data._Mylast - _My_data._Myfirst) <= _Pos) {

	ldloc.0				; _My_data$
	ldc.i4.s	16		; i64 0x10
	conv.i8		
	add		
	ldind.i8	
	ldloc.0				; _My_data$
	ldc.i.8		8		; i64 0x8
	conv.i8		
	add		
	ldind.i8	
	sub		
	ldc.i.2		2		; i32 0x2
	shr		
	ldarg.1				; _Pos$
	bgt.un.s	$LN2@at

; 1520 :             _Xrange();

	call		?_Xrange@?$vector@HV?$allocator@H@std@@@std@@$$FCAXXZ
$LN2@at:

; 1521 :         }
; 1522 : 
; 1523 :         return _My_data._Myfirst[_Pos];

	ldloc.0				; _My_data$
	ldc.i.8		8		; i64 0x8
	conv.i8		
	add		
	ldind.i8	
	ldarg.1				; _Pos$
	ldc.i.4		4		; u64 0x4
	conv.i8		
	mul		
	add		
	stloc.1				; $T2

; 1524 :     }

	ldloc.1				; $T2
	ret		
 .end ?at@?$vector@HV?$allocator@H@std@@@std@@$$FQEAAAEAH_K@Z ; std::vector<int,std::allocator<int> >::at
;	.proc.end.i8
; Function compile flags: /Odtp
; File C:\Program Files (x86)\Microsoft Visual Studio\2019\Enterprise\VC\Tools\MSVC\14.27.29110\include\vector
	.text
	.comdat	any, ??0?$_Vector_const_iterator@V?$_Vector_val@U?$_Simple_types@H@std@@@std@@@std@@$$FQEAA@PEAHPEBU_Container_base12@1@@Z
.global	??0?$_Vector_const_iterator@V?$_Vector_val@U?$_Simple_types@H@std@@@std@@@std@@$$FQEAA@PEAHPEBU_Container_base12@1@@Z ; std::_Vector_const_iterator<std::_Vector_val<std::_Simple_types<int> > >::_Vector_const_iterator<std::_Vector_val<std::_Simple_types<int> > >
??0?$_Vector_const_iterator@V?$_Vector_val@U?$_Simple_types@H@std@@@std@@@std@@$$FQEAA@PEAHPEBU_Container_base12@1@@Z: ; std::_Vector_const_iterator<std::_Vector_val<std::_Simple_types<int> > >::_Vector_const_iterator<std::_Vector_val<std::_Simple_types<int> > >
;	.proc.def	D:J(JJJ)

; Function Header:
; max stack depth = 2
; function size = 38 bytes
; local varsig tk = 0x0 
; Exception Information:
; 1 handlers, each consisting of filtered handlers

;	.formal.i8 0,"this$" SIG: Optional C Binding Modifier(token:0x86FF5A9).Optional C Binding Modifier(token:0x86FF5AB).ptr.valueType (token:0x86FF5AE)
;	.formal.i8 1,"_Parg$" SIG: ptr.i4
;	.formal.i8 2,"_Pvector$" SIG: ptr.Optional C Binding Modifier(token:0x87011DA).valueType (token:0x87011DC)

;	.proc.beg

; 42   :     _Vector_const_iterator(_Tptr _Parg, const _Container_base* _Pvector) noexcept : _Ptr(_Parg) {

	ldarg.0				; this$
	call		??0_Iterator_base12@std@@$$FQEAA@XZ
	pop		
$LN4@Vector_con:
	ldarg.0				; this$
	ldc.i4.s	16		; i64 0x10
	conv.i8		
	add		
	ldarg.1				; _Parg$
	stind.i8	

; 43   :         this->_Adopt(_Pvector);

	ldarg.0				; this$
	ldarg.2				; _Pvector$
	call		?_Adopt@_Iterator_base12@std@@$$FQEAAXPEBU_Container_base12@2@@Z
	leave.s		$LN5@Vector_con
$LN6@Vector_con:
	ldftn		??1_Iterator_base12@std@@$$FQEAA@XZ
	ldarg.0				; this$
	call		?___CxxCallUnwindDtor@@$$J0YMXP6MXPEAX@Z0@Z
	endfinally	
$LN5@Vector_con:

; 44   :     }

	ldarg.0				; this$
	ret		
 .end ??0?$_Vector_const_iterator@V?$_Vector_val@U?$_Simple_types@H@std@@@std@@@std@@$$FQEAA@PEAHPEBU_Container_base12@1@@Z ; std::_Vector_const_iterator<std::_Vector_val<std::_Simple_types<int> > >::_Vector_const_iterator<std::_Vector_val<std::_Simple_types<int> > >
;	.proc.end.i8
	.bss
.local	$T1,0
; Function compile flags: /Odtp
; File C:\Program Files (x86)\Microsoft Visual Studio\2019\Enterprise\VC\Tools\MSVC\14.27.29110\include\vector
	.text
	.comdat	any, ?_Getal@?$vector@HV?$allocator@H@std@@@std@@$$FAEAAAEAV?$allocator@H@2@XZ
.global	?_Getal@?$vector@HV?$allocator@H@std@@@std@@$$FAEAAAEAV?$allocator@H@2@XZ ; std::vector<int,std::allocator<int> >::_Getal
?_Getal@?$vector@HV?$allocator@H@std@@@std@@$$FAEAAAEAV?$allocator@H@2@XZ: ; std::vector<int,std::allocator<int> >::_Getal
;	.proc.def	D:J(J)

; Function Header:
; max stack depth = 1
; function size = 9 bytes
; local varsig tk = 0x1100002B 
; Exception Information:
; 0 handlers, each consisting of filtered handlers

;	.formal.i8 0,"this$" SIG: Optional C Binding Modifier(token:0x8952BD1).Optional C Binding Modifier(token:0x8952BD3).ptr.valueType (token:0x8952BD6)
;	.local.i8 0,"$T2" SIG: Optional C Binding Modifier(token:0x88C6439).ptr.valueType (token:0x88C643C)

;	.proc.beg

; 1732 :         return _Mypair._Get_first();

	ldarg.0				; this$
	call		?_Get_first@?$_Compressed_pair@V?$allocator@H@std@@V?$_Vector_val@U?$_Simple_types@H@std@@@2@$00@std@@$$FQEAAAEAV?$allocator@H@2@XZ
	stloc.0				; $T2

; 1733 :     }

	ldloc.0				; $T2
	ret		
 .end ?_Getal@?$vector@HV?$allocator@H@std@@@std@@$$FAEAAAEAV?$allocator@H@2@XZ ; std::vector<int,std::allocator<int> >::_Getal
;	.proc.end.i8
; Function compile flags: /Odtp
; File C:\Program Files (x86)\Microsoft Visual Studio\2019\Enterprise\VC\Tools\MSVC\14.27.29110\include\vector
	.text
	.comdat	any, ?_Destroy@?$vector@HV?$allocator@H@std@@@std@@$$FAEAAXPEAH0@Z
.global	?_Destroy@?$vector@HV?$allocator@H@std@@@std@@$$FAEAAXPEAH0@Z ; std::vector<int,std::allocator<int> >::_Destroy
?_Destroy@?$vector@HV?$allocator@H@std@@@std@@$$FAEAAXPEAH0@Z: ; std::vector<int,std::allocator<int> >::_Destroy
;	.proc.def	D:V(JJJ)

; Function Header:
; max stack depth = 3
; function size = 14 bytes
; local varsig tk = 0x0 
; Exception Information:
; 0 handlers, each consisting of filtered handlers

;	.formal.i8 0,"this$" SIG: Optional C Binding Modifier(token:0x8952BD1).Optional C Binding Modifier(token:0x8952BD3).ptr.valueType (token:0x8952BD6)
;	.formal.i8 1,"_First$" SIG: ptr.i4
;	.formal.i8 2,"_Last$" SIG: ptr.i4

;	.proc.beg

; 1612 :         _Destroy_range(_First, _Last, _Getal());

	ldarg.1				; _First$
	ldarg.2				; _Last$
	ldarg.0				; this$
	call		?_Getal@?$vector@HV?$allocator@H@std@@@std@@$$FAEAAAEAV?$allocator@H@2@XZ
	call		??$_Destroy_range@V?$allocator@H@std@@@std@@$$FYAXPEAHQEAHAEAV?$allocator@H@0@@Z

; 1613 :     }

	ret		
 .end ?_Destroy@?$vector@HV?$allocator@H@std@@@std@@$$FAEAAXPEAH0@Z ; std::vector<int,std::allocator<int> >::_Destroy
;	.proc.end.void
; Function compile flags: /Odtp
; File C:\Program Files (x86)\Microsoft Visual Studio\2019\Enterprise\VC\Tools\MSVC\14.27.29110\include\xmemory
	.text
	.comdat	any, ?deallocate@?$allocator@H@std@@$$FQEAAXQEAH_K@Z
.global	?deallocate@?$allocator@H@std@@$$FQEAAXQEAH_K@Z	; std::allocator<int>::deallocate
?deallocate@?$allocator@H@std@@$$FQEAAXQEAH_K@Z:	; std::allocator<int>::deallocate
;	.proc.def	D:V(JJJ)

; Function Header:
; max stack depth = 3
; function size = 11 bytes
; local varsig tk = 0x0 
; Exception Information:
; 0 handlers, each consisting of filtered handlers

;	.formal.i8 1,"_Ptr$" SIG: Optional C Binding Modifier(token:0x8958639).Optional C Binding Modifier(token:0x895863B).ptr.i4
;	.formal.u8 2,"_Count$" SIG: Optional C Binding Modifier(token:0x8960891).u8

;	.proc.beg

; 802  :         // no overflow check on the following multiply; we assume _Allocate did that check
; 803  :         _Deallocate<_New_alignof<_Ty>>(_Ptr, sizeof(_Ty) * _Count);

	ldarg.1				; _Ptr$
	ldarg.2				; _Count$
	ldc.i.4		4		; u64 0x4
	conv.i8		
	mul		
	call		??$_Deallocate@$0BA@$0A@@std@@$$FYAXPEAX_K@Z

; 804  :     }

	ret		
 .end ?deallocate@?$allocator@H@std@@$$FQEAAXQEAH_K@Z	; std::allocator<int>::deallocate
;	.proc.end.void
.global	
	.bss
.local	,4
.local	$T1,0
; Function compile flags: /Odtp
; File C:\Program Files (x86)\Microsoft Visual Studio\2019\Enterprise\VC\Tools\MSVC\14.27.29110\include\vector
	.text
	.comdat	any, ?_Unwrapped@?$_Vector_iterator@V?$_Vector_val@U?$_Simple_types@H@std@@@std@@@std@@$$FQEBAPEAHXZ
.global	?_Unwrapped@?$_Vector_iterator@V?$_Vector_val@U?$_Simple_types@H@std@@@std@@@std@@$$FQEBAPEAHXZ ; std::_Vector_iterator<std::_Vector_val<std::_Simple_types<int> > >::_Unwrapped
?_Unwrapped@?$_Vector_iterator@V?$_Vector_val@U?$_Simple_types@H@std@@@std@@@std@@$$FQEBAPEAHXZ: ; std::_Vector_iterator<std::_Vector_val<std::_Simple_types<int> > >::_Unwrapped
;	.proc.def	D:J(J)

; Function Header:
; max stack depth = 2
; function size = 14 bytes
; local varsig tk = 0x1100003A 
; Exception Information:
; 0 handlers, each consisting of filtered handlers

;	.formal.i8 0,"this$" SIG: Optional C Binding Modifier(token:0x86D94F9).Optional C Binding Modifier(token:0x86D94FB).ptr.Optional C Binding Modifier(token:0x86D94FE).valueType (token:0x86D9500)
;	.local.i8 0,"$T2" SIG: ptr.i4

;	.proc.beg

; 310  :         return _Unfancy(this->_Ptr);

	ldarg.0				; this$
	ldc.i4.s	16		; i64 0x10
	conv.i8		
	add		
	ldind.i8	
	call		??$_Unfancy@H@std@@$$FYAPEAHPEAH@Z
	stloc.0				; $T2

; 311  :     }

	ldloc.0				; $T2
	ret		
 .end ?_Unwrapped@?$_Vector_iterator@V?$_Vector_val@U?$_Simple_types@H@std@@@std@@@std@@$$FQEBAPEAHXZ ; std::_Vector_iterator<std::_Vector_val<std::_Simple_types<int> > >::_Unwrapped
;	.proc.end.i8
.global	
	.bss
.local	,4
; Function compile flags: /Odtp
; File C:\Program Files (x86)\Microsoft Visual Studio\2019\Enterprise\VC\Tools\MSVC\14.27.29110\include\xmemory
	.text
	.comdat	any, ??$?0AEBV?$allocator@H@std@@$$V@?$_Compressed_pair@V?$allocator@H@std@@V?$_Vector_val@U?$_Simple_types@H@std@@@2@$00@std@@$$FQEAA@U_One_then_variadic_args_t@1@AEBV?$allocator@H@1@@Z
.global	??$?0AEBV?$allocator@H@std@@$$V@?$_Compressed_pair@V?$allocator@H@std@@V?$_Vector_val@U?$_Simple_types@H@std@@@2@$00@std@@$$FQEAA@U_One_then_variadic_args_t@1@AEBV?$allocator@H@1@@Z ; std::_Compressed_pair<std::allocator<int>,std::_Vector_val<std::_Simple_types<int> >,1>::_Compressed_pair<std::allocator<int>,std::_Vector_val<std::_Simple_types<int> >,1><std::allocator<int> const &>
??$?0AEBV?$allocator@H@std@@$$V@?$_Compressed_pair@V?$allocator@H@std@@V?$_Vector_val@U?$_Simple_types@H@std@@@2@$00@std@@$$FQEAA@U_One_then_variadic_args_t@1@AEBV?$allocator@H@1@@Z: ; std::_Compressed_pair<std::allocator<int>,std::_Vector_val<std::_Simple_types<int> >,1>::_Compressed_pair<std::allocator<int>,std::_Vector_val<std::_Simple_types<int> >,1><std::allocator<int> const &>
;	.proc.def	D:J(JM<4  >J)

; Function Header:
; max stack depth = 1
; function size = 16 bytes
; local varsig tk = 0x0 
; Exception Information:
; 0 handlers, each consisting of filtered handlers

;	.formal.i8 0,"this$" SIG: Optional C Binding Modifier(token:0x8952DF1).Optional C Binding Modifier(token:0x8952DF3).ptr.valueType (token:0x8952DF6)
;	.formal.i8 2,"_Val1$" SIG: Optional C Binding Modifier(token:0x89602B1).ptr.Optional C Binding Modifier(token:0x89602B4).valueType (token:0x89602B6)

;	.proc.beg

; 1341 :         : _Ty1(_STD forward<_Other1>(_Val1)), _Myval2(_STD forward<_Other2>(_Val2)...) {}

	ldarg.2				; _Val1$
	call		??$forward@AEBV?$allocator@H@std@@@std@@$$FYAAEBV?$allocator@H@0@AEBV10@@Z
	pop		
	ldarg.0				; this$
	call		??0?$_Vector_val@U?$_Simple_types@H@std@@@std@@$$FQEAA@XZ
	pop		
	ldarg.0				; this$
	ret		
 .end ??$?0AEBV?$allocator@H@std@@$$V@?$_Compressed_pair@V?$allocator@H@std@@V?$_Vector_val@U?$_Simple_types@H@std@@@2@$00@std@@$$FQEAA@U_One_then_variadic_args_t@1@AEBV?$allocator@H@1@@Z ; std::_Compressed_pair<std::allocator<int>,std::_Vector_val<std::_Simple_types<int> >,1>::_Compressed_pair<std::allocator<int>,std::_Vector_val<std::_Simple_types<int> >,1><std::allocator<int> const &>
;	.proc.end.i8
.global	
	.bss
.local	,4
; Function compile flags: /Odtp
; File C:\Program Files (x86)\Microsoft Visual Studio\2019\Enterprise\VC\Tools\MSVC\14.27.29110\include\xutility
	.text
	.comdat	any, ??$_Adl_verify_range@V?$_Vector_iterator@V?$_Vector_val@U?$_Simple_types@H@std@@@std@@@std@@V12@@std@@$$FYAXAEBV?$_Vector_iterator@V?$_Vector_val@U?$_Simple_types@H@std@@@std@@@0@0@Z
.global	??$_Adl_verify_range@V?$_Vector_iterator@V?$_Vector_val@U?$_Simple_types@H@std@@@std@@@std@@V12@@std@@$$FYAXAEBV?$_Vector_iterator@V?$_Vector_val@U?$_Simple_types@H@std@@@std@@@0@0@Z ; std::_Adl_verify_range<std::_Vector_iterator<std::_Vector_val<std::_Simple_types<int> > >,std::_Vector_iterator<std::_Vector_val<std::_Simple_types<int> > > >
??$_Adl_verify_range@V?$_Vector_iterator@V?$_Vector_val@U?$_Simple_types@H@std@@@std@@@std@@V12@@std@@$$FYAXAEBV?$_Vector_iterator@V?$_Vector_val@U?$_Simple_types@H@std@@@std@@@0@0@Z: ; std::_Adl_verify_range<std::_Vector_iterator<std::_Vector_val<std::_Simple_types<int> > >,std::_Vector_iterator<std::_Vector_val<std::_Simple_types<int> > > >
;	.proc.def	D:V(JJ)

; Function Header:
; max stack depth = 2
; function size = 8 bytes
; local varsig tk = 0x0 
; Exception Information:
; 0 handlers, each consisting of filtered handlers

;	.formal.i8 0,"_First$" SIG: Optional C Binding Modifier(token:0x8960431).ptr.Optional C Binding Modifier(token:0x8960434).valueType (token:0x8960436)
;	.formal.i8 1,"_Last$" SIG: Optional C Binding Modifier(token:0x8960431).ptr.Optional C Binding Modifier(token:0x8960434).valueType (token:0x8960436)

;	.proc.beg

; 1193 :     // check that [_First, _Last) forms an iterator range
; 1194 :     if constexpr (_Range_verifiable_v<_Iter, _Sentinel>) {
; 1195 :         _Verify_range(_First, _Last);

	ldarg.0				; _First$
	ldarg.1				; _Last$
	call		?_Verify_range@std@@$$FYAXAEBV?$_Vector_const_iterator@V?$_Vector_val@U?$_Simple_types@H@std@@@std@@@1@0@Z

; 1196 :     }
; 1197 : }

	ret		
 .end ??$_Adl_verify_range@V?$_Vector_iterator@V?$_Vector_val@U?$_Simple_types@H@std@@@std@@@std@@V12@@std@@$$FYAXAEBV?$_Vector_iterator@V?$_Vector_val@U?$_Simple_types@H@std@@@std@@@0@0@Z ; std::_Adl_verify_range<std::_Vector_iterator<std::_Vector_val<std::_Simple_types<int> > >,std::_Vector_iterator<std::_Vector_val<std::_Simple_types<int> > > >
;	.proc.end.void
; Function compile flags: /Odtp
; File C:\Program Files (x86)\Microsoft Visual Studio\2019\Enterprise\VC\Tools\MSVC\14.27.29110\include\xmemory
	.text
	.comdat	any, ??$_Deallocate_plain@V?$allocator@U_Container_proxy@std@@@std@@@std@@$$FYAXAEAV?$allocator@U_Container_proxy@std@@@0@QEAU_Container_proxy@0@@Z
.global	??$_Deallocate_plain@V?$allocator@U_Container_proxy@std@@@std@@@std@@$$FYAXAEAV?$allocator@U_Container_proxy@std@@@0@QEAU_Container_proxy@0@@Z ; std::_Deallocate_plain<std::allocator<std::_Container_proxy> >
??$_Deallocate_plain@V?$allocator@U_Container_proxy@std@@@std@@@std@@$$FYAXAEAV?$allocator@U_Container_proxy@std@@@0@QEAU_Container_proxy@0@@Z: ; std::_Deallocate_plain<std::allocator<std::_Container_proxy> >
;	.proc.def	D:V(JJ)

; Function Header:
; max stack depth = 3
; function size = 10 bytes
; local varsig tk = 0x0 
; Exception Information:
; 0 handlers, each consisting of filtered handlers

;	.formal.i8 0,"_Al$" SIG: Optional C Binding Modifier(token:0x8954441).ptr.valueType (token:0x8954444)
;	.formal.i8 1,"_Ptr$" SIG: Optional C Binding Modifier(token:0x895E139).Optional C Binding Modifier(token:0x895E13B).ptr.valueType (token:0x895E13E)

;	.proc.beg

; 999  :     // deallocate a plain pointer using an allocator
; 1000 :     using _Alloc_traits = allocator_traits<_Alloc>;
; 1001 :     if constexpr (is_same_v<_Alloc_ptr_t<_Alloc>, typename _Alloc::value_type*>) {
; 1002 :         _Alloc_traits::deallocate(_Al, _Ptr, 1);

	ldarg.0				; _Al$
	ldarg.1				; _Ptr$
	ldc.i.1		1		; u64 0x1
	conv.i8		
	call		?deallocate@?$_Default_allocator_traits@V?$allocator@U_Container_proxy@std@@@std@@@std@@$$FSAXAEAV?$allocator@U_Container_proxy@std@@@2@QEAU_Container_proxy@2@_K@Z

; 1003 :     } else {
; 1004 :         using _Ptr_traits = pointer_traits<_Alloc_ptr_t<_Alloc>>;
; 1005 :         _Alloc_traits::deallocate(_Al, _Ptr_traits::pointer_to(*_Ptr), 1);
; 1006 :     }
; 1007 : }

	ret		
 .end ??$_Deallocate_plain@V?$allocator@U_Container_proxy@std@@@std@@@std@@$$FYAXAEAV?$allocator@U_Container_proxy@std@@@0@QEAU_Container_proxy@0@@Z ; std::_Deallocate_plain<std::allocator<std::_Container_proxy> >
;	.proc.end.void
.global	
	.bss
.local	,4
; Function compile flags: /Odtp
; File C:\Program Files (x86)\Microsoft Visual Studio\2019\Enterprise\VC\Tools\MSVC\14.27.29110\include\xmemory
	.text
	.comdat	any, ??$_Construct_in_place@U_Container_proxy@std@@PEAU_Container_base12@2@@std@@$$FYAXAEAU_Container_proxy@0@$$QEAPEAU_Container_base12@0@@Z
.global	??$_Construct_in_place@U_Container_proxy@std@@PEAU_Container_base12@2@@std@@$$FYAXAEAU_Container_proxy@0@$$QEAPEAU_Container_base12@0@@Z ; std::_Construct_in_place<std::_Container_proxy,std::_Container_base12 *>
??$_Construct_in_place@U_Container_proxy@std@@PEAU_Container_base12@2@@std@@$$FYAXAEAU_Container_proxy@0@$$QEAPEAU_Container_base12@0@@Z: ; std::_Construct_in_place<std::_Container_proxy,std::_Container_base12 *>
;	.proc.def	D:V(JJ)

; Function Header:
; max stack depth = 2
; function size = 28 bytes
; local varsig tk = 0x0 
; Exception Information:
; 0 handlers, each consisting of filtered handlers

;	.formal.i8 0,"_Obj$" SIG: Optional C Binding Modifier(token:0x86F4E71).ptr.valueType (token:0x86F4E74)
;	.formal.i8 1,"<_Args_0>$" SIG: Optional C Binding Modifier(token:0x895E059).Optional C Binding Modifier(token:0x895E05B).ptr.ptr.valueType (token:0x895E05F)

;	.proc.beg

; 229  :     ::new (const_cast<void*>(static_cast<const volatile void*>(_STD addressof(_Obj))))

	ldc.i4.s	16		; u64 0x10
	conv.i8		
	ldarg.0				; _Obj$
	call		??$addressof@U_Container_proxy@std@@@std@@$$FYAPEAU_Container_proxy@0@AEAU10@@Z
	call		??2@$$FYAPEAX_KPEAX@Z
	ldarg.1				; <_Args_0>$
	call		??$forward@PEAU_Container_base12@std@@@std@@$$FYA$$QEAPEAU_Container_base12@0@AEAPEAU10@@Z
	ldind.i8	
	call		??0_Container_proxy@std@@$$FQEAA@PEAU_Container_base12@1@@Z
	pop		

; 230  :         _Ty(_STD forward<_Types>(_Args)...);
; 231  : }

	ret		
 .end ??$_Construct_in_place@U_Container_proxy@std@@PEAU_Container_base12@2@@std@@$$FYAXAEAU_Container_proxy@0@$$QEAPEAU_Container_base12@0@@Z ; std::_Construct_in_place<std::_Container_proxy,std::_Container_base12 *>
;	.proc.end.void
	.bss
.local	$T1,0
; Function compile flags: /Odtp
; File C:\Program Files (x86)\Microsoft Visual Studio\2019\Enterprise\VC\Tools\MSVC\14.27.29110\include\xmemory
	.text
	.comdat	any, ??$_Allocate@$0BA@U_Default_allocate_traits@std@@$0A@@std@@$$FYAPEAX_K@Z
.global	??$_Allocate@$0BA@U_Default_allocate_traits@std@@$0A@@std@@$$FYAPEAX_K@Z ; std::_Allocate<16,std::_Default_allocate_traits,0>
??$_Allocate@$0BA@U_Default_allocate_traits@std@@$0A@@std@@$$FYAPEAX_K@Z: ; std::_Allocate<16,std::_Default_allocate_traits,0>
;	.proc.def	D:J(J)

; Function Header:
; max stack depth = 2
; function size = 35 bytes
; local varsig tk = 0x11000004 
; Exception Information:
; 0 handlers, each consisting of filtered handlers

;	.formal.u8 0,"_Bytes$" SIG: Optional C Binding Modifier(token:0x8960891).u8
;	.local.i8 0,"$T2" SIG: ptr.void

;	.proc.beg

; 198  :     // allocate _Bytes when !_HAS_ALIGNED_NEW || _Align <= __STDCPP_DEFAULT_NEW_ALIGNMENT__
; 199  : #if defined(_M_IX86) || defined(_M_X64)
; 200  :     if (_Bytes >= _Big_allocation_threshold) { // boost the alignment of big allocations to help autovectorization

	ldarg.0				; _Bytes$
	ldc.i4		4096		; u64 0x1000
	conv.i8		
	blt.un.s	$LN2@Allocate

; 201  :         return _Allocate_manually_vector_aligned<_Traits>(_Bytes);

	ldarg.0				; _Bytes$
	call		??$_Allocate_manually_vector_aligned@U_Default_allocate_traits@std@@@std@@$$FYAPEAX_K@Z
	stloc.0				; $T2
	br.s		$LN1@Allocate
$LN2@Allocate:

; 202  :     }
; 203  : #endif // defined(_M_IX86) || defined(_M_X64)
; 204  : 
; 205  :     if (_Bytes != 0) {

	ldarg.0				; _Bytes$
	brfalse.s	$LN3@Allocate

; 206  :         return _Traits::_Allocate(_Bytes);

	ldarg.0				; _Bytes$
	call		?_Allocate@_Default_allocate_traits@std@@$$FSAPEAX_K@Z
	stloc.0				; $T2
	br.s		$LN1@Allocate
$LN3@Allocate:

; 207  :     }
; 208  : 
; 209  :     return nullptr;

	ldc.i.0		0		; i64 0x0
	conv.i8		
	stloc.0				; $T2
$LN1@Allocate:

; 210  : }

	ldloc.0				; $T2
	ret		
 .end ??$_Allocate@$0BA@U_Default_allocate_traits@std@@$0A@@std@@$$FYAPEAX_K@Z ; std::_Allocate<16,std::_Default_allocate_traits,0>
;	.proc.end.i8
	.bss
.local	$T1,0
; Function compile flags: /Odtp
; File C:\Program Files (x86)\Microsoft Visual Studio\2019\Enterprise\VC\Tools\MSVC\14.27.29110\include\vector
	.text
	.comdat	any, ?_Getal@?$vector@HV?$allocator@H@std@@@std@@$$FAEBAAEBV?$allocator@H@2@XZ
.global	?_Getal@?$vector@HV?$allocator@H@std@@@std@@$$FAEBAAEBV?$allocator@H@2@XZ ; std::vector<int,std::allocator<int> >::_Getal
?_Getal@?$vector@HV?$allocator@H@std@@@std@@$$FAEBAAEBV?$allocator@H@2@XZ: ; std::vector<int,std::allocator<int> >::_Getal
;	.proc.def	D:J(J)

; Function Header:
; max stack depth = 1
; function size = 9 bytes
; local varsig tk = 0x11000041 
; Exception Information:
; 0 handlers, each consisting of filtered handlers

;	.formal.i8 0,"this$" SIG: Optional C Binding Modifier(token:0x8958101).Optional C Binding Modifier(token:0x8958103).ptr.Optional C Binding Modifier(token:0x8958106).valueType (token:0x8958108)
;	.local.i8 0,"$T2" SIG: Optional C Binding Modifier(token:0x870E7F9).ptr.Optional C Binding Modifier(token:0x870E7FC).valueType (token:0x870E7FE)

;	.proc.beg

; 1736 :         return _Mypair._Get_first();

	ldarg.0				; this$
	call		?_Get_first@?$_Compressed_pair@V?$allocator@H@std@@V?$_Vector_val@U?$_Simple_types@H@std@@@2@$00@std@@$$FQEBAAEBV?$allocator@H@2@XZ
	stloc.0				; $T2

; 1737 :     }

	ldloc.0				; $T2
	ret		
 .end ?_Getal@?$vector@HV?$allocator@H@std@@@std@@$$FAEBAAEBV?$allocator@H@2@XZ ; std::vector<int,std::allocator<int> >::_Getal
;	.proc.end.i8
	.bss
.local	$T1,0
; Function compile flags: /Odtp
; File C:\Program Files (x86)\Microsoft Visual Studio\2019\Enterprise\VC\Tools\MSVC\14.27.29110\include\xmemory
	.text
	.comdat	any, ?allocate@?$allocator@H@std@@$$FQEAAPEAH_K@Z
.global	?allocate@?$allocator@H@std@@$$FQEAAPEAH_K@Z	; std::allocator<int>::allocate
?allocate@?$allocator@H@std@@$$FQEAAPEAH_K@Z:		; std::allocator<int>::allocate
;	.proc.def	D:J(JJ)

; Function Header:
; max stack depth = 1
; function size = 14 bytes
; local varsig tk = 0x1100003A 
; Exception Information:
; 0 handlers, each consisting of filtered handlers

;	.formal.u8 1,"_Count$" SIG: Optional C Binding Modifier(token:0x8960891).u8
;	.local.i8 0,"$T2" SIG: ptr.i4

;	.proc.beg

; 807  :         return static_cast<_Ty*>(_Allocate<_New_alignof<_Ty>>(_Get_size_of_n<sizeof(_Ty)>(_Count)));

	ldarg.1				; _Count$
	call		??$_Get_size_of_n@$03@std@@$$FYA_K_K@Z
	call		??$_Allocate@$0BA@U_Default_allocate_traits@std@@$0A@@std@@$$FYAPEAX_K@Z
	stloc.0				; $T2

; 808  :     }

	ldloc.0				; $T2
	ret		
 .end ?allocate@?$allocator@H@std@@$$FQEAAPEAH_K@Z	; std::allocator<int>::allocate
;	.proc.end.i8
	.bss
.local	$T1,0
; Function compile flags: /Odtp
; File C:\Program Files (x86)\Microsoft Visual Studio\2019\Enterprise\VC\Tools\MSVC\14.27.29110\include\xmemory
	.text
	.comdat	any, ??$_Uninitialized_copy@PEAHV?$allocator@H@std@@@std@@$$FYAPEAHQEAH0PEAHAEAV?$allocator@H@0@@Z
.global	??$_Uninitialized_copy@PEAHV?$allocator@H@std@@@std@@$$FYAPEAHQEAH0PEAHAEAV?$allocator@H@0@@Z ; std::_Uninitialized_copy<int *,std::allocator<int> >
??$_Uninitialized_copy@PEAHV?$allocator@H@std@@@std@@$$FYAPEAHQEAH0PEAHAEAV?$allocator@H@0@@Z: ; std::_Uninitialized_copy<int *,std::allocator<int> >
;	.proc.def	D:J(JJJJ)

; Function Header:
; max stack depth = 3
; function size = 46 bytes
; local varsig tk = 0x11000056 
; Exception Information:
; 0 handlers, each consisting of filtered handlers

;	.formal.i8 0,"_First$" SIG: Optional C Binding Modifier(token:0x8958639).Optional C Binding Modifier(token:0x895863B).ptr.i4
;	.formal.i8 1,"_Last$" SIG: Optional C Binding Modifier(token:0x8958639).Optional C Binding Modifier(token:0x895863B).ptr.i4
;	.formal.i8 2,"_Dest$" SIG: ptr.i4
;	.local.i8 0,"_ULast$" SIG: Optional C Binding Modifier(token:0x8958639).Optional C Binding Modifier(token:0x895863B).ptr.i4
;	.local.i8 1,"_UFirst$" SIG: ptr.i4
;	.local.i8 2,"$T2" SIG: ptr.i4

;	.proc.beg

; 1528 :     // copy [_First, _Last) to raw _Dest, using _Al
; 1529 :     // note: only called internally from elsewhere in the STL
; 1530 :     using _Ptrval = typename _Alloc::value_type*;
; 1531 : 
; 1532 :     auto _UFirst      = _Get_unwrapped(_First);

	ldarga.s	0		; _First$
	call		??$_Get_unwrapped@AEBQEAH@std@@$$FYAPEAHAEBQEAH@Z
	stloc.1				; _UFirst$

; 1533 :     const auto _ULast = _Get_unwrapped(_Last);

	ldarga.s	1		; _Last$
	call		??$_Get_unwrapped@AEBQEAH@std@@$$FYAPEAHAEBQEAH@Z
	stloc.0				; _ULast$

; 1534 : 
; 1535 :     if constexpr (conjunction_v<bool_constant<_Ptr_copy_cat<decltype(_UFirst), _Ptrval>::_Really_trivial>,
; 1536 :                       _Uses_default_construct<_Alloc, _Ptrval, decltype(*_UFirst)>>) {
; 1537 :         _Copy_memmove(_UFirst, _ULast, _Unfancy(_Dest));

	ldloc.1				; _UFirst$
	ldloc.0				; _ULast$
	ldarg.2				; _Dest$
	call		??$_Unfancy@H@std@@$$FYAPEAHPEAH@Z
	call		??$_Copy_memmove@PEAHPEAH@std@@$$FYAPEAHPEAH00@Z
	pop		

; 1538 :         _Dest += _ULast - _UFirst;

	ldarg.2				; _Dest$
	ldloc.0				; _ULast$
	ldloc.1				; _UFirst$
	sub		
	ldc.i.2		2		; i32 0x2
	shr		
	ldc.i.4		4		; i64 0x4
	conv.i8		
	mul		
	add		
	starg.s		2		; _Dest$

; 1539 :     } else {
; 1540 :         _Uninitialized_backout_al<_Alloc> _Backout{_Dest, _Al};
; 1541 :         for (; _UFirst != _ULast; ++_UFirst) {
; 1542 :             _Backout._Emplace_back(*_UFirst);
; 1543 :         }
; 1544 : 
; 1545 :         _Dest = _Backout._Release();
; 1546 :     }
; 1547 : 
; 1548 :     return _Dest;

	ldarg.2				; _Dest$
	stloc.2				; $T2

; 1549 : }

	ldloc.2				; $T2
	ret		
 .end ??$_Uninitialized_copy@PEAHV?$allocator@H@std@@@std@@$$FYAPEAHQEAH0PEAHAEAV?$allocator@H@0@@Z ; std::_Uninitialized_copy<int *,std::allocator<int> >
;	.proc.end.i8
.global	
	.bss
.local	,4
.local	$T1,0
; Function compile flags: /Odtp
; File C:\Program Files (x86)\Microsoft Visual Studio\2019\Enterprise\VC\Tools\MSVC\14.27.29110\include\xmemory
	.text
	.comdat	any, ??4_Iterator_base12@std@@$$FQEAAAEAU01@AEBU01@@Z
.global	??4_Iterator_base12@std@@$$FQEAAAEAU01@AEBU01@@Z ; std::_Iterator_base12::operator=
??4_Iterator_base12@std@@$$FQEAAAEAU01@AEBU01@@Z:	; std::_Iterator_base12::operator=
;	.proc.def	D:J(JJ)

; Function Header:
; max stack depth = 2
; function size = 63 bytes
; local varsig tk = 0x11000058 
; Exception Information:
; 1 handlers, each consisting of filtered handlers

;	.formal.i8 0,"this$" SIG: Optional C Binding Modifier(token:0x895FAF1).Optional C Binding Modifier(token:0x895FAF3).ptr.valueType (token:0x895FAF6)
;	.formal.i8 1,"_Right$" SIG: Optional C Binding Modifier(token:0x8953179).ptr.Optional C Binding Modifier(token:0x895317C).valueType (token:0x895317E)
;	.local.i8 0,"$T2" SIG: Optional C Binding Modifier(token:0x88EFC59).ptr.valueType (token:0x88EFC5C)
;	.local.mb4   1,"_Lock$3" SIG: valueType (token:0x89526D9)

;	.proc.beg

; 1128 :         if (_Myproxy != _Right._Myproxy) {

	ldarg.0				; this$
	ldind.i8	
	ldarg.1				; _Right$
	ldind.i8	
	beq.s		$LN2@operator

; 1129 :             if (_Right._Myproxy) {

	ldarg.1				; _Right$
	ldind.i8	
	brfalse.s	$LN3@operator

; 1130 :                 _Adopt(_Right._Myproxy->_Mycont);

	ldarg.0				; this$
	ldarg.1				; _Right$
	ldind.i8	
	ldind.i8	
	call		?_Adopt@_Iterator_base12@std@@$$FQEAAXPEBU_Container_base12@2@@Z

; 1131 :             } else { // becoming invalid, disown current parent

	br.s		$LN2@operator
$LN3@operator:

; 1132 : #if _ITERATOR_DEBUG_LEVEL == 2
; 1133 :                 _Lockit _Lock(_LOCK_DEBUG);

	ldloca.s	1		; _Lock$3
	ldc.i.3		3		; i32 0x3
	call		??0_Lockit@std@@$$FQEAA@H@Z
	pop		
$LN7@operator:

; 1134 :                 _Orphan_me();

	ldarg.0				; this$
	call		?_Orphan_me@_Iterator_base12@std@@$$FQEAAXXZ
	leave.s		$LN8@operator
$LN9@operator:
	ldftn		??1_Lockit@std@@$$FQEAA@XZ
	ldloca.s	1		; _Lock$3
	call		?___CxxCallUnwindDtor@@$$J0YMXP6MXPEAX@Z0@Z
	endfinally	
$LN8@operator:

; 1135 : #else // _ITERATOR_DEBUG_LEVEL == 2
; 1136 :                 _Myproxy = nullptr;
; 1137 : #endif // _ITERATOR_DEBUG_LEVEL == 2
; 1138 :             }

	ldloca.s	1		; _Lock$3
	call		??1_Lockit@std@@$$FQEAA@XZ
$LN2@operator:

; 1139 :         }
; 1140 : 
; 1141 :         return *this;

	ldarg.0				; this$
	stloc.0				; $T2

; 1142 :     }

	ldloc.0				; $T2
	ret		
 .end ??4_Iterator_base12@std@@$$FQEAAAEAU01@AEBU01@@Z	; std::_Iterator_base12::operator=
;	.proc.end.i8
.global	
.global	
.global	
.global	
.global	
.global	
.global	
.global	?mainchart@DisplayHistogram@CLRCV@@3PE$AAVChart@Charting@DataVisualization@Forms@Windows@System@@E$AA ; CLRCV::DisplayHistogram::mainchart
.global	?datapoints@DisplayHistogram@CLRCV@@3PEAV?$vector@HV?$allocator@H@std@@@std@@EA ; CLRCV::DisplayHistogram::datapoints
	.bss
.local	,4
.local	,4
.local	,4
.local	,4
.local	,4
.local	,4
.local	,4
.local	?mainchart@DisplayHistogram@CLRCV@@3PE$AAVChart@Charting@DataVisualization@Forms@Windows@System@@E$AA,8 ; CLRCV::DisplayHistogram::mainchart
.local	$StringLiteralTok$??_C@_1BA@OHPBFKGO@?$AAL?$AAe?$AAg?$AAe?$AAn?$AAd?$AA1@,4
.local	$StringLiteralTok$??_C@_1BG@PPONHBHM@?$AAC?$AAh?$AAa?$AAr?$AAt?$AAA?$AAr?$AAe?$AAa?$AA1@,4
.local	$StringLiteralTok$??_C@_1BE@FFJMHHEP@?$AAI?$AAn?$AAt?$AAe?$AAn?$AAs?$AAi?$AAt?$AAy@,4
	.align	8
.local	?datapoints@DisplayHistogram@CLRCV@@3PEAV?$vector@HV?$allocator@H@std@@@std@@EA,8 ; CLRCV::DisplayHistogram::datapoints
.local	$T1,0
; Function compile flags: /Odtp
; File C:\Users\César Mosqueira\source\repos\CLRCV\CLRCV\DisplayHistogram.h
	.text
	.comdat	any, ?DisplayHistogram_Load@DisplayHistogram@CLRCV@@$$FAE$AAMXPE$AAVObject@System@@PE$AAVEventArgs@4@@Z
.global	?DisplayHistogram_Load@DisplayHistogram@CLRCV@@$$FAE$AAMXPE$AAVObject@System@@PE$AAVEventArgs@4@@Z ; CLRCV::DisplayHistogram::DisplayHistogram_Load
?DisplayHistogram_Load@DisplayHistogram@CLRCV@@$$FAE$AAMXPE$AAVObject@System@@PE$AAVEventArgs@4@@Z: ; CLRCV::DisplayHistogram::DisplayHistogram_Load
;	.proc.def	D:V(PP)

; Function Header:
; max stack depth = 3
; function size = 232 bytes
; local varsig tk = 0x11000060 
; Exception Information:
; 0 handlers, each consisting of filtered handlers

;	.formal.mptr 0,"this$" SIG: Optional C Binding Modifier(token:0x895DDB1).class (token:0x895DDB3)
;	.local.mptr 0,"histogram$" SIG: class (token:0x86FF6B9)
;	.local.i4 1,"i$2" SIG: i4
;	.local.mptr 2,"dp$" SIG: class (token:0x895F061)
;	.local.mptr 3,"legend$" SIG: class (token:0x87014E9)
;	.local.mptr 4,"$T3" SIG: class (token:0x895F061)
;	.local.mptr 5,"chart_area$" SIG: class (token:0x8953669)
;	.local.i8 6,"tv171"

;	.proc.beg

; 99   : 	private: System::Void DisplayHistogram_Load(System::Object^ sender, System::EventArgs^ e) {

	ldnull		0		; i64 0x0
	stloc.s		5		; chart_area$
	ldnull		0		; i64 0x0
	stloc.3				; legend$
	ldnull		0		; i64 0x0
	stloc.0				; histogram$
	ldnull		0		; i64 0x0
	stloc.2				; dp$

; 100  : 		System::Windows::Forms::DataVisualization::Charting::ChartArea^ chart_area = (gcnew System::Windows::Forms::DataVisualization::Charting::ChartArea());

	newobj		??0ChartArea@Charting@DataVisualization@Forms@Windows@System@@$$FQE$AAM@XZ
	stloc.s		5		; chart_area$

; 101  : 		System::Windows::Forms::DataVisualization::Charting::Legend^ legend = (gcnew System::Windows::Forms::DataVisualization::Charting::Legend());

	newobj		??0Legend@Charting@DataVisualization@Forms@Windows@System@@$$FQE$AAM@XZ
	stloc.3				; legend$

; 102  : 		System::Windows::Forms::DataVisualization::Charting::Series^ histogram = (gcnew System::Windows::Forms::DataVisualization::Charting::Series());

	newobj		??0Series@Charting@DataVisualization@Forms@Windows@System@@$$FQE$AAM@XZ
	stloc.0				; histogram$

; 103  : 		this->mainchart->ChartAreas->Add(chart_area);

	ldarg.0				; this$
	ldfld		?mainchart@DisplayHistogram@CLRCV@@3PE$AAVChart@Charting@DataVisualization@Forms@Windows@System@@E$AA
	call		?get@ChartAreas@Chart@Charting@DataVisualization@Forms@Windows@System@@$$FQE$AAMPE$AAVChartAreaCollection@34567@XZ
	ldloc.s		5		; chart_area$
	callvirt	?Add@?$Collection@PE$AAVChartArea@Charting@DataVisualization@Forms@Windows@System@@@ObjectModel@Collections@System@@$$FUE$AAMXPE$AAVChartArea@Charting@DataVisualization@Forms@Windows@4@@Z

; 104  : 		legend->Name = L"Legend1";

	ldloc.3				; legend$
	ldstr		$StringLiteralTok$??_C@_1BA@OHPBFKGO@?$AAL?$AAe?$AAg?$AAe?$AAn?$AAd?$AA1@
	callvirt	?set@Name@Legend@Charting@DataVisualization@Forms@Windows@System@@$$FUE$AAMXPE$AAVString@7@@Z

; 105  : 		this->mainchart->Legends->Add(legend);

	ldarg.0				; this$
	ldfld		?mainchart@DisplayHistogram@CLRCV@@3PE$AAVChart@Charting@DataVisualization@Forms@Windows@System@@E$AA
	call		?get@Legends@Chart@Charting@DataVisualization@Forms@Windows@System@@$$FQE$AAMPE$AAVLegendCollection@34567@XZ
	ldloc.3				; legend$
	callvirt	?Add@?$Collection@PE$AAVLegend@Charting@DataVisualization@Forms@Windows@System@@@ObjectModel@Collections@System@@$$FUE$AAMXPE$AAVLegend@Charting@DataVisualization@Forms@Windows@4@@Z

; 106  : 		histogram->ChartArea = L"ChartArea1";

	ldloc.0				; histogram$
	ldstr		$StringLiteralTok$??_C@_1BG@PPONHBHM@?$AAC?$AAh?$AAa?$AAr?$AAt?$AAA?$AAr?$AAe?$AAa?$AA1@
	call		?set@ChartArea@Series@Charting@DataVisualization@Forms@Windows@System@@$$FQE$AAMXPE$AAVString@7@@Z

; 107  : 		histogram->IsXValueIndexed = true;

	ldloc.0				; histogram$
	ldc.i.1		1		; u8 0x1
	call		?set@IsXValueIndexed@Series@Charting@DataVisualization@Forms@Windows@System@@$$FQE$AAMX_N@Z

; 108  : 		histogram->Legend = L"Legend1";

	ldloc.0				; histogram$
	ldstr		$StringLiteralTok$??_C@_1BA@OHPBFKGO@?$AAL?$AAe?$AAg?$AAe?$AAn?$AAd?$AA1@
	call		?set@Legend@Series@Charting@DataVisualization@Forms@Windows@System@@$$FQE$AAMXPE$AAVString@7@@Z

; 109  : 		histogram->Name = L"Intensity";

	ldloc.0				; histogram$
	ldstr		$StringLiteralTok$??_C@_1BE@FFJMHHEP@?$AAI?$AAn?$AAt?$AAe?$AAn?$AAs?$AAi?$AAt?$AAy@
	callvirt	?set@Name@Series@Charting@DataVisualization@Forms@Windows@System@@$$FUE$AAMXPE$AAVString@7@@Z

; 110  : 		histogram->XValueType = System::Windows::Forms::DataVisualization::Charting::ChartValueType::UInt64;

	ldloc.0				; histogram$
	ldc.i.6		6		; i32 0x6
	call		?set@XValueType@Series@Charting@DataVisualization@Forms@Windows@System@@$$FQE$AAMXW4ChartValueType@34567@@Z

; 111  : 		histogram->YValueType = System::Windows::Forms::DataVisualization::Charting::ChartValueType::UInt64;

	ldloc.0				; histogram$
	ldc.i.6		6		; i32 0x6
	call		?set@YValueType@Series@Charting@DataVisualization@Forms@Windows@System@@$$FQE$AAMXW4ChartValueType@34567@@Z

; 112  : 
; 113  : 
; 114  : 		System::Windows::Forms::DataVisualization::Charting::DataPoint^ dp;

	ldnull		0		; i64 0x0
	stloc.2				; dp$

; 115  : 
; 116  : 		for (int i = 0; i < datapoints->size(); i++) {

	ldc.i.0		0		; i32 0x0
	stloc.1				; i$2
	br.s		$LN4@DisplayHis
$LN2@DisplayHis:
	ldloc.1				; i$2
	ldc.i.1		1		; i32 0x1
	add		
	stloc.1				; i$2
$LN4@DisplayHis:
	ldloc.1				; i$2
	conv.i8		
	ldarg.0				; this$
	ldfld		?datapoints@DisplayHistogram@CLRCV@@3PEAV?$vector@HV?$allocator@H@std@@@std@@EA
	call		?size@?$vector@HV?$allocator@H@std@@@std@@$$FQEBA_KXZ
	bge.un.s	$LN3@DisplayHis

; 117  : 			dp = gcnew System::Windows::Forms::DataVisualization::Charting::DataPoint(i, datapoints->at(i));

	ldloc.1				; i$2
	conv.r8		
	ldarg.0				; this$
	ldfld		?datapoints@DisplayHistogram@CLRCV@@3PEAV?$vector@HV?$allocator@H@std@@@std@@EA
	ldloc.1				; i$2
	conv.i8		
	call		?at@?$vector@HV?$allocator@H@std@@@std@@$$FQEAAAEAH_K@Z
	ldind.i4	
	conv.r8		
	newobj		??0DataPoint@Charting@DataVisualization@Forms@Windows@System@@$$FQE$AAM@NN@Z
	stloc.2				; dp$

; 118  : 			histogram->Points->Add(dp);

	ldloc.0				; histogram$
	call		?get@Points@Series@Charting@DataVisualization@Forms@Windows@System@@$$FQE$AAMPE$AAVDataPointCollection@34567@XZ
	ldloc.2				; dp$
	callvirt	?Add@?$Collection@PE$AAVDataPoint@Charting@DataVisualization@Forms@Windows@System@@@ObjectModel@Collections@System@@$$FUE$AAMXPE$AAVDataPoint@Charting@DataVisualization@Forms@Windows@4@@Z

; 119  : 		}

	br.s		$LN2@DisplayHis
$LN3@DisplayHis:

; 120  : 		delete dp;

	ldloc.2				; dp$
	stloc.s		4		; $T3
	ldloc.s		4		; $T3
	brfalse.s	$LN6@DisplayHis
	ldloc.s		4		; $T3
	callvirt	?<Dispose>@IDisposable@System@@$$FUE$AAMXXZ
	ldc.i.0		0		; i64 0x0
	conv.i8		
	stloc.s		6		
	br.s		$LN7@DisplayHis
$LN6@DisplayHis:
	ldc.i.0		0		; i64 0x0
	conv.i8		
	stloc.s		6		
$LN7@DisplayHis:

; 121  : 		this->mainchart->Series->Add(histogram);

	ldarg.0				; this$
	ldfld		?mainchart@DisplayHistogram@CLRCV@@3PE$AAVChart@Charting@DataVisualization@Forms@Windows@System@@E$AA
	call		?get@Series@Chart@Charting@DataVisualization@Forms@Windows@System@@$$FQE$AAMPE$AAVSeriesCollection@34567@XZ
	ldloc.0				; histogram$
	callvirt	?Add@?$Collection@PE$AAVSeries@Charting@DataVisualization@Forms@Windows@System@@@ObjectModel@Collections@System@@$$FUE$AAMXPE$AAVSeries@Charting@DataVisualization@Forms@Windows@4@@Z

; 122  : 	}

	ret		
 .end ?DisplayHistogram_Load@DisplayHistogram@CLRCV@@$$FAE$AAMXPE$AAVObject@System@@PE$AAVEventArgs@4@@Z ; CLRCV::DisplayHistogram::DisplayHistogram_Load
;	.proc.end.void
.global	
	.bss
.local	,4
; Function compile flags: /Odtp
	.text
	.comdat	any, ??1?$_Vector_iterator@V?$_Vector_val@U?$_Simple_types@H@std@@@std@@@std@@$$FQEAA@XZ
.global	??1?$_Vector_iterator@V?$_Vector_val@U?$_Simple_types@H@std@@@std@@@std@@$$FQEAA@XZ ; std::_Vector_iterator<std::_Vector_val<std::_Simple_types<int> > >::~_Vector_iterator<std::_Vector_val<std::_Simple_types<int> > >
??1?$_Vector_iterator@V?$_Vector_val@U?$_Simple_types@H@std@@@std@@@std@@$$FQEAA@XZ: ; std::_Vector_iterator<std::_Vector_val<std::_Simple_types<int> > >::~_Vector_iterator<std::_Vector_val<std::_Simple_types<int> > >
;	.proc.def	D:V(J)

; Function Header:
; max stack depth = 1
; function size = 7 bytes
; local varsig tk = 0x0 
; Exception Information:
; 0 handlers, each consisting of filtered handlers

;	.formal.i8 0,"this$" SIG: Optional C Binding Modifier(token:0x86F51A1).Optional C Binding Modifier(token:0x86F51A3).ptr.valueType (token:0x86F51A6)

;	.proc.beg
	ldarg.0				; this$
	call		??1?$_Vector_const_iterator@V?$_Vector_val@U?$_Simple_types@H@std@@@std@@@std@@$$FQEAA@XZ
	ret		
 .end ??1?$_Vector_iterator@V?$_Vector_val@U?$_Simple_types@H@std@@@std@@@std@@$$FQEAA@XZ ; std::_Vector_iterator<std::_Vector_val<std::_Simple_types<int> > >::~_Vector_iterator<std::_Vector_val<std::_Simple_types<int> > >
;	.proc.end.void
.global	
	.bss
.local	,4
; Function compile flags: /Odtp
	.text
	.comdat	any, ?<MarshalDestroy>@?$_Vector_iterator@V?$_Vector_val@U?$_Simple_types@H@std@@@std@@@std@@$$FSMXPEAV12@@Z
.global	?<MarshalDestroy>@?$_Vector_iterator@V?$_Vector_val@U?$_Simple_types@H@std@@@std@@@std@@$$FSMXPEAV12@@Z ; std::_Vector_iterator<std::_Vector_val<std::_Simple_types<int> > >::<MarshalDestroy>
?<MarshalDestroy>@?$_Vector_iterator@V?$_Vector_val@U?$_Simple_types@H@std@@@std@@@std@@$$FSMXPEAV12@@Z: ; std::_Vector_iterator<std::_Vector_val<std::_Simple_types<int> > >::<MarshalDestroy>
;	.proc.def	D:V(J)

; Function Header:
; max stack depth = 1
; function size = 7 bytes
; local varsig tk = 0x0 
; Exception Information:
; 0 handlers, each consisting of filtered handlers

;	.formal.i8 0,"__P0$" SIG: ptr.valueType (token:0x895FC1A)

;	.proc.beg
	ldarg.0				; __P0$
	call		??1?$_Vector_iterator@V?$_Vector_val@U?$_Simple_types@H@std@@@std@@@std@@$$FQEAA@XZ
	ret		
 .end ?<MarshalDestroy>@?$_Vector_iterator@V?$_Vector_val@U?$_Simple_types@H@std@@@std@@@std@@$$FSMXPEAV12@@Z ; std::_Vector_iterator<std::_Vector_val<std::_Simple_types<int> > >::<MarshalDestroy>
;	.proc.end.void
PUBLIC	__t2m@?<MarshalDestroy>@?$_Vector_iterator@V?$_Vector_val@U?$_Simple_types@H@std@@@std@@@std@@SMXPEAV12@@Z
PUBLIC	__m2mep@?<MarshalDestroy>@?$_Vector_iterator@V?$_Vector_val@U?$_Simple_types@H@std@@@std@@@std@@$$FSMXPEAV12@@Z
PUBLIC	__mep@?<MarshalDestroy>@?$_Vector_iterator@V?$_Vector_val@U?$_Simple_types@H@std@@@std@@@std@@$$FSMXPEAV12@@Z
;	COMDAT __mep@?<MarshalDestroy>@?$_Vector_iterator@V?$_Vector_val@U?$_Simple_types@H@std@@@std@@@std@@$$FSMXPEAV12@@Z
data	SEGMENT
__mep@?<MarshalDestroy>@?$_Vector_iterator@V?$_Vector_val@U?$_Simple_types@H@std@@@std@@@std@@$$FSMXPEAV12@@Z TOKEN 06000052
data	ENDS
;	COMDAT __m2mep@?<MarshalDestroy>@?$_Vector_iterator@V?$_Vector_val@U?$_Simple_types@H@std@@@std@@@std@@$$FSMXPEAV12@@Z
data	SEGMENT
__m2mep@?<MarshalDestroy>@?$_Vector_iterator@V?$_Vector_val@U?$_Simple_types@H@std@@@std@@@std@@$$FSMXPEAV12@@Z DD FLAT:?<MarshalDestroy>@?$_Vector_iterator@V?$_Vector_val@U?$_Simple_types@H@std@@@std@@@std@@$$FSMXPEAV12@@Z
data	ENDS
; Function compile flags: /Ods
;	COMDAT nep
_TEXT	SEGMENT
__t2m@?<MarshalDestroy>@?$_Vector_iterator@V?$_Vector_val@U?$_Simple_types@H@std@@@std@@@std@@SMXPEAV12@@Z PROC ; COMDAT
	jmp	SHORT $LN1@
	ud2
$LN2@:
	jmp	QWORD PTR __m2mep@?<MarshalDestroy>@?$_Vector_iterator@V?$_Vector_val@U?$_Simple_types@H@std@@@std@@@std@@$$FSMXPEAV12@@Z
$LN1@:
	jmp	QWORD PTR __mep@?<MarshalDestroy>@?$_Vector_iterator@V?$_Vector_val@U?$_Simple_types@H@std@@@std@@@std@@$$FSMXPEAV12@@Z
__t2m@?<MarshalDestroy>@?$_Vector_iterator@V?$_Vector_val@U?$_Simple_types@H@std@@@std@@@std@@SMXPEAV12@@Z ENDP
_TEXT	ENDS
; Function compile flags: /Odtp
	.text
	.comdat	any, ??0?$_Vector_iterator@V?$_Vector_val@U?$_Simple_types@H@std@@@std@@@std@@$$FQEAA@PEAHPEBU_Container_base12@1@@Z
.global	??0?$_Vector_iterator@V?$_Vector_val@U?$_Simple_types@H@std@@@std@@@std@@$$FQEAA@PEAHPEBU_Container_base12@1@@Z ; std::_Vector_iterator<std::_Vector_val<std::_Simple_types<int> > >::_Vector_iterator<std::_Vector_val<std::_Simple_types<int> > >
??0?$_Vector_iterator@V?$_Vector_val@U?$_Simple_types@H@std@@@std@@@std@@$$FQEAA@PEAHPEBU_Container_base12@1@@Z: ; std::_Vector_iterator<std::_Vector_val<std::_Simple_types<int> > >::_Vector_iterator<std::_Vector_val<std::_Simple_types<int> > >
;	.proc.def	D:J(JJJ)

; Function Header:
; max stack depth = 3
; function size = 11 bytes
; local varsig tk = 0x0 
; Exception Information:
; 0 handlers, each consisting of filtered handlers

;	.formal.i8 0,"this$" SIG: Optional C Binding Modifier(token:0x86F51A1).Optional C Binding Modifier(token:0x86F51A3).ptr.valueType (token:0x86F51A6)
;	.formal.i8 1,"__param0$" SIG: ptr.i4
;	.formal.i8 2,"__param1$" SIG: ptr.Optional C Binding Modifier(token:0x87011DA).valueType (token:0x87011DC)

;	.proc.beg
	ldarg.0				; this$
	ldarg.1				; __param0$
	ldarg.2				; __param1$
	call		??0?$_Vector_const_iterator@V?$_Vector_val@U?$_Simple_types@H@std@@@std@@@std@@$$FQEAA@PEAHPEBU_Container_base12@1@@Z
	pop		
	ldarg.0				; this$
	ret		
 .end ??0?$_Vector_iterator@V?$_Vector_val@U?$_Simple_types@H@std@@@std@@@std@@$$FQEAA@PEAHPEBU_Container_base12@1@@Z ; std::_Vector_iterator<std::_Vector_val<std::_Simple_types<int> > >::_Vector_iterator<std::_Vector_val<std::_Simple_types<int> > >
;	.proc.end.i8
.global	
	.bss
.local	,4
.local	$T1,0
; Function compile flags: /Odtp
; File C:\Program Files (x86)\Microsoft Visual Studio\2019\Enterprise\VC\Tools\MSVC\14.27.29110\include\vector
	.text
	.comdat	any, ?_Tidy@?$vector@HV?$allocator@H@std@@@std@@$$FAEAAXXZ
.global	?_Tidy@?$vector@HV?$allocator@H@std@@@std@@$$FAEAAXXZ ; std::vector<int,std::allocator<int> >::_Tidy
?_Tidy@?$vector@HV?$allocator@H@std@@@std@@$$FAEAAXXZ:	; std::vector<int,std::allocator<int> >::_Tidy
;	.proc.def	D:V(J)

; Function Header:
; max stack depth = 4
; function size = 72 bytes
; local varsig tk = 0x11000064 
; Exception Information:
; 0 handlers, each consisting of filtered handlers

;	.formal.i8 0,"this$" SIG: Optional C Binding Modifier(token:0x8952BD1).Optional C Binding Modifier(token:0x8952BD3).ptr.valueType (token:0x8952BD6)
;	.local.i8 0,"_Myfirst$" SIG: Optional C Binding Modifier(token:0x8953D59).ptr.ptr.i4
;	.local.i8 1,"_My_data$" SIG: Optional C Binding Modifier(token:0x86FBBB9).ptr.valueType (token:0x86FBBBC)
;	.local.i8 2,"_Myend$" SIG: Optional C Binding Modifier(token:0x8953D59).ptr.ptr.i4
;	.local.i8 3,"_Mylast$" SIG: Optional C Binding Modifier(token:0x8953D59).ptr.ptr.i4

;	.proc.beg

; 1686 :         auto& _My_data    = _Mypair._Myval2;

	ldarg.0				; this$
	stloc.1				; _My_data$

; 1687 :         pointer& _Myfirst = _My_data._Myfirst;

	ldloc.1				; _My_data$
	ldc.i.8		8		; i64 0x8
	conv.i8		
	add		
	stloc.0				; _Myfirst$

; 1688 :         pointer& _Mylast  = _My_data._Mylast;

	ldloc.1				; _My_data$
	ldc.i4.s	16		; i64 0x10
	conv.i8		
	add		
	stloc.3				; _Mylast$

; 1689 :         pointer& _Myend   = _My_data._Myend;

	ldloc.1				; _My_data$
	ldc.i4.s	24		; i64 0x18
	conv.i8		
	add		
	stloc.2				; _Myend$

; 1690 : 
; 1691 :         _My_data._Orphan_all();

	ldloc.1				; _My_data$
	call		?_Orphan_all@_Container_base12@std@@$$FQEAAXXZ

; 1692 : 
; 1693 :         if (_Myfirst) { // destroy and deallocate old array

	ldloc.0				; _Myfirst$
	ldind.i8	
	brfalse.s	$LN1@Tidy

; 1694 :             _Destroy(_Myfirst, _Mylast);

	ldarg.0				; this$
	ldloc.0				; _Myfirst$
	ldind.i8	
	ldloc.3				; _Mylast$
	ldind.i8	
	call		?_Destroy@?$vector@HV?$allocator@H@std@@@std@@$$FAEAAXPEAH0@Z

; 1695 :             _Getal().deallocate(_Myfirst, static_cast<size_type>(_Myend - _Myfirst));

	ldarg.0				; this$
	call		?_Getal@?$vector@HV?$allocator@H@std@@@std@@$$FAEAAAEAV?$allocator@H@2@XZ
	ldloc.0				; _Myfirst$
	ldind.i8	
	ldloc.2				; _Myend$
	ldind.i8	
	ldloc.0				; _Myfirst$
	ldind.i8	
	sub		
	ldc.i.2		2		; i32 0x2
	shr		
	call		?deallocate@?$allocator@H@std@@$$FQEAAXQEAH_K@Z

; 1696 : 
; 1697 :             _Myfirst = pointer();

	ldloc.0				; _Myfirst$
	ldc.i.0		0		; i64 0x0
	conv.i8		
	stind.i8	

; 1698 :             _Mylast  = pointer();

	ldloc.3				; _Mylast$
	ldc.i.0		0		; i64 0x0
	conv.i8		
	stind.i8	

; 1699 :             _Myend   = pointer();

	ldloc.2				; _Myend$
	ldc.i.0		0		; i64 0x0
	conv.i8		
	stind.i8	
$LN1@Tidy:

; 1700 :         }
; 1701 :     }

	ret		
 .end ?_Tidy@?$vector@HV?$allocator@H@std@@@std@@$$FAEAAXXZ ; std::vector<int,std::allocator<int> >::_Tidy
;	.proc.end.void
.global	
	.bss
.local	,4
.local	$T1,0
; Function compile flags: /Odtp
; File C:\Program Files (x86)\Microsoft Visual Studio\2019\Enterprise\VC\Tools\MSVC\14.27.29110\include\xutility
	.text
	.comdat	any, ??$_Get_unwrapped@AEAV?$_Vector_iterator@V?$_Vector_val@U?$_Simple_types@H@std@@@std@@@std@@@std@@$$FYAPEAHAEAV?$_Vector_iterator@V?$_Vector_val@U?$_Simple_types@H@std@@@std@@@0@@Z
.global	??$_Get_unwrapped@AEAV?$_Vector_iterator@V?$_Vector_val@U?$_Simple_types@H@std@@@std@@@std@@@std@@$$FYAPEAHAEAV?$_Vector_iterator@V?$_Vector_val@U?$_Simple_types@H@std@@@std@@@0@@Z ; std::_Get_unwrapped<std::_Vector_iterator<std::_Vector_val<std::_Simple_types<int> > > &>
??$_Get_unwrapped@AEAV?$_Vector_iterator@V?$_Vector_val@U?$_Simple_types@H@std@@@std@@@std@@@std@@$$FYAPEAHAEAV?$_Vector_iterator@V?$_Vector_val@U?$_Simple_types@H@std@@@std@@@0@@Z: ; std::_Get_unwrapped<std::_Vector_iterator<std::_Vector_val<std::_Simple_types<int> > > &>
;	.proc.def	D:J(J)

; Function Header:
; max stack depth = 1
; function size = 9 bytes
; local varsig tk = 0x1100003A 
; Exception Information:
; 0 handlers, each consisting of filtered handlers

;	.formal.i8 0,"_It$" SIG: Optional C Binding Modifier(token:0x895EF59).ptr.valueType (token:0x895EF5C)
;	.local.i8 0,"$T2" SIG: ptr.i4

;	.proc.beg

; 1230 :     // unwrap an iterator previously subjected to _Adl_verify_range or otherwise validated
; 1231 :     if constexpr (is_pointer_v<decay_t<_Iter>>) { // special-case pointers and arrays
; 1232 :         return _It + 0;
; 1233 :     } else if constexpr (_Unwrappable_v<_Iter>) {
; 1234 :         return static_cast<_Iter&&>(_It)._Unwrapped();

	ldarg.0				; _It$
	call		?_Unwrapped@?$_Vector_iterator@V?$_Vector_val@U?$_Simple_types@H@std@@@std@@@std@@$$FQEBAPEAHXZ
	stloc.0				; $T2

; 1235 :     } else {
; 1236 :         return static_cast<_Iter&&>(_It);
; 1237 :     }
; 1238 : }

	ldloc.0				; $T2
	ret		
 .end ??$_Get_unwrapped@AEAV?$_Vector_iterator@V?$_Vector_val@U?$_Simple_types@H@std@@@std@@@std@@@std@@$$FYAPEAHAEAV?$_Vector_iterator@V?$_Vector_val@U?$_Simple_types@H@std@@@std@@@0@@Z ; std::_Get_unwrapped<std::_Vector_iterator<std::_Vector_val<std::_Simple_types<int> > > &>
;	.proc.end.i8
; Function compile flags: /Odtp
; File C:\Program Files (x86)\Microsoft Visual Studio\2019\Enterprise\VC\Tools\MSVC\14.27.29110\include\xmemory
	.text
	.comdat	any, ??$_Delete_plain_internal@V?$allocator@U_Container_proxy@std@@@std@@@std@@$$FYAXAEAV?$allocator@U_Container_proxy@std@@@0@QEAU_Container_proxy@0@@Z
.global	??$_Delete_plain_internal@V?$allocator@U_Container_proxy@std@@@std@@@std@@$$FYAXAEAV?$allocator@U_Container_proxy@std@@@0@QEAU_Container_proxy@0@@Z ; std::_Delete_plain_internal<std::allocator<std::_Container_proxy> >
??$_Delete_plain_internal@V?$allocator@U_Container_proxy@std@@@std@@@std@@$$FYAXAEAV?$allocator@U_Container_proxy@std@@@0@QEAU_Container_proxy@0@@Z: ; std::_Delete_plain_internal<std::allocator<std::_Container_proxy> >
;	.proc.def	D:V(JJ)

; Function Header:
; max stack depth = 2
; function size = 8 bytes
; local varsig tk = 0x0 
; Exception Information:
; 0 handlers, each consisting of filtered handlers

;	.formal.i8 0,"_Al$" SIG: Optional C Binding Modifier(token:0x8954441).ptr.valueType (token:0x8954444)
;	.formal.i8 1,"_Ptr$" SIG: Optional C Binding Modifier(token:0x895E139).Optional C Binding Modifier(token:0x895E13B).ptr.valueType (token:0x895E13E)

;	.proc.beg

; 1027 :     // destroy *_Ptr in place, then deallocate _Ptr using _Al; used for internal container types the user didn't name
; 1028 :     using _Ty = typename _Alloc::value_type;
; 1029 :     _Ptr->~_Ty();
; 1030 :     _Deallocate_plain(_Al, _Ptr);

	ldarg.0				; _Al$
	ldarg.1				; _Ptr$
	call		??$_Deallocate_plain@V?$allocator@U_Container_proxy@std@@@std@@@std@@$$FYAXAEAV?$allocator@U_Container_proxy@std@@@0@QEAU_Container_proxy@0@@Z

; 1031 : }

	ret		
 .end ??$_Delete_plain_internal@V?$allocator@U_Container_proxy@std@@@std@@@std@@$$FYAXAEAV?$allocator@U_Container_proxy@std@@@0@QEAU_Container_proxy@0@@Z ; std::_Delete_plain_internal<std::allocator<std::_Container_proxy> >
;	.proc.end.void
.global	
	.bss
.local	,4
; Function compile flags: /Odtp
; File C:\Program Files (x86)\Microsoft Visual Studio\2019\Enterprise\VC\Tools\MSVC\14.27.29110\include\xmemory
	.text
	.comdat	any, ??1?$_Container_proxy_ptr12@V?$allocator@U_Container_proxy@std@@@std@@@std@@$$FQEAA@XZ
.global	??1?$_Container_proxy_ptr12@V?$allocator@U_Container_proxy@std@@@std@@@std@@$$FQEAA@XZ ; std::_Container_proxy_ptr12<std::allocator<std::_Container_proxy> >::~_Container_proxy_ptr12<std::allocator<std::_Container_proxy> >
??1?$_Container_proxy_ptr12@V?$allocator@U_Container_proxy@std@@@std@@@std@@$$FQEAA@XZ: ; std::_Container_proxy_ptr12<std::allocator<std::_Container_proxy> >::~_Container_proxy_ptr12<std::allocator<std::_Container_proxy> >
;	.proc.def	D:V(J)

; Function Header:
; max stack depth = 2
; function size = 17 bytes
; local varsig tk = 0x0 
; Exception Information:
; 0 handlers, each consisting of filtered handlers

;	.formal.i8 0,"this$" SIG: Optional C Binding Modifier(token:0x89575D1).Optional C Binding Modifier(token:0x89575D3).ptr.valueType (token:0x89575D6)

;	.proc.beg

; 1301 :         if (_Ptr) {

	ldarg.0				; this$
	ldind.i8	
	brfalse.s	$LN1@Container_

; 1302 :             _Delete_plain_internal(_Al, _Ptr);

	ldarg.0				; this$
	ldc.i.8		8		; i64 0x8
	conv.i8		
	add		
	ldind.i8	
	ldarg.0				; this$
	ldind.i8	
	call		??$_Delete_plain_internal@V?$allocator@U_Container_proxy@std@@@std@@@std@@$$FYAXAEAV?$allocator@U_Container_proxy@std@@@0@QEAU_Container_proxy@0@@Z
$LN1@Container_:

; 1303 :         }
; 1304 :     }

	ret		
 .end ??1?$_Container_proxy_ptr12@V?$allocator@U_Container_proxy@std@@@std@@@std@@$$FQEAA@XZ ; std::_Container_proxy_ptr12<std::allocator<std::_Container_proxy> >::~_Container_proxy_ptr12<std::allocator<std::_Container_proxy> >
;	.proc.end.void
	.bss
.local	$T1,0
; Function compile flags: /Odtp
; File C:\Program Files (x86)\Microsoft Visual Studio\2019\Enterprise\VC\Tools\MSVC\14.27.29110\include\xmemory
	.text
	.comdat	any, ?allocate@?$allocator@U_Container_proxy@std@@@std@@$$FQEAAPEAU_Container_proxy@2@_K@Z
.global	?allocate@?$allocator@U_Container_proxy@std@@@std@@$$FQEAAPEAU_Container_proxy@2@_K@Z ; std::allocator<std::_Container_proxy>::allocate
?allocate@?$allocator@U_Container_proxy@std@@@std@@$$FQEAAPEAU_Container_proxy@2@_K@Z: ; std::allocator<std::_Container_proxy>::allocate
;	.proc.def	D:J(JJ)

; Function Header:
; max stack depth = 1
; function size = 14 bytes
; local varsig tk = 0x11000037 
; Exception Information:
; 0 handlers, each consisting of filtered handlers

;	.formal.u8 1,"_Count$" SIG: Optional C Binding Modifier(token:0x8960891).u8
;	.local.i8 0,"$T2" SIG: ptr.valueType (token:0x88B9E3A)

;	.proc.beg

; 807  :         return static_cast<_Ty*>(_Allocate<_New_alignof<_Ty>>(_Get_size_of_n<sizeof(_Ty)>(_Count)));

	ldarg.1				; _Count$
	call		??$_Get_size_of_n@$0BA@@std@@$$FYA_K_K@Z
	call		??$_Allocate@$0BA@U_Default_allocate_traits@std@@$0A@@std@@$$FYAPEAX_K@Z
	stloc.0				; $T2

; 808  :     }

	ldloc.0				; $T2
	ret		
 .end ?allocate@?$allocator@U_Container_proxy@std@@@std@@$$FQEAAPEAU_Container_proxy@2@_K@Z ; std::allocator<std::_Container_proxy>::allocate
;	.proc.end.i8
.global	
	.bss
.local	,4
; Function compile flags: /Odtp
; File C:\Program Files (x86)\Microsoft Visual Studio\2019\Enterprise\VC\Tools\MSVC\14.27.29110\include\xmemory
	.text
	.comdat	any, ??1?$_Tidy_guard@V?$vector@HV?$allocator@H@std@@@std@@@std@@$$FQEAA@XZ
.global	??1?$_Tidy_guard@V?$vector@HV?$allocator@H@std@@@std@@@std@@$$FQEAA@XZ ; std::_Tidy_guard<std::vector<int,std::allocator<int> > >::~_Tidy_guard<std::vector<int,std::allocator<int> > >
??1?$_Tidy_guard@V?$vector@HV?$allocator@H@std@@@std@@@std@@$$FQEAA@XZ: ; std::_Tidy_guard<std::vector<int,std::allocator<int> > >::~_Tidy_guard<std::vector<int,std::allocator<int> > >
;	.proc.def	D:V(J)

; Function Header:
; max stack depth = 1
; function size = 12 bytes
; local varsig tk = 0x0 
; Exception Information:
; 0 handlers, each consisting of filtered handlers

;	.formal.i8 0,"this$" SIG: Optional C Binding Modifier(token:0x86FBF81).Optional C Binding Modifier(token:0x86FBF83).ptr.valueType (token:0x86FBF86)

;	.proc.beg

; 31   :         if (_Target) {

	ldarg.0				; this$
	ldind.i8	
	brfalse.s	$LN1@Tidy_guard

; 32   :             _Target->_Tidy();

	ldarg.0				; this$
	ldind.i8	
	call		?_Tidy@?$vector@HV?$allocator@H@std@@@std@@$$FAEAAXXZ
$LN1@Tidy_guard:

; 33   :         }
; 34   :     }

	ret		
 .end ??1?$_Tidy_guard@V?$vector@HV?$allocator@H@std@@@std@@@std@@$$FQEAA@XZ ; std::_Tidy_guard<std::vector<int,std::allocator<int> > >::~_Tidy_guard<std::vector<int,std::allocator<int> > >
;	.proc.end.void
	.bss
.local	$T1,0
; Function compile flags: /Odtp
; File C:\Program Files (x86)\Microsoft Visual Studio\2019\Enterprise\VC\Tools\MSVC\14.27.29110\include\vector
	.text
	.comdat	any, ?_Buy_raw@?$vector@HV?$allocator@H@std@@@std@@$$FAEAAX_K@Z
.global	?_Buy_raw@?$vector@HV?$allocator@H@std@@@std@@$$FAEAAX_K@Z ; std::vector<int,std::allocator<int> >::_Buy_raw
?_Buy_raw@?$vector@HV?$allocator@H@std@@@std@@$$FAEAAX_K@Z: ; std::vector<int,std::allocator<int> >::_Buy_raw
;	.proc.def	D:V(JJ)

; Function Header:
; max stack depth = 4
; function size = 49 bytes
; local varsig tk = 0x11000068 
; Exception Information:
; 0 handlers, each consisting of filtered handlers

;	.formal.i8 0,"this$" SIG: Optional C Binding Modifier(token:0x8952BD1).Optional C Binding Modifier(token:0x8952BD3).ptr.valueType (token:0x8952BD6)
;	.formal.u8 1,"_Newcapacity$" SIG: Optional C Binding Modifier(token:0x8960891).u8
;	.local.i8 0,"_Newvec$" SIG: Optional C Binding Modifier(token:0x8958639).Optional C Binding Modifier(token:0x895863B).ptr.i4
;	.local.i8 1,"_My_data$" SIG: Optional C Binding Modifier(token:0x86FBBB9).ptr.valueType (token:0x86FBBBC)
;	.local.i8 2,"_Myend$" SIG: Optional C Binding Modifier(token:0x8953D59).ptr.ptr.i4
;	.local.i8 3,"_Mylast$" SIG: Optional C Binding Modifier(token:0x8953D59).ptr.ptr.i4
;	.local.i8 4,"_Myfirst$" SIG: Optional C Binding Modifier(token:0x8953D59).ptr.ptr.i4

;	.proc.beg

; 1633 :         // allocate array with _Newcapacity elements
; 1634 :         auto& _My_data    = _Mypair._Myval2;

	ldarg.0				; this$
	stloc.1				; _My_data$

; 1635 :         pointer& _Myfirst = _My_data._Myfirst;

	ldloc.1				; _My_data$
	ldc.i.8		8		; i64 0x8
	conv.i8		
	add		
	stloc.s		4		; _Myfirst$

; 1636 :         pointer& _Mylast  = _My_data._Mylast;

	ldloc.1				; _My_data$
	ldc.i4.s	16		; i64 0x10
	conv.i8		
	add		
	stloc.3				; _Mylast$

; 1637 :         pointer& _Myend   = _My_data._Myend;

	ldloc.1				; _My_data$
	ldc.i4.s	24		; i64 0x18
	conv.i8		
	add		
	stloc.2				; _Myend$

; 1638 : 
; 1639 :         _STL_INTERNAL_CHECK(!_Myfirst && !_Mylast && !_Myend); // check that *this is tidy
; 1640 :         _STL_INTERNAL_CHECK(0 < _Newcapacity && _Newcapacity <= max_size());
; 1641 : 
; 1642 :         const auto _Newvec = _Getal().allocate(_Newcapacity);

	ldarg.0				; this$
	call		?_Getal@?$vector@HV?$allocator@H@std@@@std@@$$FAEAAAEAV?$allocator@H@2@XZ
	ldarg.1				; _Newcapacity$
	call		?allocate@?$allocator@H@std@@$$FQEAAPEAH_K@Z
	stloc.0				; _Newvec$

; 1643 :         _Myfirst           = _Newvec;

	ldloc.s		4		; _Myfirst$
	ldloc.0				; _Newvec$
	stind.i8	

; 1644 :         _Mylast            = _Newvec;

	ldloc.3				; _Mylast$
	ldloc.0				; _Newvec$
	stind.i8	

; 1645 :         _Myend             = _Newvec + _Newcapacity;

	ldloc.2				; _Myend$
	ldloc.0				; _Newvec$
	ldarg.1				; _Newcapacity$
	ldc.i.4		4		; u64 0x4
	conv.i8		
	mul		
	add		
	stind.i8	

; 1646 :     }

	ret		
 .end ?_Buy_raw@?$vector@HV?$allocator@H@std@@@std@@$$FAEAAX_K@Z ; std::vector<int,std::allocator<int> >::_Buy_raw
;	.proc.end.void
	.bss
.local	$T1,0
; Function compile flags: /Odtp
; File C:\Program Files (x86)\Microsoft Visual Studio\2019\Enterprise\VC\Tools\MSVC\14.27.29110\include\vector
	.text
	.comdat	any, ?max_size@?$vector@HV?$allocator@H@std@@@std@@$$FQEBA_KXZ
.global	?max_size@?$vector@HV?$allocator@H@std@@@std@@$$FQEBA_KXZ ; std::vector<int,std::allocator<int> >::max_size
?max_size@?$vector@HV?$allocator@H@std@@@std@@$$FQEBA_KXZ: ; std::vector<int,std::allocator<int> >::max_size
;	.proc.def	D:J(J)

; Function Header:
; max stack depth = 2
; function size = 31 bytes
; local varsig tk = 0x11000069 
; Exception Information:
; 0 handlers, each consisting of filtered handlers

;	.formal.i8 0,"this$" SIG: Optional C Binding Modifier(token:0x8958101).Optional C Binding Modifier(token:0x8958103).ptr.Optional C Binding Modifier(token:0x8958106).valueType (token:0x8958108)
;	.local.u8 0,"$T2" SIG: u8
;	.local.u8 1,"$T3" SIG: Optional C Binding Modifier(token:0x8960891).u8
;	.local.u8 2,"$T4" SIG: Optional C Binding Modifier(token:0x8960891).u8

;	.proc.beg

; 1488 :         return (_STD min)(

	ldarg.0				; this$
	call		?_Getal@?$vector@HV?$allocator@H@std@@@std@@$$FAEBAAEBV?$allocator@H@2@XZ
	call		?max_size@?$_Default_allocator_traits@V?$allocator@H@std@@@std@@$$FSA_KAEBV?$allocator@H@2@@Z
	stloc.2				; $T4
	call		?max@?$numeric_limits@_J@std@@$$FSA_JXZ
	stloc.1				; $T3
	ldloca.s	1		; $T3
	ldloca.s	2		; $T4
	call		??$min@_K@std@@$$FYAAEB_KAEB_K0@Z
	ldind.i8	
	stloc.0				; $T2

; 1489 :             static_cast<size_type>((numeric_limits<difference_type>::max)()), _Alty_traits::max_size(_Getal()));
; 1490 :     }

	ldloc.0				; $T2
	ret		
 .end ?max_size@?$vector@HV?$allocator@H@std@@@std@@$$FQEBA_KXZ ; std::vector<int,std::allocator<int> >::max_size
;	.proc.end.u8
	.bss
.local	$T1,0
; Function compile flags: /Odtp
; File C:\Program Files (x86)\Microsoft Visual Studio\2019\Enterprise\VC\Tools\MSVC\14.27.29110\include\vector
	.text
	.comdat	any, ??$_Ucopy@PEAH@?$vector@HV?$allocator@H@std@@@std@@$$FAEAAPEAHPEAH00@Z
.global	??$_Ucopy@PEAH@?$vector@HV?$allocator@H@std@@@std@@$$FAEAAPEAHPEAH00@Z ; std::vector<int,std::allocator<int> >::_Ucopy<int *>
??$_Ucopy@PEAH@?$vector@HV?$allocator@H@std@@@std@@$$FAEAAPEAHPEAH00@Z: ; std::vector<int,std::allocator<int> >::_Ucopy<int *>
;	.proc.def	D:J(JJJJ)

; Function Header:
; max stack depth = 4
; function size = 17 bytes
; local varsig tk = 0x1100003A 
; Exception Information:
; 0 handlers, each consisting of filtered handlers

;	.formal.i8 0,"this$" SIG: Optional C Binding Modifier(token:0x8952BD1).Optional C Binding Modifier(token:0x8952BD3).ptr.valueType (token:0x8952BD6)
;	.formal.i8 1,"_First$" SIG: ptr.i4
;	.formal.i8 2,"_Last$" SIG: ptr.i4
;	.formal.i8 3,"_Dest$" SIG: ptr.i4
;	.local.i8 0,"$T2" SIG: ptr.i4

;	.proc.beg

; 1588 :         return _Uninitialized_copy(_First, _Last, _Dest, _Getal());

	ldarg.1				; _First$
	ldarg.2				; _Last$
	ldarg.3				; _Dest$
	ldarg.0				; this$
	call		?_Getal@?$vector@HV?$allocator@H@std@@@std@@$$FAEAAAEAV?$allocator@H@2@XZ
	call		??$_Uninitialized_copy@PEAHV?$allocator@H@std@@@std@@$$FYAPEAHQEAH0PEAHAEAV?$allocator@H@0@@Z
	stloc.0				; $T2

; 1589 :     }

	ldloc.0				; $T2
	ret		
 .end ??$_Ucopy@PEAH@?$vector@HV?$allocator@H@std@@@std@@$$FAEAAPEAHPEAH00@Z ; std::vector<int,std::allocator<int> >::_Ucopy<int *>
;	.proc.end.i8
; Function compile flags: /Odtp
; File C:\Program Files (x86)\Microsoft Visual Studio\2019\Enterprise\VC\Tools\MSVC\14.27.29110\include\xmemory
	.text
	.comdat	any, ??0_Iterator_base12@std@@$$FQEAA@AEBU01@@Z
.global	??0_Iterator_base12@std@@$$FQEAA@AEBU01@@Z	; std::_Iterator_base12::_Iterator_base12
??0_Iterator_base12@std@@$$FQEAA@AEBU01@@Z:		; std::_Iterator_base12::_Iterator_base12
;	.proc.def	D:J(JJ)

; Function Header:
; max stack depth = 2
; function size = 21 bytes
; local varsig tk = 0x0 
; Exception Information:
; 0 handlers, each consisting of filtered handlers

;	.formal.i8 0,"this$" SIG: Optional C Binding Modifier(token:0x895FAF1).Optional C Binding Modifier(token:0x895FAF3).ptr.valueType (token:0x895FAF6)
;	.formal.i8 1,"_Right$" SIG: Optional C Binding Modifier(token:0x8953179).ptr.Optional C Binding Modifier(token:0x895317C).valueType (token:0x895317E)

;	.proc.beg

; 1123 :     _Iterator_base12(const _Iterator_base12& _Right) noexcept : _Myproxy(nullptr), _Mynextiter(nullptr) {

	ldarg.0				; this$
	ldc.i.0		0		; i64 0x0
	conv.i8		
	stind.i8	
	ldarg.0				; this$
	ldc.i.8		8		; i64 0x8
	conv.i8		
	add		
	ldc.i.0		0		; i64 0x0
	conv.i8		
	stind.i8	

; 1124 :         *this = _Right;

	ldarg.0				; this$
	ldarg.1				; _Right$
	call		??4_Iterator_base12@std@@$$FQEAAAEAU01@AEBU01@@Z
	pop		

; 1125 :     }

	ldarg.0				; this$
	ret		
 .end ??0_Iterator_base12@std@@$$FQEAA@AEBU01@@Z	; std::_Iterator_base12::_Iterator_base12
;	.proc.end.i8
PUBLIC	__t2m@??0_Iterator_base12@std@@QEAA@AEBU01@@Z
PUBLIC	__m2mep@??0_Iterator_base12@std@@$$FQEAA@AEBU01@@Z
PUBLIC	__mep@??0_Iterator_base12@std@@$$FQEAA@AEBU01@@Z
;	COMDAT __mep@??0_Iterator_base12@std@@$$FQEAA@AEBU01@@Z
data	SEGMENT
__mep@??0_Iterator_base12@std@@$$FQEAA@AEBU01@@Z TOKEN 0A000073
data	ENDS
;	COMDAT __m2mep@??0_Iterator_base12@std@@$$FQEAA@AEBU01@@Z
data	SEGMENT
__m2mep@??0_Iterator_base12@std@@$$FQEAA@AEBU01@@Z DD FLAT:??0_Iterator_base12@std@@$$FQEAA@AEBU01@@Z
data	ENDS
; Function compile flags: /Ods
;	COMDAT nep
_TEXT	SEGMENT
__t2m@??0_Iterator_base12@std@@QEAA@AEBU01@@Z PROC	; COMDAT
	jmp	SHORT $LN1@
	ud2
$LN2@:
	jmp	QWORD PTR __m2mep@??0_Iterator_base12@std@@$$FQEAA@AEBU01@@Z
$LN1@:
	jmp	QWORD PTR __mep@??0_Iterator_base12@std@@$$FQEAA@AEBU01@@Z
__t2m@??0_Iterator_base12@std@@QEAA@AEBU01@@Z ENDP
_TEXT	ENDS
.global	?groupBox2@DisplayHistogram@CLRCV@@3PE$AAVGroupBox@Forms@Windows@System@@E$AA ; CLRCV::DisplayHistogram::groupBox2
	.bss
.local	?groupBox2@DisplayHistogram@CLRCV@@3PE$AAVGroupBox@Forms@Windows@System@@E$AA,8 ; CLRCV::DisplayHistogram::groupBox2
.local	$StringLiteralTok$??_C@_1BE@OBJAHENL@?$AAm?$AAa?$AAi?$AAn?$AAc?$AAh?$AAa?$AAr?$AAt@,4
.local	$StringLiteralTok$??_C@_1BE@MPMAHAGC@?$AAH?$AAi?$AAs?$AAt?$AAo?$AAg?$AAr?$AAa?$AAm@,4
.local	$StringLiteralTok$??_C@_1BE@CBCMKBFK@?$AAg?$AAr?$AAo?$AAu?$AAp?$AAB?$AAo?$AAx?$AA2@,4
.local	$StringLiteralTok$??_C@_1CC@HNLHOEOD@?$AAD?$AAi?$AAs?$AAp?$AAl?$AAa?$AAy?$AAH?$AAi?$AAs?$AAt?$AAo?$AAg?$AAr?$AAa@,4
.local	$T1,0
; Function compile flags: /Odtp
; File C:\Users\César Mosqueira\source\repos\CLRCV\CLRCV\DisplayHistogram.h
	.text
	.comdat	any, ?InitializeComponent@DisplayHistogram@CLRCV@@$$FAE$AAMXXZ
.global	?InitializeComponent@DisplayHistogram@CLRCV@@$$FAE$AAMXXZ ; CLRCV::DisplayHistogram::InitializeComponent
?InitializeComponent@DisplayHistogram@CLRCV@@$$FAE$AAMXXZ: ; CLRCV::DisplayHistogram::InitializeComponent
;	.proc.def	D:V()

; Function Header:
; max stack depth = 3
; function size = 450 bytes
; local varsig tk = 0x1100006A 
; Exception Information:
; 0 handlers, each consisting of filtered handlers

;	.formal.mptr 0,"this$" SIG: Optional C Binding Modifier(token:0x895DDB1).class (token:0x895DDB3)
;	.local.mb8   0,"$T2" SIG: valueType (token:0x86F65A1)
;	.local.mb8   1,"$T3" SIG: valueType (token:0x86F65A1)
;	.local.mb8   2,"$T4" SIG: valueType (token:0x86F65A1)
;	.local.mb8   3,"$T5" SIG: valueType (token:0x86FFCB9)
;	.local.mb8   4,"$T6" SIG: valueType (token:0x86F65A1)
;	.local.mb8   5,"$T7" SIG: valueType (token:0x8958E91)
;	.local.mb8   6,"$T8" SIG: valueType (token:0x86F65A1)
;	.local.mb8   7,"$T9" SIG: valueType (token:0x8958E91)

;	.proc.beg

; 59   : 			this->mainchart = (gcnew System::Windows::Forms::DataVisualization::Charting::Chart());

	ldarg.0				; this$
	newobj		??0Chart@Charting@DataVisualization@Forms@Windows@System@@$$FQE$AAM@XZ
	stfld		?mainchart@DisplayHistogram@CLRCV@@3PE$AAVChart@Charting@DataVisualization@Forms@Windows@System@@E$AA

; 60   : 			this->groupBox2 = (gcnew System::Windows::Forms::GroupBox());

	ldarg.0				; this$
	newobj		??0GroupBox@Forms@Windows@System@@$$FQE$AAM@XZ
	stfld		?groupBox2@DisplayHistogram@CLRCV@@3PE$AAVGroupBox@Forms@Windows@System@@E$AA

; 61   : 			(cli::safe_cast<System::ComponentModel::ISupportInitialize^>(this->mainchart))->BeginInit();

	ldarg.0				; this$
	ldfld		?mainchart@DisplayHistogram@CLRCV@@3PE$AAVChart@Charting@DataVisualization@Forms@Windows@System@@E$AA
	callvirt	?BeginInit@ISupportInitialize@ComponentModel@System@@$$FUE$AAMXXZ

; 62   : 			this->SuspendLayout();

	ldarg.0				; this$
	call		?SuspendLayout@Control@Forms@Windows@System@@$$FQE$AAMXXZ

; 63   : 			// 
; 64   : 			// mainchart
; 65   : 			// 
; 66   : 			this->mainchart->Location = System::Drawing::Point(27, 31);

	ldloca.s	7		; $T9
	ldc.i4.s	27		; i32 0x1b
	ldc.i4.s	31		; i32 0x1f
	call		??0Point@Drawing@System@@$$FQE$CAM@HH@Z
	ldarg.0				; this$
	ldfld		?mainchart@DisplayHistogram@CLRCV@@3PE$AAVChart@Charting@DataVisualization@Forms@Windows@System@@E$AA
	ldloc.s		7		; $T9
	call		?set@Location@Control@Forms@Windows@System@@$$FQE$AAMXVPoint@Drawing@5@@Z

; 67   : 			this->mainchart->Name = L"mainchart";

	ldarg.0				; this$
	ldfld		?mainchart@DisplayHistogram@CLRCV@@3PE$AAVChart@Charting@DataVisualization@Forms@Windows@System@@E$AA
	ldstr		$StringLiteralTok$??_C@_1BE@OBJAHENL@?$AAm?$AAa?$AAi?$AAn?$AAc?$AAh?$AAa?$AAr?$AAt@
	call		?set@Name@Control@Forms@Windows@System@@$$FQE$AAMXPE$AAVString@5@@Z

; 68   : 			this->mainchart->Size = System::Drawing::Size(999, 445);

	ldloca.s	6		; $T8
	ldc.i4		999		; i32 0x3e7
	ldc.i4		445		; i32 0x1bd
	call		??0Size@Drawing@System@@$$FQE$CAM@HH@Z
	ldarg.0				; this$
	ldfld		?mainchart@DisplayHistogram@CLRCV@@3PE$AAVChart@Charting@DataVisualization@Forms@Windows@System@@E$AA
	ldloc.s		6		; $T8
	call		?set@Size@Chart@Charting@DataVisualization@Forms@Windows@System@@$$FQE$AAMXV1Drawing@7@@Z

; 69   : 			this->mainchart->TabIndex = 0;

	ldarg.0				; this$
	ldfld		?mainchart@DisplayHistogram@CLRCV@@3PE$AAVChart@Charting@DataVisualization@Forms@Windows@System@@E$AA
	ldc.i.0		0		; i32 0x0
	call		?set@TabIndex@Control@Forms@Windows@System@@$$FQE$AAMXH@Z

; 70   : 			this->mainchart->Text = L"Histogram";

	ldarg.0				; this$
	ldfld		?mainchart@DisplayHistogram@CLRCV@@3PE$AAVChart@Charting@DataVisualization@Forms@Windows@System@@E$AA
	ldstr		$StringLiteralTok$??_C@_1BE@MPMAHAGC@?$AAH?$AAi?$AAs?$AAt?$AAo?$AAg?$AAr?$AAa?$AAm@
	callvirt	?set@Text@Control@Forms@Windows@System@@$$FUE$AAMXPE$AAVString@5@@Z

; 71   : 			// 
; 72   : 			// groupBox2
; 73   : 			// 
; 74   : 			this->groupBox2->Location = System::Drawing::Point(12, 12);

	ldloca.s	5		; $T7
	ldc.i4.s	12		; i32 0xc
	ldc.i4.s	12		; i32 0xc
	call		??0Point@Drawing@System@@$$FQE$CAM@HH@Z
	ldarg.0				; this$
	ldfld		?groupBox2@DisplayHistogram@CLRCV@@3PE$AAVGroupBox@Forms@Windows@System@@E$AA
	ldloc.s		5		; $T7
	call		?set@Location@Control@Forms@Windows@System@@$$FQE$AAMXVPoint@Drawing@5@@Z

; 75   : 			this->groupBox2->Name = L"groupBox2";

	ldarg.0				; this$
	ldfld		?groupBox2@DisplayHistogram@CLRCV@@3PE$AAVGroupBox@Forms@Windows@System@@E$AA
	ldstr		$StringLiteralTok$??_C@_1BE@CBCMKBFK@?$AAg?$AAr?$AAo?$AAu?$AAp?$AAB?$AAo?$AAx?$AA2@
	call		?set@Name@Control@Forms@Windows@System@@$$FQE$AAMXPE$AAVString@5@@Z

; 76   : 			this->groupBox2->Size = System::Drawing::Size(1039, 483);

	ldloca.s	4		; $T6
	ldc.i4		1039		; i32 0x40f
	ldc.i4		483		; i32 0x1e3
	call		??0Size@Drawing@System@@$$FQE$CAM@HH@Z
	ldarg.0				; this$
	ldfld		?groupBox2@DisplayHistogram@CLRCV@@3PE$AAVGroupBox@Forms@Windows@System@@E$AA
	ldloc.s		4		; $T6
	call		?set@Size@Control@Forms@Windows@System@@$$FQE$AAMXV1Drawing@5@@Z

; 77   : 			this->groupBox2->TabIndex = 2;

	ldarg.0				; this$
	ldfld		?groupBox2@DisplayHistogram@CLRCV@@3PE$AAVGroupBox@Forms@Windows@System@@E$AA
	ldc.i.2		2		; i32 0x2
	call		?set@TabIndex@Control@Forms@Windows@System@@$$FQE$AAMXH@Z

; 78   : 			this->groupBox2->TabStop = false;

	ldarg.0				; this$
	ldfld		?groupBox2@DisplayHistogram@CLRCV@@3PE$AAVGroupBox@Forms@Windows@System@@E$AA
	ldc.i.0		0		; u8 0x0
	call		?set@TabStop@GroupBox@Forms@Windows@System@@$$FQE$AAMX_N@Z

; 79   : 			this->groupBox2->Text = L"Histogram";

	ldarg.0				; this$
	ldfld		?groupBox2@DisplayHistogram@CLRCV@@3PE$AAVGroupBox@Forms@Windows@System@@E$AA
	ldstr		$StringLiteralTok$??_C@_1BE@MPMAHAGC@?$AAH?$AAi?$AAs?$AAt?$AAo?$AAg?$AAr?$AAa?$AAm@
	callvirt	?set@Text@GroupBox@Forms@Windows@System@@$$FUE$AAMXPE$AAVString@5@@Z

; 80   : 			// 
; 81   : 			// DisplayHistogram
; 82   : 			// 
; 83   : 			this->AutoScaleDimensions = System::Drawing::SizeF(6, 13);

	ldloca.s	3		; $T5
	ldc.r4		6.000000
	ldc.r4		13.000000
	call		??0SizeF@Drawing@System@@$$FQE$CAM@MM@Z
	ldarg.0				; this$
	ldloc.3				; $T5
	call		?set@AutoScaleDimensions@ContainerControl@Forms@Windows@System@@$$FQE$AAMXVSizeF@Drawing@5@@Z

; 84   : 			this->AutoScaleMode = System::Windows::Forms::AutoScaleMode::Font;

	ldarg.0				; this$
	ldc.i.1		1		; i32 0x1
	call		?set@AutoScaleMode@ContainerControl@Forms@Windows@System@@$$FQE$AAMXW41345@@Z

; 85   : 			this->ClientSize = System::Drawing::Size(1063, 507);

	ldloca.s	2		; $T4
	ldc.i4		1063		; i32 0x427
	ldc.i4		507		; i32 0x1fb
	call		??0Size@Drawing@System@@$$FQE$CAM@HH@Z
	ldarg.0				; this$
	ldloc.2				; $T4
	call		?set@ClientSize@Form@Forms@Windows@System@@$$FQE$AAMXVSize@Drawing@5@@Z

; 86   : 			this->Controls->Add(this->mainchart);

	ldarg.0				; this$
	call		?get@Controls@Control@Forms@Windows@System@@$$FQE$AAMPE$AAVControlCollection@2345@XZ
	ldarg.0				; this$
	ldfld		?mainchart@DisplayHistogram@CLRCV@@3PE$AAVChart@Charting@DataVisualization@Forms@Windows@System@@E$AA
	callvirt	?Add@ControlCollection@Control@Forms@Windows@System@@$$FUE$AAMXPE$AAV2345@@Z

; 87   : 			this->Controls->Add(this->groupBox2);

	ldarg.0				; this$
	call		?get@Controls@Control@Forms@Windows@System@@$$FQE$AAMPE$AAVControlCollection@2345@XZ
	ldarg.0				; this$
	ldfld		?groupBox2@DisplayHistogram@CLRCV@@3PE$AAVGroupBox@Forms@Windows@System@@E$AA
	callvirt	?Add@ControlCollection@Control@Forms@Windows@System@@$$FUE$AAMXPE$AAV2345@@Z

; 88   : 			this->MaximizeBox = false;

	ldarg.0				; this$
	ldc.i.0		0		; u8 0x0
	call		?set@MaximizeBox@Form@Forms@Windows@System@@$$FQE$AAMX_N@Z

; 89   : 			this->MaximumSize = System::Drawing::Size(1079, 546);

	ldloca.s	1		; $T3
	ldc.i4		1079		; i32 0x437
	ldc.i4		546		; i32 0x222
	call		??0Size@Drawing@System@@$$FQE$CAM@HH@Z
	ldarg.0				; this$
	ldloc.1				; $T3
	callvirt	?set@MaximumSize@Form@Forms@Windows@System@@$$FUE$AAMXVSize@Drawing@5@@Z

; 90   : 			this->MinimumSize = System::Drawing::Size(1079, 546);

	ldloca.s	0		; $T2
	ldc.i4		1079		; i32 0x437
	ldc.i4		546		; i32 0x222
	call		??0Size@Drawing@System@@$$FQE$CAM@HH@Z
	ldarg.0				; this$
	ldloc.0				; $T2
	callvirt	?set@MinimumSize@Form@Forms@Windows@System@@$$FUE$AAMXVSize@Drawing@5@@Z

; 91   : 			this->Name = L"DisplayHistogram";

	ldarg.0				; this$
	ldstr		$StringLiteralTok$??_C@_1CC@HNLHOEOD@?$AAD?$AAi?$AAs?$AAp?$AAl?$AAa?$AAy?$AAH?$AAi?$AAs?$AAt?$AAo?$AAg?$AAr?$AAa@
	call		?set@Name@Control@Forms@Windows@System@@$$FQE$AAMXPE$AAVString@5@@Z

; 92   : 			this->Text = L"DisplayHistogram";

	ldarg.0				; this$
	ldstr		$StringLiteralTok$??_C@_1CC@HNLHOEOD@?$AAD?$AAi?$AAs?$AAp?$AAl?$AAa?$AAy?$AAH?$AAi?$AAs?$AAt?$AAo?$AAg?$AAr?$AAa@
	callvirt	?set@Text@Form@Forms@Windows@System@@$$FUE$AAMXPE$AAVString@5@@Z

; 93   : 			this->Load += gcnew System::EventHandler(this, &DisplayHistogram::DisplayHistogram_Load);

	ldarg.0				; this$
	dup		
	ldftn		?DisplayHistogram_Load@DisplayHistogram@CLRCV@@$$FAE$AAMXPE$AAVObject@System@@PE$AAVEventArgs@4@@Z
	newobj		??0EventHandler@System@@$$FQE$AAM@PE$AAVObject@1@VIntPtr@1@@Z
	call		?add@Load@Form@Forms@Windows@System@@$$FQE$AAMXPE$AAVEventHandler@5@@Z

; 94   : 			(cli::safe_cast<System::ComponentModel::ISupportInitialize^>(this->mainchart))->EndInit();

	ldarg.0				; this$
	ldfld		?mainchart@DisplayHistogram@CLRCV@@3PE$AAVChart@Charting@DataVisualization@Forms@Windows@System@@E$AA
	callvirt	?EndInit@ISupportInitialize@ComponentModel@System@@$$FUE$AAMXXZ

; 95   : 			this->ResumeLayout(false);

	ldarg.0				; this$
	ldc.i.0		0		; u8 0x0
	call		?ResumeLayout@Control@Forms@Windows@System@@$$FQE$AAMX_N@Z

; 96   : 
; 97   : 		}

	ret		
 .end ?InitializeComponent@DisplayHistogram@CLRCV@@$$FAE$AAMXXZ ; CLRCV::DisplayHistogram::InitializeComponent
;	.proc.end.void
.global	
	.bss
.local	,4
; Function compile flags: /Odtp
	.text
	.comdat	any, ??0?$_Vector_const_iterator@V?$_Vector_val@U?$_Simple_types@H@std@@@std@@@std@@$$FQEAA@$$QEAV01@@Z
.global	??0?$_Vector_const_iterator@V?$_Vector_val@U?$_Simple_types@H@std@@@std@@@std@@$$FQEAA@$$QEAV01@@Z ; std::_Vector_const_iterator<std::_Vector_val<std::_Simple_types<int> > >::_Vector_const_iterator<std::_Vector_val<std::_Simple_types<int> > >
??0?$_Vector_const_iterator@V?$_Vector_val@U?$_Simple_types@H@std@@@std@@@std@@$$FQEAA@$$QEAV01@@Z: ; std::_Vector_const_iterator<std::_Vector_val<std::_Simple_types<int> > >::_Vector_const_iterator<std::_Vector_val<std::_Simple_types<int> > >
;	.proc.def	D:J(JJ)

; Function Header:
; max stack depth = 3
; function size = 37 bytes
; local varsig tk = 0x0 
; Exception Information:
; 1 handlers, each consisting of filtered handlers

;	.formal.i8 0,"this$" SIG: Optional C Binding Modifier(token:0x86FF5A9).Optional C Binding Modifier(token:0x86FF5AB).ptr.valueType (token:0x86FF5AE)
;	.formal.i8 1,"__that$" SIG: Optional C Binding Modifier(token:0x86FC941).Optional C Binding Modifier(token:0x86FC943).ptr.valueType (token:0x86FC946)

;	.proc.beg
	ldarg.0				; this$
	ldarg.1				; __that$
	call		??0_Iterator_base12@std@@$$FQEAA@AEBU01@@Z
	pop		
$LN4@Vector_con:
	ldarg.0				; this$
	ldc.i4.s	16		; i64 0x10
	conv.i8		
	add		
	ldarg.1				; __that$
	ldc.i4.s	16		; i64 0x10
	conv.i8		
	add		
	ldind.i8	
	stind.i8	
	leave.s		$LN5@Vector_con
$LN6@Vector_con:
	ldftn		??1_Iterator_base12@std@@$$FQEAA@XZ
	ldarg.0				; this$
	call		?___CxxCallUnwindDtor@@$$J0YMXP6MXPEAX@Z0@Z
	endfinally	
$LN5@Vector_con:
	ldarg.0				; this$
	ret		
 .end ??0?$_Vector_const_iterator@V?$_Vector_val@U?$_Simple_types@H@std@@@std@@@std@@$$FQEAA@$$QEAV01@@Z ; std::_Vector_const_iterator<std::_Vector_val<std::_Simple_types<int> > >::_Vector_const_iterator<std::_Vector_val<std::_Simple_types<int> > >
;	.proc.end.i8
.global	
	.bss
.local	,4
; Function compile flags: /Odtp
	.text
	.comdat	any, ??0?$_Vector_iterator@V?$_Vector_val@U?$_Simple_types@H@std@@@std@@@std@@$$FQEAA@$$QEAV01@@Z
.global	??0?$_Vector_iterator@V?$_Vector_val@U?$_Simple_types@H@std@@@std@@@std@@$$FQEAA@$$QEAV01@@Z ; std::_Vector_iterator<std::_Vector_val<std::_Simple_types<int> > >::_Vector_iterator<std::_Vector_val<std::_Simple_types<int> > >
??0?$_Vector_iterator@V?$_Vector_val@U?$_Simple_types@H@std@@@std@@@std@@$$FQEAA@$$QEAV01@@Z: ; std::_Vector_iterator<std::_Vector_val<std::_Simple_types<int> > >::_Vector_iterator<std::_Vector_val<std::_Simple_types<int> > >
;	.proc.def	D:J(JJ)

; Function Header:
; max stack depth = 2
; function size = 10 bytes
; local varsig tk = 0x0 
; Exception Information:
; 0 handlers, each consisting of filtered handlers

;	.formal.i8 0,"this$" SIG: Optional C Binding Modifier(token:0x86F51A1).Optional C Binding Modifier(token:0x86F51A3).ptr.valueType (token:0x86F51A6)
;	.formal.i8 1,"__that$" SIG: Optional C Binding Modifier(token:0x86DA281).Optional C Binding Modifier(token:0x86DA283).ptr.valueType (token:0x86DA286)

;	.proc.beg
	ldarg.0				; this$
	ldarg.1				; __that$
	call		??0?$_Vector_const_iterator@V?$_Vector_val@U?$_Simple_types@H@std@@@std@@@std@@$$FQEAA@$$QEAV01@@Z
	pop		
	ldarg.0				; this$
	ret		
 .end ??0?$_Vector_iterator@V?$_Vector_val@U?$_Simple_types@H@std@@@std@@@std@@$$FQEAA@$$QEAV01@@Z ; std::_Vector_iterator<std::_Vector_val<std::_Simple_types<int> > >::_Vector_iterator<std::_Vector_val<std::_Simple_types<int> > >
;	.proc.end.i8
	.bss
.local	$T1,0
; Function compile flags: /Odtp
; File C:\Program Files (x86)\Microsoft Visual Studio\2019\Enterprise\VC\Tools\MSVC\14.27.29110\include\vector
	.text
	.comdat	any, ?end@?$vector@HV?$allocator@H@std@@@std@@$$FQEAA?AV?$_Vector_iterator@V?$_Vector_val@U?$_Simple_types@H@std@@@std@@@2@XZ
.global	?end@?$vector@HV?$allocator@H@std@@@std@@$$FQEAA?AV?$_Vector_iterator@V?$_Vector_val@U?$_Simple_types@H@std@@@std@@@2@XZ ; std::vector<int,std::allocator<int> >::end
?end@?$vector@HV?$allocator@H@std@@@std@@$$FQEAA?AV?$_Vector_iterator@V?$_Vector_val@U?$_Simple_types@H@std@@@std@@@2@XZ: ; std::vector<int,std::allocator<int> >::end
;	.proc.def	D:J(JJ)

; Function Header:
; max stack depth = 3
; function size = 58 bytes
; local varsig tk = 0x1100006D 
; Exception Information:
; 1 handlers, each consisting of filtered handlers

;	.formal.i8 0,"this$" SIG: Optional C Binding Modifier(token:0x8952BD1).Optional C Binding Modifier(token:0x8952BD3).ptr.valueType (token:0x8952BD6)
;	.formal.i8 1,"__$ReturnUdt$" SIG: ptr.valueType (token:0x895FC1A)
;	.local.u4 0,"$T2"
;	.local.i8 1,"_My_data$" SIG: Optional C Binding Modifier(token:0x86FBBB9).ptr.valueType (token:0x86FBBBC)
;	.local.i8 2,"$T3" SIG: ptr.valueType (token:0x88D2EB2)
;	.local.i8 3,"$T4" SIG: ptr.valueType (token:0x88D2EB2)

;	.proc.beg

; 1419 :     _NODISCARD iterator end() noexcept {

	ldc.i.0		0		; i32 0x0
	stloc.0				; $T2

; 1420 :         auto& _My_data = _Mypair._Myval2;

	ldarg.0				; this$
	stloc.1				; _My_data$

; 1421 :         return iterator(_My_data._Mylast, _STD addressof(_My_data));

	ldarg.1				; __$ReturnUdt$
	ldloc.1				; _My_data$
	ldc.i4.s	16		; i64 0x10
	conv.i8		
	add		
	ldind.i8	
	ldloc.1				; _My_data$
	call		??$addressof@V?$_Vector_val@U?$_Simple_types@H@std@@@std@@@std@@$$FYAPEAV?$_Vector_val@U?$_Simple_types@H@std@@@0@AEAV10@@Z
	call		??0?$_Vector_iterator@V?$_Vector_val@U?$_Simple_types@H@std@@@std@@@std@@$$FQEAA@PEAHPEBU_Container_base12@1@@Z
	pop		
$LN5@end:
	ldloc.0				; $T2
	ldc.i.1		1		; i32 0x1
	or		
	stloc.0				; $T2
	ldarg.1				; __$ReturnUdt$
	stloc.3				; $T4

; 1422 :     }

	ldloc.3				; $T4
	stloc.2				; $T3
	leave.s		$LN6@end
$LN7@end:
	ldloc.0				; $T2
	ldc.i.1		1		; i32 0x1
	and		
	brfalse.s	$LN8@end
	ldloc.0				; $T2
	ldc.i4.s	-2		; i32 0xfffffffe
	and		
	stloc.0				; $T2
	ldftn		??1?$_Vector_iterator@V?$_Vector_val@U?$_Simple_types@H@std@@@std@@@std@@$$FQEAA@XZ
	ldarg.1				; __$ReturnUdt$
	call		?___CxxCallUnwindDtor@@$$J0YMXP6MXPEAX@Z0@Z
$LN8@end:
	endfinally	
$LN6@end:
	ldloc.2				; $T3
	ret		
 .end ?end@?$vector@HV?$allocator@H@std@@@std@@$$FQEAA?AV?$_Vector_iterator@V?$_Vector_val@U?$_Simple_types@H@std@@@std@@@2@XZ ; std::vector<int,std::allocator<int> >::end
;	.proc.end.i8
	.bss
.local	$T1,0
; Function compile flags: /Odtp
; File C:\Program Files (x86)\Microsoft Visual Studio\2019\Enterprise\VC\Tools\MSVC\14.27.29110\include\vector
	.text
	.comdat	any, ?begin@?$vector@HV?$allocator@H@std@@@std@@$$FQEAA?AV?$_Vector_iterator@V?$_Vector_val@U?$_Simple_types@H@std@@@std@@@2@XZ
.global	?begin@?$vector@HV?$allocator@H@std@@@std@@$$FQEAA?AV?$_Vector_iterator@V?$_Vector_val@U?$_Simple_types@H@std@@@std@@@2@XZ ; std::vector<int,std::allocator<int> >::begin
?begin@?$vector@HV?$allocator@H@std@@@std@@$$FQEAA?AV?$_Vector_iterator@V?$_Vector_val@U?$_Simple_types@H@std@@@std@@@2@XZ: ; std::vector<int,std::allocator<int> >::begin
;	.proc.def	D:J(JJ)

; Function Header:
; max stack depth = 3
; function size = 57 bytes
; local varsig tk = 0x1100006D 
; Exception Information:
; 1 handlers, each consisting of filtered handlers

;	.formal.i8 0,"this$" SIG: Optional C Binding Modifier(token:0x8952BD1).Optional C Binding Modifier(token:0x8952BD3).ptr.valueType (token:0x8952BD6)
;	.formal.i8 1,"__$ReturnUdt$" SIG: ptr.valueType (token:0x895FC1A)
;	.local.u4 0,"$T2"
;	.local.i8 1,"_My_data$" SIG: Optional C Binding Modifier(token:0x86FBBB9).ptr.valueType (token:0x86FBBBC)
;	.local.i8 2,"$T3" SIG: ptr.valueType (token:0x88D3842)
;	.local.i8 3,"$T4" SIG: ptr.valueType (token:0x88D3842)

;	.proc.beg

; 1409 :     _NODISCARD iterator begin() noexcept {

	ldc.i.0		0		; i32 0x0
	stloc.0				; $T2

; 1410 :         auto& _My_data = _Mypair._Myval2;

	ldarg.0				; this$
	stloc.1				; _My_data$

; 1411 :         return iterator(_My_data._Myfirst, _STD addressof(_My_data));

	ldarg.1				; __$ReturnUdt$
	ldloc.1				; _My_data$
	ldc.i.8		8		; i64 0x8
	conv.i8		
	add		
	ldind.i8	
	ldloc.1				; _My_data$
	call		??$addressof@V?$_Vector_val@U?$_Simple_types@H@std@@@std@@@std@@$$FYAPEAV?$_Vector_val@U?$_Simple_types@H@std@@@0@AEAV10@@Z
	call		??0?$_Vector_iterator@V?$_Vector_val@U?$_Simple_types@H@std@@@std@@@std@@$$FQEAA@PEAHPEBU_Container_base12@1@@Z
	pop		
$LN5@begin:
	ldloc.0				; $T2
	ldc.i.1		1		; i32 0x1
	or		
	stloc.0				; $T2
	ldarg.1				; __$ReturnUdt$
	stloc.3				; $T4

; 1412 :     }

	ldloc.3				; $T4
	stloc.2				; $T3
	leave.s		$LN6@begin
$LN7@begin:
	ldloc.0				; $T2
	ldc.i.1		1		; i32 0x1
	and		
	brfalse.s	$LN8@begin
	ldloc.0				; $T2
	ldc.i4.s	-2		; i32 0xfffffffe
	and		
	stloc.0				; $T2
	ldftn		??1?$_Vector_iterator@V?$_Vector_val@U?$_Simple_types@H@std@@@std@@@std@@$$FQEAA@XZ
	ldarg.1				; __$ReturnUdt$
	call		?___CxxCallUnwindDtor@@$$J0YMXP6MXPEAX@Z0@Z
$LN8@begin:
	endfinally	
$LN6@begin:
	ldloc.2				; $T3
	ret		
 .end ?begin@?$vector@HV?$allocator@H@std@@@std@@$$FQEAA?AV?$_Vector_iterator@V?$_Vector_val@U?$_Simple_types@H@std@@@std@@@2@XZ ; std::vector<int,std::allocator<int> >::begin
;	.proc.end.i8
.global	
	.bss
.local	,4
.local	$T1,0
; Function compile flags: /Odtp
; File C:\Program Files (x86)\Microsoft Visual Studio\2019\Enterprise\VC\Tools\MSVC\14.27.29110\include\vector
	.text
	.comdat	any, ??1?$vector@HV?$allocator@H@std@@@std@@$$FQEAA@XZ
.global	??1?$vector@HV?$allocator@H@std@@@std@@$$FQEAA@XZ ; std::vector<int,std::allocator<int> >::~vector<int,std::allocator<int> >
??1?$vector@HV?$allocator@H@std@@@std@@$$FQEAA@XZ:	; std::vector<int,std::allocator<int> >::~vector<int,std::allocator<int> >
;	.proc.def	D:V(J)

; Function Header:
; max stack depth = 3
; function size = 41 bytes
; local varsig tk = 0x1100006F 
; Exception Information:
; 0 handlers, each consisting of filtered handlers

;	.formal.i8 0,"this$" SIG: Optional C Binding Modifier(token:0x8952BD1).Optional C Binding Modifier(token:0x8952BD3).ptr.valueType (token:0x8952BD6)
;	.local.i8 0,"_Alproxy$" SIG: Optional C Binding Modifier(token:0x8956FC1).Optional C Binding Modifier(token:0x8956FC3).ptr.valueType (token:0x8956FC6)
;	.local.i8 1,"$T2" SIG: ptr.void
;	.local.mb1   2,"$S1$" SIG: valueType (token:0x895DE81)

;	.proc.beg

; 673  :         _Tidy();

	ldarg.0				; this$
	call		?_Tidy@?$vector@HV?$allocator@H@std@@@std@@$$FAEAAXXZ

; 674  : #if _ITERATOR_DEBUG_LEVEL != 0
; 675  :         auto&& _Alproxy = _GET_PROXY_ALLOCATOR(_Alty, _Getal());

	ldloca.s	2		; $S1$
	ldarg.0				; this$
	call		?_Getal@?$vector@HV?$allocator@H@std@@@std@@$$FAEAAAEAV?$allocator@H@2@XZ
	call		??$?0H@?$allocator@U_Container_proxy@std@@@std@@$$FQEAA@AEBV?$allocator@H@1@@Z
	pop		
	ldloca.s	2		; $S1$
	stloc.0				; _Alproxy$

; 676  :         _Delete_plain_internal(_Alproxy, _STD exchange(_Mypair._Myval2._Myproxy, nullptr));

	ldc.i.0		0		; i64 0x0
	conv.i8		
	stloc.1				; $T2
	ldloc.0				; _Alproxy$
	ldarg.0				; this$
	ldloca.s	1		; $T2
	call		??$exchange@PEAU_Container_proxy@std@@$$T@std@@$$FYAPEAU_Container_proxy@0@AEAPEAU10@$$QEA$$T@Z
	call		??$_Delete_plain_internal@V?$allocator@U_Container_proxy@std@@@std@@@std@@$$FYAXAEAV?$allocator@U_Container_proxy@std@@@0@QEAU_Container_proxy@0@@Z

; 677  : #endif // _ITERATOR_DEBUG_LEVEL != 0
; 678  :     }

	ret		
 .end ??1?$vector@HV?$allocator@H@std@@@std@@$$FQEAA@XZ	; std::vector<int,std::allocator<int> >::~vector<int,std::allocator<int> >
;	.proc.end.void
	.bss
.local	$T1,0
; Function compile flags: /Odtp
; File C:\Program Files (x86)\Microsoft Visual Studio\2019\Enterprise\VC\Tools\MSVC\14.27.29110\include\xmemory
	.text
	.comdat	any, ??0?$_Container_proxy_ptr12@V?$allocator@U_Container_proxy@std@@@std@@@std@@$$FQEAA@AEAV?$allocator@U_Container_proxy@std@@@1@AEAU_Container_base12@1@@Z
.global	??0?$_Container_proxy_ptr12@V?$allocator@U_Container_proxy@std@@@std@@@std@@$$FQEAA@AEAV?$allocator@U_Container_proxy@std@@@1@AEAU_Container_base12@1@@Z ; std::_Container_proxy_ptr12<std::allocator<std::_Container_proxy> >::_Container_proxy_ptr12<std::allocator<std::_Container_proxy> >
??0?$_Container_proxy_ptr12@V?$allocator@U_Container_proxy@std@@@std@@@std@@$$FQEAA@AEAV?$allocator@U_Container_proxy@std@@@1@AEAU_Container_base12@1@@Z: ; std::_Container_proxy_ptr12<std::allocator<std::_Container_proxy> >::_Container_proxy_ptr12<std::allocator<std::_Container_proxy> >
;	.proc.def	D:J(JJJ)

; Function Header:
; max stack depth = 3
; function size = 43 bytes
; local varsig tk = 0x11000039 
; Exception Information:
; 0 handlers, each consisting of filtered handlers

;	.formal.i8 0,"this$" SIG: Optional C Binding Modifier(token:0x89575D1).Optional C Binding Modifier(token:0x89575D3).ptr.valueType (token:0x89575D6)
;	.formal.i8 1,"_Al_$" SIG: Optional C Binding Modifier(token:0x8954441).ptr.valueType (token:0x8954444)
;	.formal.i8 2,"_Mycont$" SIG: Optional C Binding Modifier(token:0x8959529).ptr.valueType (token:0x895952C)
;	.local.i8 0,"$T2" SIG: ptr.valueType (token:0x895726A)

;	.proc.beg

; 1287 :         : _Al(_Al_) { // create a new _Container_proxy pointing at _Mycont

	ldarg.0				; this$
	ldc.i.8		8		; i64 0x8
	conv.i8		
	add		
	ldarg.1				; _Al_$
	stind.i8	

; 1288 :         _Ptr = _Unfancy(_Al_.allocate(1));

	ldarg.0				; this$
	ldarg.1				; _Al_$
	ldc.i.1		1		; u64 0x1
	conv.i8		
	call		?allocate@?$allocator@U_Container_proxy@std@@@std@@$$FQEAAPEAU_Container_proxy@2@_K@Z
	call		??$_Unfancy@U_Container_proxy@std@@@std@@$$FYAPEAU_Container_proxy@0@PEAU10@@Z
	stind.i8	

; 1289 :         _Construct_in_place(*_Ptr, _STD addressof(_Mycont));

	ldarg.2				; _Mycont$
	call		??$addressof@U_Container_base12@std@@@std@@$$FYAPEAU_Container_base12@0@AEAU10@@Z
	stloc.0				; $T2
	ldarg.0				; this$
	ldind.i8	
	ldloca.s	0		; $T2
	call		??$_Construct_in_place@U_Container_proxy@std@@PEAU_Container_base12@2@@std@@$$FYAXAEAU_Container_proxy@0@$$QEAPEAU_Container_base12@0@@Z

; 1290 :         _Mycont._Myproxy = _Ptr;

	ldarg.2				; _Mycont$
	ldarg.0				; this$
	ldind.i8	
	stind.i8	

; 1291 :     }

	ldarg.0				; this$
	ret		
 .end ??0?$_Container_proxy_ptr12@V?$allocator@U_Container_proxy@std@@@std@@@std@@$$FQEAA@AEAV?$allocator@U_Container_proxy@std@@@1@AEAU_Container_base12@1@@Z ; std::_Container_proxy_ptr12<std::allocator<std::_Container_proxy> >::_Container_proxy_ptr12<std::allocator<std::_Container_proxy> >
;	.proc.end.i8
; Function compile flags: /Odtp
; File C:\Program Files (x86)\Microsoft Visual Studio\2019\Enterprise\VC\Tools\MSVC\14.27.29110\include\vector
	.text
	.comdat	any, ?_Buy_nonzero@?$vector@HV?$allocator@H@std@@@std@@$$FAEAAX_K@Z
.global	?_Buy_nonzero@?$vector@HV?$allocator@H@std@@@std@@$$FAEAAX_K@Z ; std::vector<int,std::allocator<int> >::_Buy_nonzero
?_Buy_nonzero@?$vector@HV?$allocator@H@std@@@std@@$$FAEAAX_K@Z: ; std::vector<int,std::allocator<int> >::_Buy_nonzero
;	.proc.def	D:V(JJ)

; Function Header:
; max stack depth = 2
; function size = 22 bytes
; local varsig tk = 0x0 
; Exception Information:
; 0 handlers, each consisting of filtered handlers

;	.formal.i8 0,"this$" SIG: Optional C Binding Modifier(token:0x8952BD1).Optional C Binding Modifier(token:0x8952BD3).ptr.valueType (token:0x8952BD6)
;	.formal.u8 1,"_Newcapacity$" SIG: Optional C Binding Modifier(token:0x8960891).u8

;	.proc.beg

; 1649 :         // allocate array with _Newcapacity elements
; 1650 : #ifdef _ENABLE_STL_INTERNAL_CHECK
; 1651 :         auto& _My_data    = _Mypair._Myval2;
; 1652 :         pointer& _Myfirst = _My_data._Myfirst;
; 1653 :         pointer& _Mylast  = _My_data._Mylast;
; 1654 :         pointer& _Myend   = _My_data._Myend;
; 1655 :         _STL_INTERNAL_CHECK(!_Myfirst && !_Mylast && !_Myend); // check that *this is tidy
; 1656 :         _STL_INTERNAL_CHECK(0 < _Newcapacity);
; 1657 : #endif // _ENABLE_STL_INTERNAL_CHECK
; 1658 : 
; 1659 :         if (_Newcapacity > max_size()) {

	ldarg.1				; _Newcapacity$
	ldarg.0				; this$
	call		?max_size@?$vector@HV?$allocator@H@std@@@std@@$$FQEBA_KXZ
	ble.un.s	$LN2@Buy_nonzer

; 1660 :             _Xlength();

	call		?_Xlength@?$vector@HV?$allocator@H@std@@@std@@$$FCAXXZ
$LN2@Buy_nonzer:

; 1661 :         }
; 1662 : 
; 1663 :         _Buy_raw(_Newcapacity);

	ldarg.0				; this$
	ldarg.1				; _Newcapacity$
	call		?_Buy_raw@?$vector@HV?$allocator@H@std@@@std@@$$FAEAAX_K@Z

; 1664 :     }

	ret		
 .end ?_Buy_nonzero@?$vector@HV?$allocator@H@std@@@std@@$$FAEAAX_K@Z ; std::vector<int,std::allocator<int> >::_Buy_nonzero
;	.proc.end.void
	.bss
.local	$T1,0
; Function compile flags: /Odtp
	.text
	.comdat	any, ?<MarshalCopy>@?$_Vector_iterator@V?$_Vector_val@U?$_Simple_types@H@std@@@std@@@std@@$$FSMXPEAV12@0@Z
.global	?<MarshalCopy>@?$_Vector_iterator@V?$_Vector_val@U?$_Simple_types@H@std@@@std@@@std@@$$FSMXPEAV12@0@Z ; std::_Vector_iterator<std::_Vector_val<std::_Simple_types<int> > >::<MarshalCopy>
?<MarshalCopy>@?$_Vector_iterator@V?$_Vector_val@U?$_Simple_types@H@std@@@std@@@std@@$$FSMXPEAV12@0@Z: ; std::_Vector_iterator<std::_Vector_val<std::_Simple_types<int> > >::<MarshalCopy>
;	.proc.def	D:V(JJ)

; Function Header:
; max stack depth = 3
; function size = 44 bytes
; local varsig tk = 0x11000070 
; Exception Information:
; 0 handlers, each consisting of filtered handlers

;	.formal.i8 0,"__P0$" SIG: ptr.valueType (token:0x895FC1A)
;	.formal.i8 1,"__P1$" SIG: ptr.valueType (token:0x895FC1A)
;	.local.i8 0,"$T2" SIG: ptr.valueType (token:0x895FC1A)
;	.local.i8 1,"$T3" SIG: ptr.ptr.valueType (token:0x8179643)
;	.local.mb1   2,"$T4" SIG: valueType (token:0x89545B1)

;	.proc.beg
	ldloca.s	2		; $T4
	ldc.i.0		0		; i32 0x0
	ldc.i.1		1		; u64 0x1
	conv.i8		
	unaligned	4		; u32 0x4
	initblk		
	ldc.i4.s	24		; u64 0x18
	conv.i8		
	ldarg.0				; __P0$
	ldloca.s	2		; $T4
	ldobj		$TypeTok$111B7A4C$
	call		??2@$$FYAPEAX_KPEAXU__clr_placement_new_t@?A0xca13f8fb@@@Z
	stloc.0				; $T2
	ldloc.0				; $T2
	brfalse.s	$LN3@
	ldloc.0				; $T2
	ldarg.1				; __P1$
	call		??0?$_Vector_iterator@V?$_Vector_val@U?$_Simple_types@H@std@@@std@@@std@@$$FQEAA@$$QEAV01@@Z
	stloc.1				; $T3
	br.s		$LN1@
$LN3@:
	ldc.i.0		0		; i64 0x0
	conv.i8		
	stloc.1				; $T3
$LN1@:
	ret		
 .end ?<MarshalCopy>@?$_Vector_iterator@V?$_Vector_val@U?$_Simple_types@H@std@@@std@@@std@@$$FSMXPEAV12@0@Z ; std::_Vector_iterator<std::_Vector_val<std::_Simple_types<int> > >::<MarshalCopy>
;	.proc.end.void
PUBLIC	__t2m@?<MarshalCopy>@?$_Vector_iterator@V?$_Vector_val@U?$_Simple_types@H@std@@@std@@@std@@SMXPEAV12@0@Z
PUBLIC	__m2mep@?<MarshalCopy>@?$_Vector_iterator@V?$_Vector_val@U?$_Simple_types@H@std@@@std@@@std@@$$FSMXPEAV12@0@Z
PUBLIC	__mep@?<MarshalCopy>@?$_Vector_iterator@V?$_Vector_val@U?$_Simple_types@H@std@@@std@@@std@@$$FSMXPEAV12@0@Z
;	COMDAT __mep@?<MarshalCopy>@?$_Vector_iterator@V?$_Vector_val@U?$_Simple_types@H@std@@@std@@@std@@$$FSMXPEAV12@0@Z
data	SEGMENT
__mep@?<MarshalCopy>@?$_Vector_iterator@V?$_Vector_val@U?$_Simple_types@H@std@@@std@@@std@@$$FSMXPEAV12@0@Z TOKEN 06000051
data	ENDS
;	COMDAT __m2mep@?<MarshalCopy>@?$_Vector_iterator@V?$_Vector_val@U?$_Simple_types@H@std@@@std@@@std@@$$FSMXPEAV12@0@Z
data	SEGMENT
__m2mep@?<MarshalCopy>@?$_Vector_iterator@V?$_Vector_val@U?$_Simple_types@H@std@@@std@@@std@@$$FSMXPEAV12@0@Z DD FLAT:?<MarshalCopy>@?$_Vector_iterator@V?$_Vector_val@U?$_Simple_types@H@std@@@std@@@std@@$$FSMXPEAV12@0@Z
data	ENDS
; Function compile flags: /Ods
;	COMDAT nep
_TEXT	SEGMENT
__t2m@?<MarshalCopy>@?$_Vector_iterator@V?$_Vector_val@U?$_Simple_types@H@std@@@std@@@std@@SMXPEAV12@0@Z PROC ; COMDAT
	jmp	SHORT $LN1@
	ud2
$LN2@:
	jmp	QWORD PTR __m2mep@?<MarshalCopy>@?$_Vector_iterator@V?$_Vector_val@U?$_Simple_types@H@std@@@std@@@std@@$$FSMXPEAV12@0@Z
$LN1@:
	jmp	QWORD PTR __mep@?<MarshalCopy>@?$_Vector_iterator@V?$_Vector_val@U?$_Simple_types@H@std@@@std@@@std@@$$FSMXPEAV12@0@Z
__t2m@?<MarshalCopy>@?$_Vector_iterator@V?$_Vector_val@U?$_Simple_types@H@std@@@std@@@std@@SMXPEAV12@0@Z ENDP
_TEXT	ENDS
	.bss
.local	$T1,0
; Function compile flags: /Odtp
	.text
	.comdat	any, ??_G?$vector@HV?$allocator@H@std@@@std@@$$FQEAAPEAXI@Z
.global	??_G?$vector@HV?$allocator@H@std@@@std@@$$FQEAAPEAXI@Z ; std::vector<int,std::allocator<int> >::`scalar deleting destructor'
??_G?$vector@HV?$allocator@H@std@@@std@@$$FQEAAPEAXI@Z:	; std::vector<int,std::allocator<int> >::`scalar deleting destructor'
;	.proc.def	D:J(JI)

; Function Header:
; max stack depth = 2
; function size = 24 bytes
; local varsig tk = 0x11000004 
; Exception Information:
; 0 handlers, each consisting of filtered handlers

;	.formal.i8 0,"this$" SIG: Optional C Binding Modifier(token:0x8952BD1).Optional C Binding Modifier(token:0x8952BD3).ptr.valueType (token:0x8952BD6)
;	.formal.u4 1,"__flags$" SIG: u4
;	.local.i8 0,"$T2" SIG: ptr.void

;	.proc.beg
	ldarg.0				; this$
	call		??1?$vector@HV?$allocator@H@std@@@std@@$$FQEAA@XZ
	ldarg.1				; __flags$
	ldc.i.1		1		; u32 0x1
	and		
	brfalse.s	$LN2@scalar
	ldarg.0				; this$
	ldc.i4.s	32		; u64 0x20
	conv.i8		
	call		??3@$$FYAXPEAX_K@Z
$LN2@scalar:
	ldarg.0				; this$
	stloc.0				; $T2
	ldloc.0				; $T2
	ret		
 .end ??_G?$vector@HV?$allocator@H@std@@@std@@$$FQEAAPEAXI@Z ; std::vector<int,std::allocator<int> >::`scalar deleting destructor'
;	.proc.end.i8
.global	
.global	
	.bss
.local	,4
.local	,4
.local	$T1,0
; Function compile flags: /Odtp
; File C:\Program Files (x86)\Microsoft Visual Studio\2019\Enterprise\VC\Tools\MSVC\14.27.29110\include\vector
	.text
	.comdat	any, ??$_Range_construct_or_tidy@PEAH@?$vector@HV?$allocator@H@std@@@std@@$$FAEAAXPEAH0Uforward_iterator_tag@1@@Z
.global	??$_Range_construct_or_tidy@PEAH@?$vector@HV?$allocator@H@std@@@std@@$$FAEAAXPEAH0Uforward_iterator_tag@1@@Z ; std::vector<int,std::allocator<int> >::_Range_construct_or_tidy<int *>
??$_Range_construct_or_tidy@PEAH@?$vector@HV?$allocator@H@std@@@std@@$$FAEAAXPEAH0Uforward_iterator_tag@1@@Z: ; std::vector<int,std::allocator<int> >::_Range_construct_or_tidy<int *>
;	.proc.def	D:V(JJJM<4  >)

; Function Header:
; max stack depth = 6
; function size = 77 bytes
; local varsig tk = 0x11000073 
; Exception Information:
; 1 handlers, each consisting of filtered handlers

;	.formal.i8 0,"this$" SIG: Optional C Binding Modifier(token:0x8952BD1).Optional C Binding Modifier(token:0x8952BD3).ptr.valueType (token:0x8952BD6)
;	.formal.i8 1,"_First$" SIG: ptr.i4
;	.formal.i8 2,"_Last$" SIG: ptr.i4
;	.local.i8 0,"_My_data$2" SIG: Optional C Binding Modifier(token:0x86FBBB9).ptr.valueType (token:0x86FBBBC)
;	.local.u8 1,"_Count$" SIG: Optional C Binding Modifier(token:0x8960891).u8
;	.local.mb8   2,"_Guard$3" SIG: valueType (token:0x86D9109)

;	.proc.beg

; 493  :         const auto _Count = _Convert_size<size_type>(static_cast<size_t>(_STD distance(_First, _Last)));

	ldarg.1				; _First$
	ldarg.2				; _Last$
	call		??$distance@PEAH@std@@$$FYA_JPEAH0@Z
	call		??$_Convert_size@_K@std@@$$FYA_K_K@Z
	stloc.1				; _Count$

; 494  :         if (_Count != 0) {

	ldloc.1				; _Count$
	brfalse.s	$LN1@Range_cons

; 495  :             _Buy_nonzero(_Count);

	ldarg.0				; this$
	ldloc.1				; _Count$
	call		?_Buy_nonzero@?$vector@HV?$allocator@H@std@@@std@@$$FAEAAX_K@Z

; 496  :             _Tidy_guard<vector> _Guard{this};

	ldloca.s	2		; _Guard$3
	ldarg.0				; this$
	stind.i8	
$LN5@Range_cons:

; 497  :             auto& _My_data   = _Mypair._Myval2;

	ldarg.0				; this$
	stloc.0				; _My_data$2

; 498  :             _My_data._Mylast = _Ucopy(_First, _Last, _My_data._Myfirst);

	ldloc.0				; _My_data$2
	ldc.i4.s	16		; i64 0x10
	conv.i8		
	add		
	ldarg.0				; this$
	ldarg.1				; _First$
	ldarg.2				; _Last$
	ldloc.0				; _My_data$2
	ldc.i.8		8		; i64 0x8
	conv.i8		
	add		
	ldind.i8	
	call		??$_Ucopy@PEAH@?$vector@HV?$allocator@H@std@@@std@@$$FAEAAPEAHPEAH00@Z
	stind.i8	

; 499  :             _Guard._Target   = nullptr;

	ldloca.s	2		; _Guard$3
	ldc.i.0		0		; i64 0x0
	conv.i8		
	stind.i8	
	leave.s		$LN6@Range_cons
$LN7@Range_cons:
	ldftn		??1?$_Tidy_guard@V?$vector@HV?$allocator@H@std@@@std@@@std@@$$FQEAA@XZ
	ldloca.s	2		; _Guard$3
	call		?___CxxCallUnwindDtor@@$$J0YMXP6MXPEAX@Z0@Z
	endfinally	
$LN6@Range_cons:

; 500  :         }

	ldloca.s	2		; _Guard$3
	call		??1?$_Tidy_guard@V?$vector@HV?$allocator@H@std@@@std@@@std@@$$FQEAA@XZ
$LN1@Range_cons:

; 501  :     }

	ret		
 .end ??$_Range_construct_or_tidy@PEAH@?$vector@HV?$allocator@H@std@@@std@@$$FAEAAXPEAH0Uforward_iterator_tag@1@@Z ; std::vector<int,std::allocator<int> >::_Range_construct_or_tidy<int *>
;	.proc.end.void
.global	?components@DisplayHistogram@CLRCV@@3PE$AAVContainer@ComponentModel@System@@E$AA ; CLRCV::DisplayHistogram::components
	.bss
	.align	8
.local	?components@DisplayHistogram@CLRCV@@3PE$AAVContainer@ComponentModel@System@@E$AA,8 ; CLRCV::DisplayHistogram::components
.local	$T1,0
; Function compile flags: /Odtp
; File C:\Users\César Mosqueira\source\repos\CLRCV\CLRCV\DisplayHistogram.h
	.text
	.comdat	any, ??1DisplayHistogram@CLRCV@@$$FAE$AAM@XZ
.global	??1DisplayHistogram@CLRCV@@$$FAE$AAM@XZ		; CLRCV::DisplayHistogram::~DisplayHistogram
??1DisplayHistogram@CLRCV@@$$FAE$AAM@XZ:		; CLRCV::DisplayHistogram::~DisplayHistogram
;	.proc.def	D:V()

; Function Header:
; max stack depth = 2
; function size = 56 bytes
; local varsig tk = 0x11000074 
; Exception Information:
; 0 handlers, each consisting of filtered handlers

;	.formal.mptr 0,"this$" SIG: Optional C Binding Modifier(token:0x895DDB1).class (token:0x895DDB3)
;	.local.mptr 0,"$T2" SIG: class (token:0x87012B1)
;	.local.i8 1,"$T3" SIG: ptr.valueType (token:0x86F64C2)
;	.local.i8 2,"tv81"
;	.local.i8 3,"$T4" SIG: ptr.void

;	.proc.beg

; 33   : 			delete datapoints;

	ldarg.0				; this$
	ldfld		?datapoints@DisplayHistogram@CLRCV@@3PEAV?$vector@HV?$allocator@H@std@@@std@@EA
	stloc.1				; $T3
	ldloc.1				; $T3
	brfalse.s	$LN4@DisplayHis
	ldloc.1				; $T3
	ldc.i.1		1		; u32 0x1
	call		??_G?$vector@HV?$allocator@H@std@@@std@@$$FQEAAPEAXI@Z
	stloc.3				; $T4
	br.s		$LN5@DisplayHis
$LN4@DisplayHis:
	ldc.i.0		0		; i64 0x0
	conv.i8		
	stloc.3				; $T4
$LN5@DisplayHis:

; 34   : 			if (components)

	ldarg.0				; this$
	ldfld		?components@DisplayHistogram@CLRCV@@3PE$AAVContainer@ComponentModel@System@@E$AA
	brfalse.s	$LN1@DisplayHis

; 35   : 			{
; 36   : 				delete components;

	ldarg.0				; this$
	ldfld		?components@DisplayHistogram@CLRCV@@3PE$AAVContainer@ComponentModel@System@@E$AA
	stloc.0				; $T2
	ldloc.0				; $T2
	brfalse.s	$LN6@DisplayHis
	ldloc.0				; $T2
	callvirt	?<Dispose>@IDisposable@System@@$$FUE$AAMXXZ
	ldc.i.0		0		; i64 0x0
	conv.i8		
	stloc.2				
	br.s		$LN1@DisplayHis
$LN6@DisplayHis:
	ldc.i.0		0		; i64 0x0
	conv.i8		
	stloc.2				
$LN1@DisplayHis:

; 37   : 			}
; 38   : 		}

	ret		
 .end ??1DisplayHistogram@CLRCV@@$$FAE$AAM@XZ		; CLRCV::DisplayHistogram::~DisplayHistogram
;	.proc.end.void
; Function compile flags: /Odtp
	.text
	.comdat	any, ?<Dispose>@DisplayHistogram@CLRCV@@$$FME$AAMX_N@Z
.global	?<Dispose>@DisplayHistogram@CLRCV@@$$FME$AAMX_N@Z ; CLRCV::DisplayHistogram::<Dispose>
?<Dispose>@DisplayHistogram@CLRCV@@$$FME$AAMX_N@Z:	; CLRCV::DisplayHistogram::<Dispose>
;	.proc.def	D:V(I)

; Function Header:
; max stack depth = 2
; function size = 29 bytes
; local varsig tk = 0x0 
; Exception Information:
; 1 handlers, each consisting of filtered handlers

;	.formal.mptr 0,"this$" SIG: Optional C Binding Modifier(token:0x895DDB1).class (token:0x895DDB3)
;	.formal.u1 1,"disposing$" SIG: bool

;	.proc.beg
	ldarg.1				; disposing$
	brfalse.s	$LN2@
$LN13@:
	ldarg.0				; this$
	call		??1DisplayHistogram@CLRCV@@$$FAE$AAM@XZ
$LN8@:
	leave.s		$LN12@
$LN7@:
	ldarg.0				; this$
	ldc.i.1		1		; u8 0x1
	call		?<Dispose>@Form@Forms@Windows@System@@$$FME$AAMX_N@Z
$LN9@:
	endfinally	
$LN12@:
	br.s		$LN6@
$LN2@:
	ldarg.0				; this$
	ldc.i.0		0		; u8 0x0
	call		?<Dispose>@Form@Forms@Windows@System@@$$FME$AAMX_N@Z
$LN6@:
	ret		
 .end ?<Dispose>@DisplayHistogram@CLRCV@@$$FME$AAMX_N@Z	; CLRCV::DisplayHistogram::<Dispose>
;	.proc.end.void
.global	
	.bss
.local	,4
.local	$T1,0
; Function compile flags: /Odtp
; File C:\Program Files (x86)\Microsoft Visual Studio\2019\Enterprise\VC\Tools\MSVC\14.27.29110\include\vector
	.text
	.comdat	any, ??$?0V?$_Vector_iterator@V?$_Vector_val@U?$_Simple_types@H@std@@@std@@@std@@$0A@@?$vector@HV?$allocator@H@std@@@std@@$$FQEAA@V?$_Vector_iterator@V?$_Vector_val@U?$_Simple_types@H@std@@@std@@@1@0AEBV?$allocator@H@1@@Z
.global	??$?0V?$_Vector_iterator@V?$_Vector_val@U?$_Simple_types@H@std@@@std@@@std@@$0A@@?$vector@HV?$allocator@H@std@@@std@@$$FQEAA@V?$_Vector_iterator@V?$_Vector_val@U?$_Simple_types@H@std@@@std@@@1@0AEBV?$allocator@H@1@@Z ; std::vector<int,std::allocator<int> >::vector<int,std::allocator<int> ><std::_Vector_iterator<std::_Vector_val<std::_Simple_types<int> > >,0>
??$?0V?$_Vector_iterator@V?$_Vector_val@U?$_Simple_types@H@std@@@std@@@std@@$0A@@?$vector@HV?$allocator@H@std@@@std@@$$FQEAA@V?$_Vector_iterator@V?$_Vector_val@U?$_Simple_types@H@std@@@std@@@1@0AEBV?$allocator@H@1@@Z: ; std::vector<int,std::allocator<int> >::vector<int,std::allocator<int> ><std::_Vector_iterator<std::_Vector_val<std::_Simple_types<int> > >,0>
;	.proc.def	D:J(JJJJ)

; Function Header:
; max stack depth = 4
; function size = 137 bytes
; local varsig tk = 0x11000076 
; Exception Information:
; 3 handlers, each consisting of filtered handlers

;	.formal.i8 0,"this$" SIG: Optional C Binding Modifier(token:0x8952BD1).Optional C Binding Modifier(token:0x8952BD3).ptr.valueType (token:0x8952BD6)
;	.formal.i8 1,"_First$" SIG: ptr.valueType (token:0x895FC1A)
;	.formal.i8 2,"_Last$" SIG: ptr.valueType (token:0x895FC1A)
;	.formal.i8 3,"_Al$" SIG: Optional C Binding Modifier(token:0x89602B1).ptr.Optional C Binding Modifier(token:0x89602B4).valueType (token:0x89602B6)
;	.local.i8 0,"_Alproxy$" SIG: Optional C Binding Modifier(token:0x8956FC1).Optional C Binding Modifier(token:0x8956FC3).ptr.valueType (token:0x8956FC6)
;	.local.mb1   1,"$T2" SIG: valueType (token:0x86D9901)
;	.local.mb16  2,"_Proxy$" SIG: valueType (token:0x8953251)
;	.local.mb1   3,"$S2$" SIG: valueType (token:0x895DE81)
;	.local.mb1   4,"$T3" SIG: valueType (token:0x86FEE29)

;	.proc.beg

; 505  :     vector(_Iter _First, _Iter _Last, const _Alloc& _Al = _Alloc()) : _Mypair(_One_then_variadic_args_t{}, _Al) {

$LN6@allocator:
$LN7@allocator:
	ldarg.0				; this$
	ldloc.s		4		; $T3
	ldarg.3				; _Al$
	call		??$?0AEBV?$allocator@H@std@@$$V@?$_Compressed_pair@V?$allocator@H@std@@V?$_Vector_val@U?$_Simple_types@H@std@@@2@$00@std@@$$FQEAA@U_One_then_variadic_args_t@1@AEBV?$allocator@H@1@@Z
	pop		

; 506  :         auto&& _Alproxy = _GET_PROXY_ALLOCATOR(_Alty, _Getal());

	ldloca.s	3		; $S2$
	ldarg.0				; this$
	call		?_Getal@?$vector@HV?$allocator@H@std@@@std@@$$FAEAAAEAV?$allocator@H@2@XZ
	call		??$?0H@?$allocator@U_Container_proxy@std@@@std@@$$FQEAA@AEBV?$allocator@H@1@@Z
	pop		
	ldloca.s	3		; $S2$
	stloc.0				; _Alproxy$

; 507  :         _Container_proxy_ptr<_Alty> _Proxy(_Alproxy, _Mypair._Myval2);

	ldloca.s	2		; _Proxy$
	ldloc.0				; _Alproxy$
	ldarg.0				; this$
	call		??0?$_Container_proxy_ptr12@V?$allocator@U_Container_proxy@std@@@std@@@std@@$$FQEAA@AEAV?$allocator@U_Container_proxy@std@@@1@AEAU_Container_base12@1@@Z
	pop		
$LN8@allocator:

; 508  :         _Adl_verify_range(_First, _Last);

	ldarg.1				; _First$
	ldarg.2				; _Last$
	call		??$_Adl_verify_range@V?$_Vector_iterator@V?$_Vector_val@U?$_Simple_types@H@std@@@std@@@std@@V12@@std@@$$FYAXAEBV?$_Vector_iterator@V?$_Vector_val@U?$_Simple_types@H@std@@@std@@@0@0@Z

; 509  :         _Range_construct_or_tidy(_Get_unwrapped(_First), _Get_unwrapped(_Last), _Iter_cat_t<_Iter>{});

	ldarg.0				; this$
	ldarg.1				; _First$
	call		??$_Get_unwrapped@AEAV?$_Vector_iterator@V?$_Vector_val@U?$_Simple_types@H@std@@@std@@@std@@@std@@$$FYAPEAHAEAV?$_Vector_iterator@V?$_Vector_val@U?$_Simple_types@H@std@@@std@@@0@@Z
	ldarg.2				; _Last$
	call		??$_Get_unwrapped@AEAV?$_Vector_iterator@V?$_Vector_val@U?$_Simple_types@H@std@@@std@@@std@@@std@@$$FYAPEAHAEAV?$_Vector_iterator@V?$_Vector_val@U?$_Simple_types@H@std@@@std@@@0@@Z
	ldloc.1				; $T2
	call		??$_Range_construct_or_tidy@PEAH@?$vector@HV?$allocator@H@std@@@std@@$$FAEAAXPEAH0Uforward_iterator_tag@1@@Z

; 510  :         _Proxy._Release();

	ldloca.s	2		; _Proxy$
	call		?_Release@_Basic_container_proxy_ptr12@std@@$$FQEAAXXZ
	leave.s		$LN9@allocator
$LN10@allocator:
	ldftn		??1?$_Container_proxy_ptr12@V?$allocator@U_Container_proxy@std@@@std@@@std@@$$FQEAA@XZ
	ldloca.s	2		; _Proxy$
	call		?___CxxCallUnwindDtor@@$$J0YMXP6MXPEAX@Z0@Z
	endfinally	
$LN9@allocator:

; 511  :     }

	ldloca.s	2		; _Proxy$
	call		??1?$_Container_proxy_ptr12@V?$allocator@U_Container_proxy@std@@@std@@@std@@$$FQEAA@XZ
	leave.s		$LN11@allocator
$LN12@allocator:
	ldftn		??1?$_Vector_iterator@V?$_Vector_val@U?$_Simple_types@H@std@@@std@@@std@@$$FQEAA@XZ
	ldarg.1				; _First$
	call		?___CxxCallUnwindDtor@@$$J0YMXP6MXPEAX@Z0@Z
	endfinally	
$LN11@allocator:
	ldarg.1				; _First$
	call		??1?$_Vector_iterator@V?$_Vector_val@U?$_Simple_types@H@std@@@std@@@std@@$$FQEAA@XZ
	leave.s		$LN13@allocator
$LN14@allocator:
	ldftn		??1?$_Vector_iterator@V?$_Vector_val@U?$_Simple_types@H@std@@@std@@@std@@$$FQEAA@XZ
	ldarg.2				; _Last$
	call		?___CxxCallUnwindDtor@@$$J0YMXP6MXPEAX@Z0@Z
	endfinally	
$LN13@allocator:
	ldarg.2				; _Last$
	call		??1?$_Vector_iterator@V?$_Vector_val@U?$_Simple_types@H@std@@@std@@@std@@$$FQEAA@XZ
	ldarg.0				; this$
	ret		
 .end ??$?0V?$_Vector_iterator@V?$_Vector_val@U?$_Simple_types@H@std@@@std@@@std@@$0A@@?$vector@HV?$allocator@H@std@@@std@@$$FQEAA@V?$_Vector_iterator@V?$_Vector_val@U?$_Simple_types@H@std@@@std@@@1@0AEBV?$allocator@H@1@@Z ; std::vector<int,std::allocator<int> >::vector<int,std::allocator<int> ><std::_Vector_iterator<std::_Vector_val<std::_Simple_types<int> > >,0>
;	.proc.end.i8
.global	
	.bss
.local	,4
.local	$T1,0
; Function compile flags: /Odtp
; File C:\Users\César Mosqueira\source\repos\CLRCV\CLRCV\DisplayHistogram.h
	.text
	.comdat	any, ??0DisplayHistogram@CLRCV@@$$FQE$AAM@PEAV?$vector@HV?$allocator@H@std@@@std@@@Z
.global	??0DisplayHistogram@CLRCV@@$$FQE$AAM@PEAV?$vector@HV?$allocator@H@std@@@std@@@Z ; CLRCV::DisplayHistogram::DisplayHistogram
??0DisplayHistogram@CLRCV@@$$FQE$AAM@PEAV?$vector@HV?$allocator@H@std@@@std@@@Z: ; CLRCV::DisplayHistogram::DisplayHistogram
;	.proc.def	D:V(J)

; Function Header:
; max stack depth = 4
; function size = 139 bytes
; local varsig tk = 0x11000078 
; Exception Information:
; 4 handlers, each consisting of filtered handlers

;	.formal.mptr 0,"this$" SIG: Optional C Binding Modifier(token:0x895DDB1).class (token:0x895DDB3)
;	.formal.i8 1,"_datapoints$" SIG: ptr.valueType (token:0x86F64C2)
;	.local.i8 0,"$T2" SIG: ptr.valueType (token:0x86F64C2)
;	.local.i8 1,"$T3" SIG: ptr.valueType (token:0x8164B1A)
;	.local.i8 2,"$T4" SIG: ptr.valueType (token:0x895FC1A)
;	.local.i8 3,"$T5" SIG: ptr.valueType (token:0x895FC1A)
;	.local.i8 4,"$T6" SIG: ptr.valueType (token:0x86F64C2)
;	.local.i8 5,"$T7" SIG: Optional C Binding Modifier(token:0x88C4A71).Optional C Binding Modifier(token:0x88C4A73).ptr.valueType (token:0x88C4A76)
;	.local.i8 6,"$T8" SIG: ptr.valueType (token:0x88D3842)
;	.local.i8 7,"$T9" SIG: ptr.valueType (token:0x88D2EB2)
;	.local.mb1   8,"$T10" SIG: valueType (token:0x86F50D9)
;	.local.mb24  9,"$T11" SIG: valueType (token:0x81649B1)
;	.local.mb24  10,"$T12" SIG: valueType (token:0x8164241)

;	.proc.beg

; 18   : 		DisplayHistogram(std::vector<int>* _datapoints)

	ldarg.0				; this$
	call		??0Form@Forms@Windows@System@@$$FQE$AAM@XZ
$LN9@DisplayHis:

; 19   : 		{
; 20   : 			InitializeComponent();

	ldarg.0				; this$
	call		?InitializeComponent@DisplayHistogram@CLRCV@@$$FAE$AAMXXZ

; 21   : 			//
; 22   : 			//TODO: Add the constructor code here
; 23   : 			//
; 24   : 			datapoints = new std::vector<int>(_datapoints->begin(), _datapoints->end());

	ldc.i4.s	32		; u64 0x20
	conv.i8		
	call		??2@$$FYAPEAX_K@Z
	stloc.0				; $T2
$LN10@DisplayHis:
	ldloc.0				; $T2
	brfalse.s	$LN3@DisplayHis
	ldloca.s	10		; $T12
	stloc.3				; $T5
	ldloca.s	9		; $T11
	stloc.2				; $T4
	ldarg.1				; _datapoints$
	ldloc.3				; $T5
	call		?end@?$vector@HV?$allocator@H@std@@@std@@$$FQEAA?AV?$_Vector_iterator@V?$_Vector_val@U?$_Simple_types@H@std@@@std@@@2@XZ
	stloc.s		7		; $T9
$LN11@DisplayHis:
	ldarg.1				; _datapoints$
	ldloc.2				; $T4
	call		?begin@?$vector@HV?$allocator@H@std@@@std@@$$FQEAA?AV?$_Vector_iterator@V?$_Vector_val@U?$_Simple_types@H@std@@@std@@@2@XZ
	stloc.s		6		; $T8
$LN12@DisplayHis:
	ldloca.s	8		; $T10
	call		??0?$allocator@H@std@@$$FQEAA@XZ
	stloc.s		5		; $T7
	leave.s		$LN13@DisplayHis
$LN14@DisplayHis:
	ldftn		??1?$_Vector_iterator@V?$_Vector_val@U?$_Simple_types@H@std@@@std@@@std@@$$FQEAA@XZ
	ldloc.2				; $T4
	call		?___CxxCallUnwindDtor@@$$J0YMXP6MXPEAX@Z0@Z
	endfinally	
$LN13@DisplayHis:
	leave.s		$LN15@DisplayHis
$LN16@DisplayHis:
	ldftn		??1?$_Vector_iterator@V?$_Vector_val@U?$_Simple_types@H@std@@@std@@@std@@$$FQEAA@XZ
	ldloc.3				; $T5
	call		?___CxxCallUnwindDtor@@$$J0YMXP6MXPEAX@Z0@Z
	endfinally	
$LN15@DisplayHis:
	ldloc.0				; $T2
	ldloc.s		6		; $T8
	ldloc.s		7		; $T9
	ldloc.s		5		; $T7
	call		??$?0V?$_Vector_iterator@V?$_Vector_val@U?$_Simple_types@H@std@@@std@@@std@@$0A@@?$vector@HV?$allocator@H@std@@@std@@$$FQEAA@V?$_Vector_iterator@V?$_Vector_val@U?$_Simple_types@H@std@@@std@@@1@0AEBV?$allocator@H@1@@Z
	stloc.1				; $T3
	br.s		$LN4@DisplayHis
$LN3@DisplayHis:
	ldc.i.0		0		; i64 0x0
	conv.i8		
	stloc.1				; $T3
$LN4@DisplayHis:
	ldloc.1				; $T3
	stloc.s		4		; $T6
	leave.s		$LN17@DisplayHis
$LN18@DisplayHis:
	ldloc.0				; $T2
	ldc.i4.s	32		; u64 0x20
	conv.i8		
	call		??3@$$FYAXPEAX_K@Z
	endfinally	
$LN17@DisplayHis:
	ldarg.0				; this$
	ldloc.s		4		; $T6
	stfld		?datapoints@DisplayHistogram@CLRCV@@3PEAV?$vector@HV?$allocator@H@std@@@std@@EA
	leave.s		$LN19@DisplayHis
$LN20@DisplayHis:
	ldarg.0				; this$
	ldc.i.1		1		; u8 0x1
	call		?<Dispose>@Form@Forms@Windows@System@@$$FME$AAMX_N@Z
	endfinally	
$LN19@DisplayHis:

; 25   : 		}

	ret		
 .end ??0DisplayHistogram@CLRCV@@$$FQE$AAM@PEAV?$vector@HV?$allocator@H@std@@@std@@@Z ; CLRCV::DisplayHistogram::DisplayHistogram
;	.proc.end.void
PUBLIC	__t2m@??2@YAPEAX_KPEAXU__clr_placement_new_t@?A0xca13f8fb@@@Z
PUBLIC	__m2mep@??2@$$FYAPEAX_KPEAXU__clr_placement_new_t@?A0xca13f8fb@@@Z
PUBLIC	__mep@??2@$$FYAPEAX_KPEAXU__clr_placement_new_t@?A0xca13f8fb@@@Z
;	COMDAT __mep@??2@$$FYAPEAX_KPEAXU__clr_placement_new_t@?A0xca13f8fb@@@Z
data	SEGMENT
__mep@??2@$$FYAPEAX_KPEAXU__clr_placement_new_t@?A0xca13f8fb@@@Z TOKEN 0A00000A
data	ENDS
;	COMDAT __m2mep@??2@$$FYAPEAX_KPEAXU__clr_placement_new_t@?A0xca13f8fb@@@Z
data	SEGMENT
__m2mep@??2@$$FYAPEAX_KPEAXU__clr_placement_new_t@?A0xca13f8fb@@@Z DD FLAT:??2@$$FYAPEAX_KPEAXU__clr_placement_new_t@?A0xca13f8fb@@@Z
data	ENDS
; Function compile flags: /Ods
;	COMDAT nep
_TEXT	SEGMENT
__t2m@??2@YAPEAX_KPEAXU__clr_placement_new_t@?A0xca13f8fb@@@Z PROC ; COMDAT
	jmp	SHORT $LN1@
	ud2
$LN2@:
	jmp	QWORD PTR __m2mep@??2@$$FYAPEAX_KPEAXU__clr_placement_new_t@?A0xca13f8fb@@@Z
$LN1@:
	jmp	QWORD PTR __mep@??2@$$FYAPEAX_KPEAXU__clr_placement_new_t@?A0xca13f8fb@@@Z
__t2m@??2@YAPEAX_KPEAXU__clr_placement_new_t@?A0xca13f8fb@@@Z ENDP
_TEXT	ENDS
PUBLIC	__t2m@??2@YAPEAX_KPEAX@Z
PUBLIC	__m2mep@??2@$$FYAPEAX_KPEAX@Z
PUBLIC	__mep@??2@$$FYAPEAX_KPEAX@Z
;	COMDAT __mep@??2@$$FYAPEAX_KPEAX@Z
data	SEGMENT
__mep@??2@$$FYAPEAX_KPEAX@Z TOKEN 0A00000B
data	ENDS
;	COMDAT __m2mep@??2@$$FYAPEAX_KPEAX@Z
data	SEGMENT
__m2mep@??2@$$FYAPEAX_KPEAX@Z DD FLAT:??2@$$FYAPEAX_KPEAX@Z
data	ENDS
; Function compile flags: /Ods
;	COMDAT nep
_TEXT	SEGMENT
__t2m@??2@YAPEAX_KPEAX@Z PROC				; COMDAT
	jmp	SHORT $LN1@
	ud2
$LN2@:
	jmp	QWORD PTR __m2mep@??2@$$FYAPEAX_KPEAX@Z
$LN1@:
	jmp	QWORD PTR __mep@??2@$$FYAPEAX_KPEAX@Z
__t2m@??2@YAPEAX_KPEAX@Z ENDP
_TEXT	ENDS
PUBLIC	__t2m@?max@?$numeric_limits@_J@std@@SA_JXZ
PUBLIC	__m2mep@?max@?$numeric_limits@_J@std@@$$FSA_JXZ
PUBLIC	__mep@?max@?$numeric_limits@_J@std@@$$FSA_JXZ
;	COMDAT __mep@?max@?$numeric_limits@_J@std@@$$FSA_JXZ
data	SEGMENT
__mep@?max@?$numeric_limits@_J@std@@$$FSA_JXZ TOKEN 0A000047
data	ENDS
;	COMDAT __m2mep@?max@?$numeric_limits@_J@std@@$$FSA_JXZ
data	SEGMENT
__m2mep@?max@?$numeric_limits@_J@std@@$$FSA_JXZ DD FLAT:?max@?$numeric_limits@_J@std@@$$FSA_JXZ
data	ENDS
; Function compile flags: /Ods
;	COMDAT nep
_TEXT	SEGMENT
__t2m@?max@?$numeric_limits@_J@std@@SA_JXZ PROC		; COMDAT
	jmp	SHORT $LN1@
	ud2
$LN2@:
	jmp	QWORD PTR __m2mep@?max@?$numeric_limits@_J@std@@$$FSA_JXZ
$LN1@:
	jmp	QWORD PTR __mep@?max@?$numeric_limits@_J@std@@$$FSA_JXZ
__t2m@?max@?$numeric_limits@_J@std@@SA_JXZ ENDP
_TEXT	ENDS
PUBLIC	__t2m@??0exception@std@@QEAA@QEBDH@Z
PUBLIC	__m2mep@??0exception@std@@$$FQEAA@QEBDH@Z
PUBLIC	__mep@??0exception@std@@$$FQEAA@QEBDH@Z
;	COMDAT __mep@??0exception@std@@$$FQEAA@QEBDH@Z
data	SEGMENT
__mep@??0exception@std@@$$FQEAA@QEBDH@Z TOKEN 0A000050
data	ENDS
;	COMDAT __m2mep@??0exception@std@@$$FQEAA@QEBDH@Z
data	SEGMENT
__m2mep@??0exception@std@@$$FQEAA@QEBDH@Z DD FLAT:??0exception@std@@$$FQEAA@QEBDH@Z
data	ENDS
; Function compile flags: /Ods
;	COMDAT nep
_TEXT	SEGMENT
__t2m@??0exception@std@@QEAA@QEBDH@Z PROC		; COMDAT
	jmp	SHORT $LN1@
	ud2
$LN2@:
	jmp	QWORD PTR __m2mep@??0exception@std@@$$FQEAA@QEBDH@Z
$LN1@:
	jmp	QWORD PTR __mep@??0exception@std@@$$FQEAA@QEBDH@Z
__t2m@??0exception@std@@QEAA@QEBDH@Z ENDP
_TEXT	ENDS
	.bss
.local	$T1,0
; Function compile flags: /Odtp
	.text
	.comdat	any, ??_Eexception@std@@$$FUEAAPEAXI@Z
.global	??_Eexception@std@@$$FUEAAPEAXI@Z		; std::exception::`vector deleting destructor'
??_Eexception@std@@$$FUEAAPEAXI@Z:			; std::exception::`vector deleting destructor'
;	.proc.def	D:J(JI)

; Function Header:
; max stack depth = 4
; function size = 82 bytes
; local varsig tk = 0x11000004 
; Exception Information:
; 0 handlers, each consisting of filtered handlers

;	.formal.i8 0,"this$" SIG: Optional C Binding Modifier(token:0x86D9C91).Optional C Binding Modifier(token:0x86D9C93).ptr.valueType (token:0x86D9C96)
;	.formal.u4 1,"__flags$" SIG: u4
;	.local.i8 0,"$T2" SIG: ptr.void

;	.proc.beg
	ldarg.1				; __flags$
	ldc.i.2		2		; u32 0x2
	and		
	brfalse.s	$LN2@vector
	ldarg.0				; this$
	ldc.i4.s	24		; u64 0x18
	conv.i8		
	ldarg.0				; this$
	ldc.i.8		8		; i64 0x8
	conv.i8		
	sub		
	ldind.i8	
	ldftn		??1exception@std@@$$FUEAA@XZ
	call		??_M@$$FYMXPEAX_K1P6MX0@Z@Z
	ldarg.1				; __flags$
	ldc.i.1		1		; u32 0x1
	and		
	brfalse.s	$LN3@vector
	ldarg.0				; this$
	ldc.i.8		8		; i64 0x8
	conv.i8		
	sub		
	ldarg.0				; this$
	ldc.i.8		8		; i64 0x8
	conv.i8		
	sub		
	ldind.i8	
	ldc.i4.s	24		; u64 0x18
	conv.i8		
	mul		
	ldc.i.8		8		; u64 0x8
	conv.i8		
	add		
	call		??_V@$$FYAXPEAX_K@Z
$LN3@vector:
	ldarg.0				; this$
	ldc.i.8		8		; i64 0x8
	conv.i8		
	sub		
	stloc.0				; $T2
	br.s		$LN1@vector
$LN2@vector:
	ldarg.0				; this$
	call		??1exception@std@@$$FUEAA@XZ
	ldarg.1				; __flags$
	ldc.i.1		1		; u32 0x1
	and		
	brfalse.s	$LN4@vector
	ldarg.0				; this$
	ldc.i4.s	24		; u64 0x18
	conv.i8		
	call		??3@$$FYAXPEAX_K@Z
$LN4@vector:
	ldarg.0				; this$
	stloc.0				; $T2
$LN1@vector:
	ldloc.0				; $T2
	ret		
 .end ??_Eexception@std@@$$FUEAAPEAXI@Z			; std::exception::`vector deleting destructor'
;	.proc.end.i8
PUBLIC	__t2m@??_Eexception@std@@UEAAPEAXI@Z
PUBLIC	__m2mep@??_Eexception@std@@$$FUEAAPEAXI@Z
PUBLIC	__mep@??_Eexception@std@@$$FUEAAPEAXI@Z
;	COMDAT __mep@??_Eexception@std@@$$FUEAAPEAXI@Z
data	SEGMENT
__mep@??_Eexception@std@@$$FUEAAPEAXI@Z TOKEN 0A000054
data	ENDS
;	COMDAT __m2mep@??_Eexception@std@@$$FUEAAPEAXI@Z
data	SEGMENT
__m2mep@??_Eexception@std@@$$FUEAAPEAXI@Z DD FLAT:??_Eexception@std@@$$FUEAAPEAXI@Z
data	ENDS
; Function compile flags: /Ods
;	COMDAT nep
_TEXT	SEGMENT
__t2m@??_Eexception@std@@UEAAPEAXI@Z PROC		; COMDAT
	jmp	SHORT $LN1@
	ud2
$LN2@:
	jmp	QWORD PTR __m2mep@??_Eexception@std@@$$FUEAAPEAXI@Z
$LN1@:
	jmp	QWORD PTR __mep@??_Eexception@std@@$$FUEAAPEAXI@Z
__t2m@??_Eexception@std@@UEAAPEAXI@Z ENDP
_TEXT	ENDS
.global	
.global	??_C@_0BC@EOODALEL@Unknown?5exception@		; `string'
	.bss
.local	,4
.local	$T1,0
	.rdata
	.comdat	any, ??_C@_0BC@EOODALEL@Unknown?5exception@

??_C@_0BC@EOODALEL@Unknown?5exception@:			; `string'
	.ascii	"Unknown exception\000"
; Function compile flags: /Odtp
; File C:\Program Files (x86)\Microsoft Visual Studio\2019\Enterprise\VC\Tools\MSVC\14.27.29110\include\vcruntime_exception.h
	.text
	.comdat	any, ?what@exception@std@@$$FUEBAPEBDXZ
.global	?what@exception@std@@$$FUEBAPEBDXZ		; std::exception::what
?what@exception@std@@$$FUEBAPEBDXZ:			; std::exception::what
;	.proc.def	D:J(J)

; Function Header:
; max stack depth = 2
; function size = 22 bytes
; local varsig tk = 0x1100007A 
; Exception Information:
; 0 handlers, each consisting of filtered handlers

;	.formal.i8 0,"this$" SIG: Optional C Binding Modifier(token:0x895A859).Optional C Binding Modifier(token:0x895A85B).ptr.Optional C Binding Modifier(token:0x895A85E).valueType (token:0x895A860)
;	.local.i8 0,"$T2" SIG: ptr.Optional C Binding Modifier(token:0x89192C2).Optional C Binding Modifier(token:0x89192C4).i1

;	.proc.beg

; 95   :         return _Data._What ? _Data._What : "Unknown exception";

	ldarg.0				; this$
	ldc.i.8		8		; i64 0x8
	conv.i8		
	add		
	ldind.i8	
	brfalse.s	$LN3@what
	ldarg.0				; this$
	ldc.i.8		8		; i64 0x8
	conv.i8		
	add		
	ldind.i8	
	br.s		$LN4@what
$LN3@what:
	ldsflda		??_C@_0BC@EOODALEL@Unknown?5exception@
$LN4@what:
	stloc.0				; $T2

; 96   :     }

	ldloc.0				; $T2
	ret		
 .end ?what@exception@std@@$$FUEBAPEBDXZ		; std::exception::what
;	.proc.end.i8
PUBLIC	__t2m@?what@exception@std@@UEBAPEBDXZ
PUBLIC	__m2mep@?what@exception@std@@$$FUEBAPEBDXZ
PUBLIC	__mep@?what@exception@std@@$$FUEBAPEBDXZ
;	COMDAT __mep@?what@exception@std@@$$FUEBAPEBDXZ
data	SEGMENT
__mep@?what@exception@std@@$$FUEBAPEBDXZ TOKEN 0A000053
data	ENDS
;	COMDAT __m2mep@?what@exception@std@@$$FUEBAPEBDXZ
data	SEGMENT
__m2mep@?what@exception@std@@$$FUEBAPEBDXZ DD FLAT:?what@exception@std@@$$FUEBAPEBDXZ
data	ENDS
; Function compile flags: /Ods
;	COMDAT nep
_TEXT	SEGMENT
__t2m@?what@exception@std@@UEBAPEBDXZ PROC		; COMDAT
	jmp	SHORT $LN1@
	ud2
$LN2@:
	jmp	QWORD PTR __m2mep@?what@exception@std@@$$FUEBAPEBDXZ
$LN1@:
	jmp	QWORD PTR __mep@?what@exception@std@@$$FUEBAPEBDXZ
__t2m@?what@exception@std@@UEBAPEBDXZ ENDP
_TEXT	ENDS
PUBLIC	__t2m@??1exception@std@@UEAA@XZ
PUBLIC	__m2mep@??1exception@std@@$$FUEAA@XZ
PUBLIC	__mep@??1exception@std@@$$FUEAA@XZ
;	COMDAT __mep@??1exception@std@@$$FUEAA@XZ
data	SEGMENT
__mep@??1exception@std@@$$FUEAA@XZ TOKEN 0A000052
data	ENDS
;	COMDAT __m2mep@??1exception@std@@$$FUEAA@XZ
data	SEGMENT
__m2mep@??1exception@std@@$$FUEAA@XZ DD FLAT:??1exception@std@@$$FUEAA@XZ
data	ENDS
; Function compile flags: /Ods
;	COMDAT nep
_TEXT	SEGMENT
__t2m@??1exception@std@@UEAA@XZ PROC			; COMDAT
	jmp	SHORT $LN1@
	ud2
$LN2@:
	jmp	QWORD PTR __m2mep@??1exception@std@@$$FUEAA@XZ
$LN1@:
	jmp	QWORD PTR __mep@??1exception@std@@$$FUEAA@XZ
__t2m@??1exception@std@@UEAA@XZ ENDP
_TEXT	ENDS
PUBLIC	__t2m@??0bad_alloc@std@@AEAA@QEBD@Z
PUBLIC	__m2mep@??0bad_alloc@std@@$$FAEAA@QEBD@Z
PUBLIC	__mep@??0bad_alloc@std@@$$FAEAA@QEBD@Z
;	COMDAT __mep@??0bad_alloc@std@@$$FAEAA@QEBD@Z
data	SEGMENT
__mep@??0bad_alloc@std@@$$FAEAA@QEBD@Z TOKEN 0A000057
data	ENDS
;	COMDAT __m2mep@??0bad_alloc@std@@$$FAEAA@QEBD@Z
data	SEGMENT
__m2mep@??0bad_alloc@std@@$$FAEAA@QEBD@Z DD FLAT:??0bad_alloc@std@@$$FAEAA@QEBD@Z
data	ENDS
; Function compile flags: /Ods
;	COMDAT nep
_TEXT	SEGMENT
__t2m@??0bad_alloc@std@@AEAA@QEBD@Z PROC		; COMDAT
	jmp	SHORT $LN1@
	ud2
	jmp	QWORD PTR __m2mep@??0bad_alloc@std@@$$FAEAA@QEBD@Z
$LN1@:
	jmp	QWORD PTR __mep@??0bad_alloc@std@@$$FAEAA@QEBD@Z
__t2m@??0bad_alloc@std@@AEAA@QEBD@Z ENDP
_TEXT	ENDS
	.bss
.local	$T1,0
; Function compile flags: /Odtp
	.text
	.comdat	any, ??_Ebad_alloc@std@@$$FUEAAPEAXI@Z
.global	??_Ebad_alloc@std@@$$FUEAAPEAXI@Z		; std::bad_alloc::`vector deleting destructor'
??_Ebad_alloc@std@@$$FUEAAPEAXI@Z:			; std::bad_alloc::`vector deleting destructor'
;	.proc.def	D:J(JI)

; Function Header:
; max stack depth = 4
; function size = 82 bytes
; local varsig tk = 0x11000004 
; Exception Information:
; 0 handlers, each consisting of filtered handlers

;	.formal.i8 0,"this$" SIG: Optional C Binding Modifier(token:0x895F879).Optional C Binding Modifier(token:0x895F87B).ptr.valueType (token:0x895F87E)
;	.formal.u4 1,"__flags$" SIG: u4
;	.local.i8 0,"$T2" SIG: ptr.void

;	.proc.beg
	ldarg.1				; __flags$
	ldc.i.2		2		; u32 0x2
	and		
	brfalse.s	$LN2@vector
	ldarg.0				; this$
	ldc.i4.s	24		; u64 0x18
	conv.i8		
	ldarg.0				; this$
	ldc.i.8		8		; i64 0x8
	conv.i8		
	sub		
	ldind.i8	
	ldftn		??1bad_alloc@std@@$$FUEAA@XZ
	call		??_M@$$FYMXPEAX_K1P6MX0@Z@Z
	ldarg.1				; __flags$
	ldc.i.1		1		; u32 0x1
	and		
	brfalse.s	$LN3@vector
	ldarg.0				; this$
	ldc.i.8		8		; i64 0x8
	conv.i8		
	sub		
	ldarg.0				; this$
	ldc.i.8		8		; i64 0x8
	conv.i8		
	sub		
	ldind.i8	
	ldc.i4.s	24		; u64 0x18
	conv.i8		
	mul		
	ldc.i.8		8		; u64 0x8
	conv.i8		
	add		
	call		??_V@$$FYAXPEAX_K@Z
$LN3@vector:
	ldarg.0				; this$
	ldc.i.8		8		; i64 0x8
	conv.i8		
	sub		
	stloc.0				; $T2
	br.s		$LN1@vector
$LN2@vector:
	ldarg.0				; this$
	call		??1bad_alloc@std@@$$FUEAA@XZ
	ldarg.1				; __flags$
	ldc.i.1		1		; u32 0x1
	and		
	brfalse.s	$LN4@vector
	ldarg.0				; this$
	ldc.i4.s	24		; u64 0x18
	conv.i8		
	call		??3@$$FYAXPEAX_K@Z
$LN4@vector:
	ldarg.0				; this$
	stloc.0				; $T2
$LN1@vector:
	ldloc.0				; $T2
	ret		
 .end ??_Ebad_alloc@std@@$$FUEAAPEAXI@Z			; std::bad_alloc::`vector deleting destructor'
;	.proc.end.i8
PUBLIC	__t2m@??_Ebad_alloc@std@@UEAAPEAXI@Z
PUBLIC	__m2mep@??_Ebad_alloc@std@@$$FUEAAPEAXI@Z
PUBLIC	__mep@??_Ebad_alloc@std@@$$FUEAAPEAXI@Z
;	COMDAT __mep@??_Ebad_alloc@std@@$$FUEAAPEAXI@Z
data	SEGMENT
__mep@??_Ebad_alloc@std@@$$FUEAAPEAXI@Z TOKEN 0A000058
data	ENDS
;	COMDAT __m2mep@??_Ebad_alloc@std@@$$FUEAAPEAXI@Z
data	SEGMENT
__m2mep@??_Ebad_alloc@std@@$$FUEAAPEAXI@Z DD FLAT:??_Ebad_alloc@std@@$$FUEAAPEAXI@Z
data	ENDS
; Function compile flags: /Ods
;	COMDAT nep
_TEXT	SEGMENT
__t2m@??_Ebad_alloc@std@@UEAAPEAXI@Z PROC		; COMDAT
	jmp	SHORT $LN1@
	ud2
$LN2@:
	jmp	QWORD PTR __m2mep@??_Ebad_alloc@std@@$$FUEAAPEAXI@Z
$LN1@:
	jmp	QWORD PTR __mep@??_Ebad_alloc@std@@$$FUEAAPEAXI@Z
__t2m@??_Ebad_alloc@std@@UEAAPEAXI@Z ENDP
_TEXT	ENDS
PUBLIC	__t2m@??1bad_alloc@std@@UEAA@XZ
PUBLIC	__m2mep@??1bad_alloc@std@@$$FUEAA@XZ
PUBLIC	__mep@??1bad_alloc@std@@$$FUEAA@XZ
;	COMDAT __mep@??1bad_alloc@std@@$$FUEAA@XZ
data	SEGMENT
__mep@??1bad_alloc@std@@$$FUEAA@XZ TOKEN 0A000059
data	ENDS
;	COMDAT __m2mep@??1bad_alloc@std@@$$FUEAA@XZ
data	SEGMENT
__m2mep@??1bad_alloc@std@@$$FUEAA@XZ DD FLAT:??1bad_alloc@std@@$$FUEAA@XZ
data	ENDS
; Function compile flags: /Ods
;	COMDAT nep
_TEXT	SEGMENT
__t2m@??1bad_alloc@std@@UEAA@XZ PROC			; COMDAT
	jmp	SHORT $LN1@
	ud2
	jmp	QWORD PTR __m2mep@??1bad_alloc@std@@$$FUEAA@XZ
$LN1@:
	jmp	QWORD PTR __mep@??1bad_alloc@std@@$$FUEAA@XZ
__t2m@??1bad_alloc@std@@UEAA@XZ ENDP
_TEXT	ENDS
PUBLIC	__t2m@??0bad_array_new_length@std@@QEAA@XZ
PUBLIC	__m2mep@??0bad_array_new_length@std@@$$FQEAA@XZ
PUBLIC	__mep@??0bad_array_new_length@std@@$$FQEAA@XZ
;	COMDAT __mep@??0bad_array_new_length@std@@$$FQEAA@XZ
data	SEGMENT
__mep@??0bad_array_new_length@std@@$$FQEAA@XZ TOKEN 0A00005A
data	ENDS
;	COMDAT __m2mep@??0bad_array_new_length@std@@$$FQEAA@XZ
data	SEGMENT
__m2mep@??0bad_array_new_length@std@@$$FQEAA@XZ DD FLAT:??0bad_array_new_length@std@@$$FQEAA@XZ
data	ENDS
; Function compile flags: /Ods
;	COMDAT nep
_TEXT	SEGMENT
__t2m@??0bad_array_new_length@std@@QEAA@XZ PROC		; COMDAT
	jmp	SHORT $LN1@
	ud2
	jmp	QWORD PTR __m2mep@??0bad_array_new_length@std@@$$FQEAA@XZ
$LN1@:
	jmp	QWORD PTR __mep@??0bad_array_new_length@std@@$$FQEAA@XZ
__t2m@??0bad_array_new_length@std@@QEAA@XZ ENDP
_TEXT	ENDS
	.bss
.local	$T1,0
; Function compile flags: /Odtp
	.text
	.comdat	any, ??_Ebad_array_new_length@std@@$$FUEAAPEAXI@Z
.global	??_Ebad_array_new_length@std@@$$FUEAAPEAXI@Z	; std::bad_array_new_length::`vector deleting destructor'
??_Ebad_array_new_length@std@@$$FUEAAPEAXI@Z:		; std::bad_array_new_length::`vector deleting destructor'
;	.proc.def	D:J(JI)

; Function Header:
; max stack depth = 4
; function size = 82 bytes
; local varsig tk = 0x11000004 
; Exception Information:
; 0 handlers, each consisting of filtered handlers

;	.formal.i8 0,"this$" SIG: Optional C Binding Modifier(token:0x895F1B1).Optional C Binding Modifier(token:0x895F1B3).ptr.valueType (token:0x895F1B6)
;	.formal.u4 1,"__flags$" SIG: u4
;	.local.i8 0,"$T2" SIG: ptr.void

;	.proc.beg
	ldarg.1				; __flags$
	ldc.i.2		2		; u32 0x2
	and		
	brfalse.s	$LN2@vector
	ldarg.0				; this$
	ldc.i4.s	24		; u64 0x18
	conv.i8		
	ldarg.0				; this$
	ldc.i.8		8		; i64 0x8
	conv.i8		
	sub		
	ldind.i8	
	ldftn		??1bad_array_new_length@std@@$$FUEAA@XZ
	call		??_M@$$FYMXPEAX_K1P6MX0@Z@Z
	ldarg.1				; __flags$
	ldc.i.1		1		; u32 0x1
	and		
	brfalse.s	$LN3@vector
	ldarg.0				; this$
	ldc.i.8		8		; i64 0x8
	conv.i8		
	sub		
	ldarg.0				; this$
	ldc.i.8		8		; i64 0x8
	conv.i8		
	sub		
	ldind.i8	
	ldc.i4.s	24		; u64 0x18
	conv.i8		
	mul		
	ldc.i.8		8		; u64 0x8
	conv.i8		
	add		
	call		??_V@$$FYAXPEAX_K@Z
$LN3@vector:
	ldarg.0				; this$
	ldc.i.8		8		; i64 0x8
	conv.i8		
	sub		
	stloc.0				; $T2
	br.s		$LN1@vector
$LN2@vector:
	ldarg.0				; this$
	call		??1bad_array_new_length@std@@$$FUEAA@XZ
	ldarg.1				; __flags$
	ldc.i.1		1		; u32 0x1
	and		
	brfalse.s	$LN4@vector
	ldarg.0				; this$
	ldc.i4.s	24		; u64 0x18
	conv.i8		
	call		??3@$$FYAXPEAX_K@Z
$LN4@vector:
	ldarg.0				; this$
	stloc.0				; $T2
$LN1@vector:
	ldloc.0				; $T2
	ret		
 .end ??_Ebad_array_new_length@std@@$$FUEAAPEAXI@Z	; std::bad_array_new_length::`vector deleting destructor'
;	.proc.end.i8
; Function compile flags: /Odtp
	.text
	.comdat	any, ??1bad_array_new_length@std@@$$FUEAA@XZ
.global	??1bad_array_new_length@std@@$$FUEAA@XZ		; std::bad_array_new_length::~bad_array_new_length
??1bad_array_new_length@std@@$$FUEAA@XZ:		; std::bad_array_new_length::~bad_array_new_length
;	.proc.def	D:V(J)

; Function Header:
; max stack depth = 1
; function size = 7 bytes
; local varsig tk = 0x0 
; Exception Information:
; 0 handlers, each consisting of filtered handlers

;	.formal.i8 0,"this$" SIG: Optional C Binding Modifier(token:0x895F1B1).Optional C Binding Modifier(token:0x895F1B3).ptr.valueType (token:0x895F1B6)

;	.proc.beg
	ldarg.0				; this$
	call		??1bad_alloc@std@@$$FUEAA@XZ
	ret		
 .end ??1bad_array_new_length@std@@$$FUEAA@XZ		; std::bad_array_new_length::~bad_array_new_length
;	.proc.end.void
PUBLIC	__t2m@??_Ebad_array_new_length@std@@UEAAPEAXI@Z
PUBLIC	__m2mep@??_Ebad_array_new_length@std@@$$FUEAAPEAXI@Z
PUBLIC	__mep@??_Ebad_array_new_length@std@@$$FUEAAPEAXI@Z
;	COMDAT __mep@??_Ebad_array_new_length@std@@$$FUEAAPEAXI@Z
data	SEGMENT
__mep@??_Ebad_array_new_length@std@@$$FUEAAPEAXI@Z TOKEN 0A00005B
data	ENDS
;	COMDAT __m2mep@??_Ebad_array_new_length@std@@$$FUEAAPEAXI@Z
data	SEGMENT
__m2mep@??_Ebad_array_new_length@std@@$$FUEAAPEAXI@Z DD FLAT:??_Ebad_array_new_length@std@@$$FUEAAPEAXI@Z
data	ENDS
; Function compile flags: /Ods
;	COMDAT nep
_TEXT	SEGMENT
__t2m@??_Ebad_array_new_length@std@@UEAAPEAXI@Z PROC	; COMDAT
	jmp	SHORT $LN1@
	ud2
$LN2@:
	jmp	QWORD PTR __m2mep@??_Ebad_array_new_length@std@@$$FUEAAPEAXI@Z
$LN1@:
	jmp	QWORD PTR __mep@??_Ebad_array_new_length@std@@$$FUEAAPEAXI@Z
__t2m@??_Ebad_array_new_length@std@@UEAAPEAXI@Z ENDP
_TEXT	ENDS
PUBLIC	__t2m@??1exception_ptr@std@@QEAA@XZ
PUBLIC	__m2mep@??1exception_ptr@std@@$$FQEAA@XZ
PUBLIC	__mep@??1exception_ptr@std@@$$FQEAA@XZ
;	COMDAT __mep@??1exception_ptr@std@@$$FQEAA@XZ
data	SEGMENT
__mep@??1exception_ptr@std@@$$FQEAA@XZ TOKEN 0A00005F
data	ENDS
;	COMDAT __m2mep@??1exception_ptr@std@@$$FQEAA@XZ
data	SEGMENT
__m2mep@??1exception_ptr@std@@$$FQEAA@XZ DD FLAT:??1exception_ptr@std@@$$FQEAA@XZ
data	ENDS
; Function compile flags: /Ods
;	COMDAT nep
_TEXT	SEGMENT
__t2m@??1exception_ptr@std@@QEAA@XZ PROC		; COMDAT
	jmp	SHORT $LN1@
	ud2
$LN2@:
	jmp	QWORD PTR __m2mep@??1exception_ptr@std@@$$FQEAA@XZ
$LN1@:
	jmp	QWORD PTR __mep@??1exception_ptr@std@@$$FQEAA@XZ
__t2m@??1exception_ptr@std@@QEAA@XZ ENDP
_TEXT	ENDS
PUBLIC	__t2m@?_Throw_bad_array_new_length@std@@YAXXZ
PUBLIC	__m2mep@?_Throw_bad_array_new_length@std@@$$FYAXXZ
PUBLIC	__mep@?_Throw_bad_array_new_length@std@@$$FYAXXZ
;	COMDAT __mep@?_Throw_bad_array_new_length@std@@$$FYAXXZ
data	SEGMENT
__mep@?_Throw_bad_array_new_length@std@@$$FYAXXZ TOKEN 0A000068
data	ENDS
;	COMDAT __m2mep@?_Throw_bad_array_new_length@std@@$$FYAXXZ
data	SEGMENT
__m2mep@?_Throw_bad_array_new_length@std@@$$FYAXXZ DD FLAT:?_Throw_bad_array_new_length@std@@$$FYAXXZ
data	ENDS
; Function compile flags: /Ods
;	COMDAT nep
_TEXT	SEGMENT
__t2m@?_Throw_bad_array_new_length@std@@YAXXZ PROC	; COMDAT
	jmp	SHORT $LN1@
	ud2
$LN2@:
	jmp	QWORD PTR __m2mep@?_Throw_bad_array_new_length@std@@$$FYAXXZ
$LN1@:
	jmp	QWORD PTR __mep@?_Throw_bad_array_new_length@std@@$$FYAXXZ
__t2m@?_Throw_bad_array_new_length@std@@YAXXZ ENDP
_TEXT	ENDS
PUBLIC	__t2m@??1bad_array_new_length@std@@UEAA@XZ
PUBLIC	__m2mep@??1bad_array_new_length@std@@$$FUEAA@XZ
PUBLIC	__mep@??1bad_array_new_length@std@@$$FUEAA@XZ
;	COMDAT __mep@??1bad_array_new_length@std@@$$FUEAA@XZ
data	SEGMENT
__mep@??1bad_array_new_length@std@@$$FUEAA@XZ TOKEN 0A00005C
data	ENDS
;	COMDAT __m2mep@??1bad_array_new_length@std@@$$FUEAA@XZ
data	SEGMENT
__m2mep@??1bad_array_new_length@std@@$$FUEAA@XZ DD FLAT:??1bad_array_new_length@std@@$$FUEAA@XZ
data	ENDS
; Function compile flags: /Ods
;	COMDAT nep
_TEXT	SEGMENT
__t2m@??1bad_array_new_length@std@@UEAA@XZ PROC		; COMDAT
	jmp	SHORT $LN1@
	ud2
	jmp	QWORD PTR __m2mep@??1bad_array_new_length@std@@$$FUEAA@XZ
$LN1@:
	jmp	QWORD PTR __mep@??1bad_array_new_length@std@@$$FUEAA@XZ
__t2m@??1bad_array_new_length@std@@UEAA@XZ ENDP
_TEXT	ENDS
PUBLIC	__t2m@?_Allocate@_Default_allocate_traits@std@@SAPEAX_K@Z
PUBLIC	__m2mep@?_Allocate@_Default_allocate_traits@std@@$$FSAPEAX_K@Z
PUBLIC	__mep@?_Allocate@_Default_allocate_traits@std@@$$FSAPEAX_K@Z
;	COMDAT __mep@?_Allocate@_Default_allocate_traits@std@@$$FSAPEAX_K@Z
data	SEGMENT
__mep@?_Allocate@_Default_allocate_traits@std@@$$FSAPEAX_K@Z TOKEN 0A00006D
data	ENDS
;	COMDAT __m2mep@?_Allocate@_Default_allocate_traits@std@@$$FSAPEAX_K@Z
data	SEGMENT
__m2mep@?_Allocate@_Default_allocate_traits@std@@$$FSAPEAX_K@Z DD FLAT:?_Allocate@_Default_allocate_traits@std@@$$FSAPEAX_K@Z
data	ENDS
; Function compile flags: /Ods
;	COMDAT nep
_TEXT	SEGMENT
__t2m@?_Allocate@_Default_allocate_traits@std@@SAPEAX_K@Z PROC ; COMDAT
	jmp	SHORT $LN1@
	ud2
$LN2@:
	jmp	QWORD PTR __m2mep@?_Allocate@_Default_allocate_traits@std@@$$FSAPEAX_K@Z
$LN1@:
	jmp	QWORD PTR __mep@?_Allocate@_Default_allocate_traits@std@@$$FSAPEAX_K@Z
__t2m@?_Allocate@_Default_allocate_traits@std@@SAPEAX_K@Z ENDP
_TEXT	ENDS
PUBLIC	__t2m@?_Adjust_manually_vector_aligned@std@@YAXAEAPEAXAEA_K@Z
PUBLIC	__m2mep@?_Adjust_manually_vector_aligned@std@@$$FYAXAEAPEAXAEA_K@Z
PUBLIC	__mep@?_Adjust_manually_vector_aligned@std@@$$FYAXAEAPEAXAEA_K@Z
;	COMDAT __mep@?_Adjust_manually_vector_aligned@std@@$$FYAXAEAPEAXAEA_K@Z
data	SEGMENT
__mep@?_Adjust_manually_vector_aligned@std@@$$FYAXAEAPEAXAEA_K@Z TOKEN 0A00006E
data	ENDS
;	COMDAT __m2mep@?_Adjust_manually_vector_aligned@std@@$$FYAXAEAPEAXAEA_K@Z
data	SEGMENT
__m2mep@?_Adjust_manually_vector_aligned@std@@$$FYAXAEAPEAXAEA_K@Z DD FLAT:?_Adjust_manually_vector_aligned@std@@$$FYAXAEAPEAXAEA_K@Z
data	ENDS
; Function compile flags: /Ods
;	COMDAT nep
_TEXT	SEGMENT
__t2m@?_Adjust_manually_vector_aligned@std@@YAXAEAPEAXAEA_K@Z PROC ; COMDAT
	jmp	SHORT $LN1@
	ud2
$LN2@:
	jmp	QWORD PTR __m2mep@?_Adjust_manually_vector_aligned@std@@$$FYAXAEAPEAXAEA_K@Z
$LN1@:
	jmp	QWORD PTR __mep@?_Adjust_manually_vector_aligned@std@@$$FYAXAEAPEAXAEA_K@Z
__t2m@?_Adjust_manually_vector_aligned@std@@YAXAEAPEAXAEA_K@Z ENDP
_TEXT	ENDS
PUBLIC	__t2m@??$_Convert_size@_K@std@@YA_K_K@Z
PUBLIC	__m2mep@??$_Convert_size@_K@std@@$$FYA_K_K@Z
PUBLIC	__mep@??$_Convert_size@_K@std@@$$FYA_K_K@Z
;	COMDAT __mep@??$_Convert_size@_K@std@@$$FYA_K_K@Z
data	SEGMENT
__mep@??$_Convert_size@_K@std@@$$FYA_K_K@Z TOKEN 0A00006F
data	ENDS
;	COMDAT __m2mep@??$_Convert_size@_K@std@@$$FYA_K_K@Z
data	SEGMENT
__m2mep@??$_Convert_size@_K@std@@$$FYA_K_K@Z DD FLAT:??$_Convert_size@_K@std@@$$FYA_K_K@Z
data	ENDS
; Function compile flags: /Ods
;	COMDAT nep
_TEXT	SEGMENT
__t2m@??$_Convert_size@_K@std@@YA_K_K@Z PROC		; COMDAT
	jmp	SHORT $LN1@
	ud2
$LN2@:
	jmp	QWORD PTR __m2mep@??$_Convert_size@_K@std@@$$FYA_K_K@Z
$LN1@:
	jmp	QWORD PTR __mep@??$_Convert_size@_K@std@@$$FYA_K_K@Z
__t2m@??$_Convert_size@_K@std@@YA_K_K@Z ENDP
_TEXT	ENDS
PUBLIC	__t2m@??0_Container_proxy@std@@QEAA@PEAU_Container_base12@1@@Z
PUBLIC	__m2mep@??0_Container_proxy@std@@$$FQEAA@PEAU_Container_base12@1@@Z
PUBLIC	__mep@??0_Container_proxy@std@@$$FQEAA@PEAU_Container_base12@1@@Z
;	COMDAT __mep@??0_Container_proxy@std@@$$FQEAA@PEAU_Container_base12@1@@Z
data	SEGMENT
__mep@??0_Container_proxy@std@@$$FQEAA@PEAU_Container_base12@1@@Z TOKEN 0A000070
data	ENDS
;	COMDAT __m2mep@??0_Container_proxy@std@@$$FQEAA@PEAU_Container_base12@1@@Z
data	SEGMENT
__m2mep@??0_Container_proxy@std@@$$FQEAA@PEAU_Container_base12@1@@Z DD FLAT:??0_Container_proxy@std@@$$FQEAA@PEAU_Container_base12@1@@Z
data	ENDS
; Function compile flags: /Ods
;	COMDAT nep
_TEXT	SEGMENT
__t2m@??0_Container_proxy@std@@QEAA@PEAU_Container_base12@1@@Z PROC ; COMDAT
	jmp	SHORT $LN1@
	ud2
$LN2@:
	jmp	QWORD PTR __m2mep@??0_Container_proxy@std@@$$FQEAA@PEAU_Container_base12@1@@Z
$LN1@:
	jmp	QWORD PTR __mep@??0_Container_proxy@std@@$$FQEAA@PEAU_Container_base12@1@@Z
__t2m@??0_Container_proxy@std@@QEAA@PEAU_Container_base12@1@@Z ENDP
_TEXT	ENDS
PUBLIC	__t2m@??0_Container_base12@std@@QEAA@XZ
PUBLIC	__m2mep@??0_Container_base12@std@@$$FQEAA@XZ
PUBLIC	__mep@??0_Container_base12@std@@$$FQEAA@XZ
;	COMDAT __mep@??0_Container_base12@std@@$$FQEAA@XZ
data	SEGMENT
__mep@??0_Container_base12@std@@$$FQEAA@XZ TOKEN 0A000071
data	ENDS
;	COMDAT __m2mep@??0_Container_base12@std@@$$FQEAA@XZ
data	SEGMENT
__m2mep@??0_Container_base12@std@@$$FQEAA@XZ DD FLAT:??0_Container_base12@std@@$$FQEAA@XZ
data	ENDS
; Function compile flags: /Ods
;	COMDAT nep
_TEXT	SEGMENT
__t2m@??0_Container_base12@std@@QEAA@XZ PROC		; COMDAT
	jmp	SHORT $LN1@
	ud2
$LN2@:
	jmp	QWORD PTR __m2mep@??0_Container_base12@std@@$$FQEAA@XZ
$LN1@:
	jmp	QWORD PTR __mep@??0_Container_base12@std@@$$FQEAA@XZ
__t2m@??0_Container_base12@std@@QEAA@XZ ENDP
_TEXT	ENDS
